(dp0
S'letter'
p1
(lp2
(lp3
cnumpy.core.multiarray
scalar
p4
(cnumpy
dtype
p5
(S'f8'
p6
I0
I1
tp7
Rp8
(I3
S'<'
p9
NNNI-1
I-1
I0
tp10
bS'\xe5\xd0"\xdb\xf9~\xee?'
p11
tp12
Rp13
ag4
(g8
S'\x8c\xecM\xfa\xf6\x84\xee?'
p14
tp15
Rp16
aF5.787730932235718
aI5000
aS'kernel = 2 degree'
p17
ag4
(g8
S'\xcff\xd5\xe7j+\xee?'
p18
tp19
Rp20
ag4
(g8
S'\r\xc0\xea1S5\xee?'
p21
tp22
Rp23
aF3.921405076980591
aI5000
aS'kernel = 2 degree'
p24
ag4
(g8
S'\x08=\x9bU\x9f\xab\xed?'
p25
tp26
Rp27
ag4
(g8
S'\x87\xdb\x83\xd4u\xb8\xed?'
p28
tp29
Rp30
aF3.1334331035614014
aI5000
aS'kernel = 2 degree'
p31
aa(lp32
g4
(g8
S'\xdc\xd7\x81sF\x94\xee?'
p33
tp34
Rp35
ag4
(g8
S'\xaa\xfc\x8c\x89\x03\x99\xee?'
p36
tp37
Rp38
aF5.123095989227295
aI5000
aS'kernel = 2 degree'
p39
ag4
(g8
S'\xf1\xf4JY\x868\xee?'
p40
tp41
Rp42
ag4
(g8
S'\xfd\xdc\xa2\xe2*?\xee?'
p43
tp44
Rp45
aF4.020473957061768
aI5000
aS'kernel = 2 degree'
p46
ag4
(g8
S'\xe4\x83\x9e\xcd\xaa\xcf\xed?'
p47
tp48
Rp49
ag4
(g8
S'\x8a\x16\x8d\x9c\xf7\xd6\xed?'
p50
tp51
Rp52
aF3.20953106880188
aI5000
aS'kernel = 2 degree'
p53
aa(lp54
g4
(g8
S'C\xadi\xdeq\x8a\xee?'
p55
tp56
Rp57
ag4
(g8
S'\xa35\xfd\xe6\xf9\x86\xee?'
p58
tp59
Rp60
aF5.161484956741333
aI5000
aS'kernel = 2 degree'
p61
ag4
(g8
S'\x12\x83\xc0\xca\xa1E\xee?'
p62
tp63
Rp64
ag4
(g8
S'\x86\xf1(\x17XA\xee?'
p65
tp66
Rp67
aF4.210187196731567
aI5000
aS'kernel = 2 degree'
p68
ag4
(g8
S'KY\x868\xd6\xc5\xed?'
p69
tp70
Rp71
ag4
(g8
S'\xbc\r\xc9\xdb\x90\xbc\xed?'
p72
tp73
Rp74
aF4.229546070098877
aI5000
aS'kernel = 2 degree'
p75
aa(lp76
g4
(g8
S'\xed\x9e<,\xd4\x9a\xee?'
p77
tp78
Rp79
ag4
(g8
S'\x08\xc8\xd6\x03\x9f\x9f\xee?'
p80
tp81
Rp82
aF6.613970994949341
aI5000
aS'kernel = 2 degree'
p83
ag4
(g8
S'\xe7\xfb\xa9\xf1\xd2M\xee?'
p84
tp85
Rp86
ag4
(g8
S'\xfd\x8cw\x8a=T\xee?'
p87
tp88
Rp89
aF5.230795860290527
aI5000
aS'kernel = 2 degree'
p90
ag4
(g8
S'\xcc\xee\xc9\xc3B\xad\xed?'
p91
tp92
Rp93
ag4
(g8
S'1\x1f\x1bD\x94\xb8\xed?'
p94
tp95
Rp96
aF4.326262950897217
aI5000
aS'kernel = 2 degree'
p97
aa(lp98
g4
(g8
S'\x18&S\x05\xa3\x92\xee?'
p99
tp100
Rp101
ag4
(g8
S'1\xfc]]\x81\x90\xee?'
p102
tp103
Rp104
aF4.784917116165161
aI5000
aS'kernel = 2 degree'
p105
ag4
(g8
S'\xe7\xfb\xa9\xf1\xd2M\xee?'
p106
tp107
Rp108
ag4
(g8
S'\xd6\xe4\x05\xafcM\xee?'
p109
tp110
Rp111
aF4.989586114883423
aI5000
aS'kernel = 2 degree'
p112
ag4
(g8
S' \xd2o_\x07\xce\xed?'
p113
tp114
Rp115
ag4
(g8
S'\xeb\xa5\xc7\x97\xa8\xcb\xed?'
p116
tp117
Rp118
aF3.074709892272949
aI5000
aS'kernel = 2 degree'
p119
aa(lp120
g4
(g8
S'\xf6\x97\xdd\x93\x87\x85\xee?'
p121
tp122
Rp123
ag4
(g8
S']\x12\xcb\xd4\xc7\x83\xee?'
p124
tp125
Rp126
aF5.65425181388855
aI5000
aS'kernel = 2 degree'
p127
ag4
(g8
S'X\xca2\xc4\xb1.\xee?'
p128
tp129
Rp130
ag4
(g8
S'\x9a\x16G]3-\xee?'
p131
tp132
Rp133
aF3.0684750080108643
aI5000
aS'kernel = 2 degree'
p134
ag4
(g8
S'\x89\xd2\xde\xe0\x0b\x93\xed?'
p135
tp136
Rp137
ag4
(g8
S'\xebI-\xc6j\x8e\xed?'
p138
tp139
Rp140
aF3.387708902359009
aI5000
aS'kernel = 2 degree'
p141
aa(lp142
g4
(g8
S')\xed\r\xbe0\x99\xee?'
p143
tp144
Rp145
ag4
(g8
S'\x02\xf3\xe9-0\x9f\xee?'
p146
tp147
Rp148
aF4.341856956481934
aI5000
aS'kernel = 2 degree'
p149
ag4
(g8
S'w-!\x1f\xf4l\xee?'
p150
tp151
Rp152
ag4
(g8
S's\xce9\xe7\x9cs\xee?'
p153
tp154
Rp155
aF3.0110838413238525
aI5000
aS'kernel = 2 degree'
p156
ag4
(g8
S'v\xe0\x9c\x11\xa5\xbd\xed?'
p157
tp158
Rp159
ag4
(g8
S'-\x04/\x93\xfb\xc7\xed?'
p160
tp161
Rp162
aF2.0760340690612793
aI5000
aS'kernel = 2 degree'
p163
aa(lp164
g4
(g8
S'\x07_\x98L\x15\x8c\xee?'
p165
tp166
Rp167
ag4
(g8
S'b\x1dl\xf2\xfb\x8f\xee?'
p168
tp169
Rp170
aF3.041889190673828
aI5000
aS'kernel = 2 degree'
p171
ag4
(g8
S'\x1c|a2U0\xee?'
p172
tp173
Rp174
ag4
(g8
S'\xf9\xc7\x0b1\x1a6\xee?'
p175
tp176
Rp177
aF2.515712022781372
aI5000
aS'kernel = 2 degree'
p178
ag4
(g8
S'\xf7u\xe0\x9c\x11\xa5\xed?'
p179
tp180
Rp181
ag4
(g8
S'-\xd7\xe2X\xf6\xaf\xed?'
p182
tp183
Rp184
aF1.750730037689209
aI5000
aS'kernel = 2 degree'
p185
aa(lp186
g4
(g8
S'\x7f\xfb:p\xce\x88\xee?'
p187
tp188
Rp189
ag4
(g8
S'I\x16)\xc6\x94\x88\xee?'
p190
tp191
Rp192
aF1.8393371105194092
aI5000
aS'kernel = 2 degree'
p193
ag4
(g8
S'\t\x8a\x1fc\xeeZ\xee?'
p194
tp195
Rp196
ag4
(g8
S'0\x1b,\x11\xb0[\xee?'
p197
tp198
Rp199
aF2.2289860248565674
aI5000
aS'kernel = 2 degree'
p200
ag4
(g8
S'\xb2.n\xa3\x01\xbc\xed?'
p201
tp202
Rp203
ag4
(g8
S'\xc0J\xa9\x12\t\xb8\xed?'
p204
tp205
Rp206
aF1.0801680088043213
aI5000
aS'kernel = 2 degree'
p207
aa(lp208
g4
(g8
S'C\xadi\xdeq\x8a\xee?'
p209
tp210
Rp211
ag4
(g8
S'\xa35\xfd\xe6\xf9\x86\xee?'
p212
tp213
Rp214
aF1.8313329219818115
aI5000
aS'kernel = 2 degree'
p215
ag4
(g8
S'\x02\xbc\x05\x12\x14?\xee?'
p216
tp217
Rp218
ag4
(g8
S'\xf1\xaeK\x1b\xba:\xee?'
p219
tp220
Rp221
aF1.4927451610565186
aI5000
aS'kernel = 2 degree'
p222
ag4
(g8
S'\xe4\x83\x9e\xcd\xaa\xcf\xed?'
p223
tp224
Rp225
ag4
(g8
S'\xb09\x0b\xec?\xc7\xed?'
p226
tp227
Rp228
aF1.2640690803527832
aI5000
aS'kernel = 2 degree'
p229
aas.