(dp0
S'sat'
p1
(lp2
(lp3
cnumpy.core.multiarray
scalar
p4
(cnumpy
dtype
p5
(S'f8'
p6
I0
I1
tp7
Rp8
(I3
S'<'
p9
NNNI-1
I-1
I0
tp10
bS'b\xd80edA\xed?'
p11
tp12
Rp13
ag4
(g8
S'\xbf\xcd\xf5\xe3\xf2\xdb\xec?'
p14
tp15
Rp16
aF0.8914217948913574
aI1609
aS'kernel = 0 degree'
p17
ag4
(g8
S'/\n\xc0\x01M<\xed?'
p18
tp19
Rp20
ag4
(g8
S'\x82\x98\x97\xc0\x8b\xd5\xec?'
p21
tp22
Rp23
aF1.1986279487609863
aI1609
aS'kernel = 0 degree'
p24
ag4
(g8
S'\xc8f\xaaI\xa9\x18\xed?'
p25
tp26
Rp27
ag4
(g8
S'z\xe4\xc3a&\xb2\xec?'
p28
tp29
Rp30
aF0.7604320049285889
aI1609
aS'kernel = 0 degree'
p31
aa(lp32
g4
(g8
S'/&\x90\xc6 \xa2\xed?'
p33
tp34
Rp35
ag4
(g8
S'\xbc`A8H,\xed?'
p36
tp37
Rp38
aF1.29557204246521
aI1609
aS'kernel = 0 degree'
p39
ag4
(g8
S'/&\x90\xc6 \xa2\xed?'
p40
tp41
Rp42
ag4
(g8
S'\xbc`A8H,\xed?'
p43
tp44
Rp45
aF0.9113209247589111
aI1609
aS'kernel = 0 degree'
p46
ag4
(g8
S'\xfcW\x1fc\t\x9d\xed?'
p47
tp48
Rp49
ag4
(g8
S'\xdf\xc9\x0f\xe6<.\xed?'
p50
tp51
Rp52
aF1.0725829601287842
aI1609
aS'kernel = 0 degree'
p53
aa(lp54
g4
(g8
S'0-\xc4\xb7\x95\xbb\xed?'
p55
tp56
Rp57
ag4
(g8
S'\xa0\x8a4}PX\xed?'
p58
tp59
Rp60
aF1.2342848777770996
aI1609
aS'kernel = 0 degree'
p61
ag4
(g8
S'\x96\xbb=\x9c\xda\x92\xed?'
p62
tp63
Rp64
ag4
(g8
S'\xd3\x84\x15\x9b\xc7+\xed?'
p65
tp66
Rp67
aF1.0453951358795166
aI1609
aS'kernel = 0 degree'
p68
ag4
(g8
S'b\xed\xcc8\xc3\x8d\xed?'
p69
tp70
Rp71
ag4
(g8
S'\xa1\xd3\x04bP%\xed?'
p72
tp73
Rp74
aF1.023550033569336
aI1609
aS'kernel = 0 degree'
p75
aa(lp76
g4
(g8
S'\xfcP\xebq\x94\x83\xed?'
p77
tp78
Rp79
ag4
(g8
S"\xcc\x87t'\xf3!\xed?"
p80
tp81
Rp82
aF1.3365929126739502
aI1609
aS'kernel = 0 degree'
p83
ag4
(g8
S'\x96\xb4\t\xabey\xed?'
p84
tp85
Rp86
ag4
(g8
S'X\xfa\xac$u\x1a\xed?'
p87
tp88
Rp89
aF0.9154019355773926
aI1609
aS'kernel = 0 degree'
p90
ag4
(g8
S'\x95\xad\xd5\xb9\xf0_\xed?'
p91
tp92
Rp93
ag4
(g8
S'z\x01\xdb\x9c\xae\xf2\xec?'
p94
tp95
Rp96
aF0.852280855178833
aI1609
aS'kernel = 0 degree'
p97
aa(lp98
g4
(g8
S'\xca\xac\xb2\xb5:\x17\xee?'
p99
tp100
Rp101
ag4
(g8
S'\xf1\xf7t\xb6\x15\xe6\xed?'
p102
tp103
Rp104
aF0.9187331199645996
aI1609
aS'kernel = 0 degree'
p105
ag4
(g8
S'0;,\x9a\x7f\xee\xed?'
p106
tp107
Rp108
ag4
(g8
S'\x1b\x99,\xe9\xa8\xb7\xed?'
p109
tp110
Rp111
aF0.9291369915008545
aI1609
aS'kernel = 0 degree'
p112
ag4
(g8
S'\xc9\x9eJ\xd3P\xe4\xed?'
p113
tp114
Rp115
ag4
(g8
S'\x85\xd1\x1b\xb7\xc8\xaa\xed?'
p116
tp117
Rp118
aF0.8600068092346191
aI1609
aS'kernel = 0 degree'
p119
aa(lp120
g4
(g8
S'\x96\xb4\t\xabey\xed?'
p121
tp122
Rp123
ag4
(g8
S'\xb2\xadD\x86\x9d\x1d\xed?'
p124
tp125
Rp126
aF1.2120561599731445
aI1609
aS'kernel = 0 degree'
p127
ag4
(g8
S'b\xdfdV\xd9Z\xed?'
p128
tp129
Rp130
ag4
(g8
S'\x05\x9d6\xd0i\x03\xed?'
p131
tp132
Rp133
aF0.9198780059814453
aI1609
aS'kernel = 0 degree'
p134
ag4
(g8
S'b\xdfdV\xd9Z\xed?'
p135
tp136
Rp137
ag4
(g8
S'R]b\xd6B\x01\xed?'
p138
tp139
Rp140
aF0.817540168762207
aI1609
aS'kernel = 0 degree'
p141
aa(lp142
g4
(g8
S'\x96\xc2q\x8dO\xac\xed?'
p143
tp144
Rp145
ag4
(g8
S'\xb8C\x18\xcf\xc3?\xed?'
p146
tp147
Rp148
aF1.317979097366333
aI1609
aS'kernel = 0 degree'
p149
ag4
(g8
S'c\xfb4\x1b\xad\xc0\xed?'
p150
tp151
Rp152
ag4
(g8
S'][u\x1f\xd7V\xed?'
p153
tp154
Rp155
aF1.5011749267578125
aI1609
aS'kernel = 0 degree'
p156
ag4
(g8
S'\xc9\x89\xae\xff\xf1\x97\xed?'
p157
tp158
Rp159
ag4
(g8
S'D!\xd6\xe0\xb8\x1b\xed?'
p160
tp161
Rp162
aF1.1604878902435303
aI1609
aS'kernel = 0 degree'
p163
aa(lp164
g4
(g8
S'\x96\xd7\ra\xae\xf8\xed?'
p165
tp166
Rp167
ag4
(g8
S'\xcd\xda\xac\xcd\xda\xac\xed?'
p168
tp169
Rp170
aF1.4341819286346436
aI1609
aS'kernel = 0 degree'
p171
ag4
(g8
S'\xfdl\xbb6h\xe9\xed?'
p172
tp173
Rp174
ag4
(g8
S'\xe0\xb1\xadD\x86\x9d\xed?'
p175
tp176
Rp177
aF1.6115729808807373
aI1609
aS'kernel = 0 degree'
p178
ag4
(g8
S'\xfcW\x1fc\t\x9d\xed?'
p179
tp180
Rp181
ag4
(g8
S'3\xef\xc5\x8a\xd4B\xed?'
p182
tp183
Rp184
aF1.2646338939666748
aI1609
aS'kernel = 0 degree'
p185
aa(lp186
g4
(g8
S'\x96\xc9\xa5~\xc4\xc5\xed?'
p187
tp188
Rp189
ag4
(g8
S'I(\x96\xd2\xb3o\xed?'
p190
tp191
Rp192
aF1.3571970462799072
aI1609
aS'kernel = 0 degree'
p193
ag4
(g8
S'/&\x90\xc6 \xa2\xed?'
p194
tp195
Rp196
ag4
(g8
S'\x0c\xc0HG/F\xed?'
p197
tp198
Rp199
aF1.5879530906677246
aI1609
aS'kernel = 0 degree'
p200
ag4
(g8
S'/\x1f\\\xd5\xab\x88\xed?'
p201
tp202
Rp203
ag4
(g8
S'\xbe\xf5\x93\x84b)\xed?'
p204
tp205
Rp206
aF1.0363378524780273
aI1609
aS'kernel = 0 degree'
p207
aa(lp208
g4
(g8
S'b\xed\xcc8\xc3\x8d\xed?'
p209
tp210
Rp211
ag4
(g8
S'\xa3\xbb\xc3@\xe8;\xed?'
p212
tp213
Rp214
aF1.3977649211883545
aI1609
aS'kernel = 0 degree'
p215
ag4
(g8
S'\x96\xbb=\x9c\xda\x92\xed?'
p216
tp217
Rp218
ag4
(g8
S'\xa8q\x87K0;\xed?'
p219
tp220
Rp221
aF0.7792198657989502
aI1609
aS'kernel = 0 degree'
p222
ag4
(g8
S'/\x11\xf4\xf2\xc1U\xed?'
p223
tp224
Rp225
ag4
(g8
S'm\x01D\xef\xa0\x04\xed?'
p226
tp227
Rp228
aF1.078258991241455
aI1609
aS'kernel = 0 degree'
p229
aas.