(dp0
S'letter'
p1
(lp2
(lp3
cnumpy.core.multiarray
scalar
p4
(cnumpy
dtype
p5
(S'f8'
p6
I0
I1
tp7
Rp8
(I3
S'<'
p9
NNNI-1
I-1
I0
tp10
bS'\x99\xbb\x96\x90\x0fz\xee?'
p11
tp12
Rp13
ag4
(g8
S'E\xe1)\x83\x8e\x81\xee?'
p14
tp15
Rp16
aF5.385801076889038
aI5000
aS'kernel = 2 degree'
p17
ag4
(g8
S'\xe0-\x90\xa0\xf81\xee?'
p18
tp19
Rp20
ag4
(g8
S'\x8e\xe38\x8e\xe38\xee?'
p21
tp22
Rp23
aF4.018605947494507
aI5000
aS'kernel = 2 degree'
p24
ag4
(g8
S'\x92\xcb\x7fH\xbf}\xed?'
p25
tp26
Rp27
ag4
(g8
S',\t\x995\x1c\x88\xed?'
p28
tp29
Rp30
aF3.0671069622039795
aI5000
aS'kernel = 2 degree'
p31
aa(lp32
g4
(g8
S'C\xadi\xdeq\x8a\xee?'
p33
tp34
Rp35
ag4
(g8
S'\x84\xee\x19\x8aV\x91\xee?'
p36
tp37
Rp38
aF5.440388917922974
aI5000
aS'kernel = 2 degree'
p39
ag4
(g8
S'p_\x07\xce\x19Q\xee?'
p40
tp41
Rp42
ag4
(g8
S'mD\x14T\xccY\xee?'
p43
tp44
Rp45
aF4.0987608432769775
aI5000
aS'kernel = 2 degree'
p46
ag4
(g8
S'\xc3\xf5(\\\x8f\xc2\xed?'
p47
tp48
Rp49
ag4
(g8
S'/\xfby\x98>\xce\xed?'
p50
tp51
Rp52
aF3.251091957092285
aI5000
aS'kernel = 2 degree'
p53
aa(lp54
g4
(g8
S'd;\xdfO\x8d\x97\xee?'
p55
tp56
Rp57
ag4
(g8
S'\x03\xbd\xaf\xf5\x8e\x98\xee?'
p58
tp59
Rp60
aF5.5123889446258545
aI5000
aS'kernel = 2 degree'
p61
ag4
(g8
S'\xbct\x93\x18\x04V\xee?'
p62
tp63
Rp64
ag4
(g8
S'\xf4\xb1\xa51\tW\xee?'
p65
tp66
Rp67
aF4.399432897567749
aI5000
aS'kernel = 2 degree'
p68
ag4
(g8
S'\xcc\xee\xc9\xc3B\xad\xed?'
p69
tp70
Rp71
ag4
(g8
S'\x82s;\x11D\xb3\xed?'
p72
tp73
Rp74
aF3.6785190105438232
aI5000
aS'kernel = 2 degree'
p75
aa(lp76
g4
(g8
S'\xdc\xd7\x81sF\x94\xee?'
p77
tp78
Rp79
ag4
(g8
S'\xf2\xaa\xae\xe4s\x90\xee?'
p80
tp81
Rp82
aF6.703487873077393
aI5000
aS'kernel = 2 degree'
p83
ag4
(g8
S'\t\x8a\x1fc\xeeZ\xee?'
p84
tp85
Rp86
ag4
(g8
S'A\xc1\xbf\xfc\x9eW\xee?'
p87
tp88
Rp89
aF5.023860931396484
aI5000
aS'kernel = 2 degree'
p90
ag4
(g8
S'}\xae\xb6b\x7f\xd9\xed?'
p91
tp92
Rp93
ag4
(g8
S'\xd8\x1b;\xbd|\xd3\xed?'
p94
tp95
Rp96
aF4.25779390335083
aI5000
aS'kernel = 2 degree'
p97
aa(lp98
g4
(g8
S'l\t\xf9\xa0g\xb3\xee?'
p99
tp100
Rp101
ag4
(g8
S'{\xf4\x9f\x83\x00\xb2\xee?'
p102
tp103
Rp104
aF5.439888000488281
aI5000
aS'kernel = 2 degree'
p105
ag4
(g8
S'4\x116<\xbdR\xee?'
p106
tp107
Rp108
ag4
(g8
S'M\x1b\xe5\xdc\xb4Q\xee?'
p109
tp110
Rp111
aF3.9953439235687256
aI5000
aS'kernel = 2 degree'
p112
ag4
(g8
S'\xe2X\x17\xb7\xd1\x00\xee?'
p113
tp114
Rp115
ag4
(g8
S'"\xa3\x87v\xaa\x03\xee?'
p116
tp117
Rp118
aF3.0593018531799316
aI5000
aS'kernel = 2 degree'
p119
aa(lp120
g4
(g8
S']m\xc5\xfe\xb2{\xee?'
p121
tp122
Rp123
ag4
(g8
S'\x86|*\x15oy\xee?'
p124
tp125
Rp126
aF5.980589151382446
aI5000
aS'kernel = 2 degree'
p127
ag4
(g8
S'\xc6m4\x80\xb7@\xee?'
p128
tp129
Rp130
ag4
(g8
S'\xc9L0X3=\xee?'
p131
tp132
Rp133
aF3.8703958988189697
aI5000
aS'kernel = 2 degree'
p134
ag4
(g8
S'\xb2.n\xa3\x01\xbc\xed?'
p135
tp136
Rp137
ag4
(g8
S'\xb4-\xdc\x83\xf9\xb8\xed?'
p138
tp139
Rp140
aF2.7102391719818115
aI5000
aS'kernel = 2 degree'
p141
aa(lp142
g4
(g8
S'd;\xdfO\x8d\x97\xee?'
p143
tp144
Rp145
ag4
(g8
S'p\xbcM\x1d\xd8\x99\xee?'
p146
tp147
Rp148
aF4.541928052902222
aI5000
aS'kernel = 2 degree'
p149
ag4
(g8
S'_\x98L\x15\x8cJ\xee?'
p150
tp151
Rp152
ag4
(g8
S'\xa5\xc0\x9f\xf7FN\xee?'
p153
tp154
Rp155
aF3.058872938156128
aI5000
aS'kernel = 2 degree'
p156
ag4
(g8
S'c\xeeZB>\xe8\xed?'
p157
tp158
Rp159
ag4
(g8
S'\x89\xb8U`\x1e\xef\xed?'
p160
tp161
Rp162
aF2.31358003616333
aI5000
aS'kernel = 2 degree'
p163
aa(lp164
g4
(g8
S'\x07_\x98L\x15\x8c\xee?'
p165
tp166
Rp167
ag4
(g8
S'P_\xc0\xce\xf6\x8a\xee?'
p168
tp169
Rp170
aF2.050128936767578
aI5000
aS'kernel = 2 degree'
p171
ag4
(g8
S'\xf8\xc2d\xaa`T\xee?'
p172
tp173
Rp174
ag4
(g8
S'\x86\xc6\xf2\x8e:R\xee?'
p175
tp176
Rp177
aF2.56473708152771
aI5000
aS'kernel = 2 degree'
p178
ag4
(g8
S'\xdb\x8a\xfde\xf7\xe4\xed?'
p179
tp180
Rp181
ag4
(g8
S'\xa2\rS#\x94\xe6\xed?'
p182
tp183
Rp184
aF1.8373360633850098
aI5000
aS'kernel = 2 degree'
p185
aa(lp186
g4
(g8
S'\x86\xc9T\xc1\xa8\xa4\xee?'
p187
tp188
Rp189
ag4
(g8
S'Asyt\x8d\xa7\xee?'
p190
tp191
Rp192
aF2.4813899993896484
aI5000
aS'kernel = 2 degree'
p193
ag4
(g8
S'\xb3{\xf2\xb0Pk\xee?'
p194
tp195
Rp196
ag4
(g8
S'\xa2\xad\xba\xccYp\xee?'
p197
tp198
Rp199
aF1.9182641506195068
aI5000
aS'kernel = 2 degree'
p200
ag4
(g8
S'1\x99*\x18\x95\xd4\xed?'
p201
tp202
Rp203
ag4
(g8
S'D%)\x90\x01\xdd\xed?'
p204
tp205
Rp206
aF1.0918300151824951
aI5000
aS'kernel = 2 degree'
p207
aa(lp208
g4
(g8
S'\xdc\xd7\x81sF\x94\xee?'
p209
tp210
Rp211
ag4
(g8
S'\xf2\xaa\xae\xe4s\x90\xee?'
p212
tp213
Rp214
aF1.8199470043182373
aI5000
aS'kernel = 2 degree'
p215
ag4
(g8
S'N\xd1\x91\\\xfeC\xee?'
p216
tp217
Rp218
ag4
(g8
S'\xecs\xf2i\x99?\xee?'
p219
tp220
Rp221
aF1.4964940547943115
aI5000
aS'kernel = 2 degree'
p222
ag4
(g8
S'\x116<\xbdR\x96\xed?'
p223
tp224
Rp225
ag4
(g8
S'\xec;\xf4\xc8\xb1\x8e\xed?'
p226
tp227
Rp228
aF1.2473571300506592
aI5000
aS'kernel = 2 degree'
p229
aas.