(dp0
S'sat'
p1
(lp2
(lp3
cnumpy.core.multiarray
scalar
p4
(cnumpy
dtype
p5
(S'f8'
p6
I0
I1
tp7
Rp8
(I3
S'<'
p9
NNNI-1
I-1
I0
tp10
bS'/&\x90\xc6 \xa2\xed?'
p11
tp12
Rp13
ag4
(g8
S'4\xa9\xf2P-H\xed?'
p14
tp15
Rp16
aF1.2978808879852295
aI1609
aS'kernel = 0 degree'
p17
ag4
(g8
S'\xfc^ST~\xb6\xed?'
p18
tp19
Rp20
ag4
(g8
S'ez\xc6H\xb4[\xed?'
p21
tp22
Rp23
aF1.110300064086914
aI1609
aS'kernel = 0 degree'
p24
ag4
(g8
S'\xc8t\x12,\x93K\xed?'
p25
tp26
Rp27
ag4
(g8
S'\xb4\xa1\xff\x06{\xde\xec?'
p28
tp29
Rp30
aF0.9235429763793945
aI1609
aS'kernel = 0 degree'
p31
aa(lp32
g4
(g8
S'\xfc^ST~\xb6\xed?'
p33
tp34
Rp35
ag4
(g8
S'\xadc~\xf3\xadF\xed?'
p36
tp37
Rp38
aF1.3611268997192383
aI1609
aS'kernel = 0 degree'
p39
ag4
(g8
S'\xc9\x90\xe2\xf0f\xb1\xed?'
p40
tp41
Rp42
ag4
(g8
S'\xcf\xf3<\xcf\xf3<\xed?'
p43
tp44
Rp45
aF1.1374528408050537
aI1609
aS'kernel = 0 degree'
p46
ag4
(g8
S'b\xed\xcc8\xc3\x8d\xed?'
p47
tp48
Rp49
ag4
(g8
S'\x0b\x18\x80\x92\xbc\x1c\xed?'
p50
tp51
Rp52
aF0.8747191429138184
aI1609
aS'kernel = 0 degree'
p53
aa(lp54
g4
(g8
S'\xc9\x97\x16\xe2\xdb\xca\xed?'
p55
tp56
Rp57
ag4
(g8
S'\x8e\xf63\xe2\xa3z\xed?'
p58
tp59
Rp60
aF0.9470078945159912
aI1609
aS'kernel = 0 degree'
p61
ag4
(g8
S'04\xf8\xa8\n\xd5\xed?'
p62
tp63
Rp64
ag4
(g8
S'\xe4a\x1a\x11^\x85\xed?'
p65
tp66
Rp67
aF1.1402969360351562
aI1609
aS'kernel = 0 degree'
p68
ag4
(g8
S'b\xed\xcc8\xc3\x8d\xed?'
p69
tp70
Rp71
ag4
(g8
S'%\xec\xe8\xa6\xdd?\xed?'
p72
tp73
Rp74
aF0.9062750339508057
aI1609
aS'kernel = 0 degree'
p75
aa(lp76
g4
(g8
S'04\xf8\xa8\n\xd5\xed?'
p77
tp78
Rp79
ag4
(g8
S'\xbe;\x92\x1a\xd3\x80\xed?'
p80
tp81
Rp82
aF1.038902997970581
aI1609
aS'kernel = 0 degree'
p83
ag4
(g8
S'\xc9\x90\xe2\xf0f\xb1\xed?'
p84
tp85
Rp86
ag4
(g8
S'UUUUUU\xed?'
p87
tp88
Rp89
aF0.8888950347900391
aI1609
aS'kernel = 0 degree'
p90
ag4
(g8
S'c\xfb4\x1b\xad\xc0\xed?'
p91
tp92
Rp93
ag4
(g8
S'\x13\x08\xdc+kh\xed?'
p94
tp95
Rp96
aF1.049915075302124
aI1609
aS'kernel = 0 degree'
p97
aa(lp98
g4
(g8
S'c\xfb4\x1b\xad\xc0\xed?'
p99
tp100
Rp101
ag4
(g8
S'\x12\xbb\xdaA\xccq\xed?'
p102
tp103
Rp104
aF1.0180299282073975
aI1609
aS'kernel = 0 degree'
p105
ag4
(g8
S'\xfc^ST~\xb6\xed?'
p106
tp107
Rp108
ag4
(g8
S'\xc6\xd2\xb5\x158f\xed?'
p109
tp110
Rp111
aF1.0605418682098389
aI1609
aS'kernel = 0 degree'
p112
ag4
(g8
S'\xc9\x89\xae\xff\xf1\x97\xed?'
p113
tp114
Rp115
ag4
(g8
S'\xe0\x19G\x91{C\xed?'
p116
tp117
Rp118
aF0.9064900875091553
aI1609
aS'kernel = 0 degree'
p119
aa(lp120
g4
(g8
S'c\x02i\x0c"\xda\xed?'
p121
tp122
Rp123
ag4
(g8
S'\x82\x86\x93\xba/\x8f\xed?'
p124
tp125
Rp126
aF1.1798739433288574
aI1609
aS'kernel = 0 degree'
p127
ag4
(g8
S'\xfcW\x1fc\t\x9d\xed?'
p128
tp129
Rp130
ag4
(g8
S'\xefO\xce%\xb1L\xed?'
p131
tp132
Rp133
aF1.1668970584869385
aI1609
aS'kernel = 0 degree'
p134
ag4
(g8
S'c\xf4\x00*8\xa7\xed?'
p135
tp136
Rp137
ag4
(g8
S'\xf0!:\xd3KV\xed?'
p138
tp139
Rp140
aF1.0181210041046143
aI1609
aS'kernel = 0 degree'
p141
aa(lp142
g4
(g8
S'\xfcP\xebq\x94\x83\xed?'
p143
tp144
Rp145
ag4
(g8
S'\x05\x824U\xa7\xfe\xec?'
p146
tp147
Rp148
aF1.5847890377044678
aI1609
aS'kernel = 0 degree'
p149
ag4
(g8
S'c\xf4\x00*8\xa7\xed?'
p150
tp151
Rp152
ag4
(g8
S'/7\xc4\x80t,\xed?'
p153
tp154
Rp155
aF0.749305009841919
aI1609
aS'kernel = 0 degree'
p156
ag4
(g8
S'\x96\xc2q\x8dO\xac\xed?'
p157
tp158
Rp159
ag4
(g8
S'K\xf7\x06\x94\x89+\xed?'
p160
tp161
Rp162
aF0.6613609790802002
aI1609
aS'kernel = 0 degree'
p163
aa(lp164
g4
(g8
S'\xfcI\xb7\x80\x1fj\xed?'
p165
tp166
Rp167
ag4
(g8
S'V\xc2\xd8,\xa8\xf6\xec?'
p168
tp169
Rp170
aF1.0585920810699463
aI1609
aS'kernel = 0 degree'
p171
ag4
(g8
S'\x96\xb4\t\xabey\xed?'
p172
tp173
Rp174
ag4
(g8
S'\x18\xf3\xccx\n\x08\xed?'
p175
tp176
Rp177
aF1.190108060836792
aI1609
aS'kernel = 0 degree'
p178
ag4
(g8
S'\xc8t\x12,\x93K\xed?'
p179
tp180
Rp181
ag4
(g8
S'N\xcb`\x91\xc7\xd2\xec?'
p182
tp183
Rp184
aF1.043712854385376
aI1609
aS'kernel = 0 degree'
p185
aa(lp186
g4
(g8
S'/\x1f\\\xd5\xab\x88\xed?'
p187
tp188
Rp189
ag4
(g8
S'\x82\xcc\x10:u+\xed?'
p190
tp191
Rp192
aF1.3958220481872559
aI1609
aS'kernel = 0 degree'
p193
ag4
(g8
S'\xfcI\xb7\x80\x1fj\xed?'
p194
tp195
Rp196
ag4
(g8
S'u\xc0n\x8f\xb5\x0c\xed?'
p197
tp198
Rp199
aF1.5268750190734863
aI1609
aS'kernel = 0 degree'
p200
ag4
(g8
S'\x95\x9fm\xd7\x06-\xed?'
p201
tp202
Rp203
ag4
(g8
S'\xb8\x00\x12\xc2\xf3\xcd\xec?'
p204
tp205
Rp206
aF0.7127289772033691
aI1609
aS'kernel = 0 degree'
p207
aa(lp208
g4
(g8
S'b\xe6\x98GNt\xed?'
p209
tp210
Rp211
ag4
(g8
S'l\xed\xd1;\x0f\x07\xed?'
p212
tp213
Rp214
aF1.5911729335784912
aI1609
aS'kernel = 0 degree'
p215
ag4
(g8
S'/\x18(\xe46o\xed?'
p216
tp217
Rp218
ag4
(g8
S'\x12L\x88iR\xfe\xec?'
p219
tp220
Rp221
aF0.7365109920501709
aI1609
aS'kernel = 0 degree'
p222
ag4
(g8
S'\xfcP\xebq\x94\x83\xed?'
p223
tp224
Rp225
ag4
(g8
S'\x1e\xe5\xbc!\x82\x1a\xed?'
p226
tp227
Rp228
aF1.0355560779571533
aI1609
aS'kernel = 0 degree'
p229
aas.