(dp0
S'sat'
p1
(lp2
(lp3
cnumpy.core.multiarray
scalar
p4
(cnumpy
dtype
p5
(S'f8'
p6
I0
I1
tp7
Rp8
(I3
S'<'
p9
NNNI-1
I-1
I0
tp10
bS'b\xdfdV\xd9Z\xed?'
p11
tp12
Rp13
ag4
(g8
S'\xaa07\xb8t\xe6\xec?'
p14
tp15
Rp16
aF1.192077875137329
aI1609
aS'kernel = 0 degree'
p17
ag4
(g8
S"b\xd1\xfcs\xef'\xed?"
p18
tp19
Rp20
ag4
(g8
S'"\\c\xc8\xbb\xaf\xec?'
p21
tp22
Rp23
aF1.0170009136199951
aI1609
aS'kernel = 0 degree'
p24
ag4
(g8
S'\xfc;O\x9e57\xed?'
p25
tp26
Rp27
ag4
(g8
S'\xb7\xdcr\xcb-\xb7\xec?'
p28
tp29
Rp30
aF0.8793878555297852
aI1609
aS'kernel = 0 degree'
p31
aa(lp32
g4
(g8
S'\x96\xc2q\x8dO\xac\xed?'
p33
tp34
Rp35
ag4
(g8
S'\xed\x8a\xc8\xca\xe6D\xed?'
p36
tp37
Rp38
aF1.1248328685760498
aI1609
aS'kernel = 0 degree'
p39
ag4
(g8
S'\xc9\x90\xe2\xf0f\xb1\xed?'
p40
tp41
Rp42
ag4
(g8
S'\x96\xd4VR[I\xed?'
p43
tp44
Rp45
aF1.2645180225372314
aI1609
aS'kernel = 0 degree'
p46
ag4
(g8
S'c\xf4\x00*8\xa7\xed?'
p47
tp48
Rp49
ag4
(g8
S'\xd3a\xf1tX<\xed?'
p50
tp51
Rp52
aF0.8387660980224609
aI1609
aS'kernel = 0 degree'
p53
aa(lp54
g4
(g8
S'b\xed\xcc8\xc3\x8d\xed?'
p55
tp56
Rp57
ag4
(g8
S'\xa3\xbb\xc3@\xe8;\xed?'
p58
tp59
Rp60
aF0.9761581420898438
aI1609
aS'kernel = 0 degree'
p61
ag4
(g8
S'\xc9\x82z\x0e}~\xed?'
p62
tp63
Rp64
ag4
(g8
S"\x97\xc7V\x04\r'\xed?"
p65
tp66
Rp67
aF1.1787700653076172
aI1609
aS'kernel = 0 degree'
p68
ag4
(g8
S'\x96\xb4\t\xabey\xed?'
p69
tp70
Rp71
ag4
(g8
S'dP\xeeZ\xfb)\xed?'
p72
tp73
Rp74
aF0.9348299503326416
aI1609
aS'kernel = 0 degree'
p75
aa(lp76
g4
(g8
S'\x96\xc2q\x8dO\xac\xed?'
p77
tp78
Rp79
ag4
(g8
S'Q\t\xf5\x1b\xdfS\xed?'
p80
tp81
Rp82
aF1.278198003768921
aI1609
aS'kernel = 0 degree'
p83
ag4
(g8
S'\xc9\x97\x16\xe2\xdb\xca\xed?'
p84
tp85
Rp86
ag4
(g8
S'\xb4\x1da\x87\xcdx\xed?'
p87
tp88
Rp89
aF0.9668490886688232
aI1609
aS'kernel = 0 degree'
p90
ag4
(g8
S'\x96\xbb=\x9c\xda\x92\xed?'
p91
tp92
Rp93
ag4
(g8
S'\x97\xd8\xeck\xfd0\xed?'
p94
tp95
Rp96
aF1.0259068012237549
aI1609
aS'kernel = 0 degree'
p97
aa(lp98
g4
(g8
S'\xc9{F\x1d\x08e\xed?'
p99
tp100
Rp101
ag4
(g8
S'J\xae\x03\xd4\x80\xfc\xec?'
p102
tp103
Rp104
aF1.1501967906951904
aI1609
aS'kernel = 0 degree'
p105
ag4
(g8
S'\xfcB\x83\x8f\xaaP\xed?'
p106
tp107
Rp108
ag4
(g8
S'\x8b\xc8Kv\x80\xe1\xec?'
p109
tp110
Rp111
aF0.906268835067749
aI1609
aS'kernel = 0 degree'
p112
ag4
(g8
S'\xc9\x82z\x0e}~\xed?'
p113
tp114
Rp115
ag4
(g8
S'\xbc\x8bG\xc0\xc4\x10\xed?'
p116
tp117
Rp118
aF1.100193977355957
aI1609
aS'kernel = 0 degree'
p119
aa(lp120
g4
(g8
S'0-\xc4\xb7\x95\xbb\xed?'
p121
tp122
Rp123
ag4
(g8
S'\xa0\x8a4}PX\xed?'
p124
tp125
Rp126
aF1.3285059928894043
aI1609
aS'kernel = 0 degree'
p127
ag4
(g8
S'\x96\xc2q\x8dO\xac\xed?'
p128
tp129
Rp130
ag4
(g8
S'\xb0e\x87\x1b\xdbB\xed?'
p131
tp132
Rp133
aF1.1969780921936035
aI1609
aS'kernel = 0 degree'
p134
ag4
(g8
S'\x96\xbb=\x9c\xda\x92\xed?'
p135
tp136
Rp137
ag4
(g8
S'\t\xda\\a5"\xed?'
p138
tp139
Rp140
aF0.926131010055542
aI1609
aS'kernel = 0 degree'
p141
aa(lp142
g4
(g8
S'c\x10\xd1\xee\x0b\r\xee?'
p143
tp144
Rp145
ag4
(g8
S'\xcd\xcd\xcd\xcd\xcd\xcd\xed?'
p146
tp147
Rp148
aF1.2886669635772705
aI1609
aS'kernel = 0 degree'
p149
ag4
(g8
S'\xca\xac\xb2\xb5:\x17\xee?'
p150
tp151
Rp152
ag4
(g8
S'\xfeF\xd9\xfdF\xd9\xed?'
p153
tp154
Rp155
aF1.4110360145568848
aI1609
aS'kernel = 0 degree'
p156
ag4
(g8
S'c\xfb4\x1b\xad\xc0\xed?'
p157
tp158
Rp159
ag4
(g8
S'\x7f\xe2\x1b\xcbyu\xed?'
p160
tp161
Rp162
aF1.2895331382751465
aI1609
aS'kernel = 0 degree'
p163
aa(lp164
g4
(g8
S'c\xfb4\x1b\xad\xc0\xed?'
p165
tp166
Rp167
ag4
(g8
S'\x12\xbb\xdaA\xccq\xed?'
p168
tp169
Rp170
aF1.7889838218688965
aI1609
aS'kernel = 0 degree'
p171
ag4
(g8
S'\x96\xc9\xa5~\xc4\xc5\xed?'
p172
tp173
Rp174
ag4
(g8
S'\x9740,\x93q\xed?'
p175
tp176
Rp177
aF1.3692190647125244
aI1609
aS'kernel = 0 degree'
p178
ag4
(g8
S'\xfcP\xebq\x94\x83\xed?'
p179
tp180
Rp181
ag4
(g8
S'\xce\x96\xc2Q>)\xed?'
p182
tp183
Rp184
aF0.6324169635772705
aI1609
aS'kernel = 0 degree'
p185
aa(lp186
g4
(g8
S'\xfcP\xebq\x94\x83\xed?'
p187
tp188
Rp189
ag4
(g8
S'\x05\x824U\xa7\xfe\xec?'
p190
tp191
Rp192
aF1.3559460639953613
aI1609
aS'kernel = 0 degree'
p193
ag4
(g8
S'\x96\xc2q\x8dO\xac\xed?'
p194
tp195
Rp196
ag4
(g8
S'\xd3e\xfb\xa7\x0c2\xed?'
p197
tp198
Rp199
aF0.660207986831665
aI1609
aS'kernel = 0 degree'
p200
ag4
(g8
S'\xfcP\xebq\x94\x83\xed?'
p201
tp202
Rp203
ag4
(g8
S'/Zq0\x1b\x02\xed?'
p204
tp205
Rp206
aF1.2843592166900635
aI1609
aS'kernel = 0 degree'
p207
aa(lp208
g4
(g8
S"\xfds\xef'\xdd\x02\xee?"
p209
tp210
Rp211
ag4
(g8
S'\xb9\xe8\xa2\x8b.\xba\xed?'
p212
tp213
Rp214
aF1.4373550415039062
aI1609
aS'kernel = 0 degree'
p215
ag4
(g8
S'\xc9\x9eJ\xd3P\xe4\xed?'
p216
tp217
Rp218
ag4
(g8
S'6N\xb8\xc1\xe3\x99\xed?'
p219
tp220
Rp221
aF1.3966519832611084
aI1609
aS'kernel = 0 degree'
p222
ag4
(g8
S'c\xfb4\x1b\xad\xc0\xed?'
p223
tp224
Rp225
ag4
(g8
S'\x80\x9e\xb4\\\x8de\xed?'
p226
tp227
Rp228
aF1.1394038200378418
aI1609
aS'kernel = 0 degree'
p229
aas.