(dp0
S'sat'
p1
(lp2
(lp3
cnumpy.core.multiarray
scalar
p4
(cnumpy
dtype
p5
(S'f8'
p6
I0
I1
tp7
Rp8
(I3
S'<'
p9
NNNI-1
I-1
I0
tp10
bS'\x95\xad\xd5\xb9\xf0_\xed?'
p11
tp12
Rp13
ag4
(g8
S"'\x94h\xe0\x16\x01\xed?"
p14
tp15
Rp16
aF1.2933390140533447
aI1609
aS'kernel = 0 degree'
p17
ag4
(g8
S'\xfcB\x83\x8f\xaaP\xed?'
p18
tp19
Rp20
ag4
(g8
S'\xc6\xbfD\\n\xf2\xec?'
p21
tp22
Rp23
aF0.913999080657959
aI1609
aS'kernel = 0 degree'
p24
ag4
(g8
S'.\xfcW\x1fc\t\xed?'
p25
tp26
Rp27
ag4
(g8
S'*\xcaY\xd7\x98\xa2\xec?'
p28
tp29
Rp30
aF1.1029210090637207
aI1609
aS'kernel = 0 degree'
p31
aa(lp32
g4
(g8
S'\x96\xc2q\x8dO\xac\xed?'
p33
tp34
Rp35
ag4
(g8
S'\xed\x8a\xc8\xca\xe6D\xed?'
p36
tp37
Rp38
aF1.0686891078948975
aI1609
aS'kernel = 0 degree'
p39
ag4
(g8
S'\xfcW\x1fc\t\x9d\xed?'
p40
tp41
Rp42
ag4
(g8
S'MYS\xd6\x945\xed?'
p43
tp44
Rp45
aF0.9927191734313965
aI1609
aS'kernel = 0 degree'
p46
ag4
(g8
S'\xc9\x89\xae\xff\xf1\x97\xed?'
p47
tp48
Rp49
ag4
(g8
S'\xbb\x19\xcd\xd4\xc1(\xed?'
p50
tp51
Rp52
aF0.8139748573303223
aI1609
aS'kernel = 0 degree'
p53
aa(lp54
g4
(g8
S'b\xed\xcc8\xc3\x8d\xed?'
p55
tp56
Rp57
ag4
(g8
S'\x91\x02\x1e\x84\xc2/\xed?'
p58
tp59
Rp60
aF1.0644710063934326
aI1609
aS'kernel = 0 degree'
p61
ag4
(g8
S'/\x18(\xe46o\xed?'
p62
tp63
Rp64
ag4
(g8
S'\xf7R\xc8\xcd\xeb\x10\xed?'
p65
tp66
Rp67
aF0.8980789184570312
aI1609
aS'kernel = 0 degree'
p68
ag4
(g8
S'\x96\xb4\t\xabey\xed?'
p69
tp70
Rp71
ag4
(g8
S')\xf6\xed^\x83\x1b\xed?'
p72
tp73
Rp74
aF0.8299880027770996
aI1609
aS'kernel = 0 degree'
p75
aa(lp76
g4
(g8
S'\xfcP\xebq\x94\x83\xed?'
p77
tp78
Rp79
ag4
(g8
S'\x8c\x05\x92Z\xa6\x1c\xed?'
p80
tp81
Rp82
aF1.1835579872131348
aI1609
aS'kernel = 0 degree'
p83
ag4
(g8
S'b\xe6\x98GNt\xed?'
p84
tp85
Rp86
ag4
(g8
S'g\xe2\xe3\xbe[\n\xed?'
p87
tp88
Rp89
aF1.0931181907653809
aI1609
aS'kernel = 0 degree'
p90
ag4
(g8
S"b\xd1\xfcs\xef'\xed?"
p91
tp92
Rp93
ag4
(g8
S' \\c\xc8\xbb\xaf\xec?'
p94
tp95
Rp96
aF0.7516388893127441
aI1609
aS'kernel = 0 degree'
p97
aa(lp98
g4
(g8
S'b\xe6\x98GNt\xed?'
p99
tp100
Rp101
ag4
(g8
S'g\xeb\xd0o\xb6\x0e\xed?'
p102
tp103
Rp104
aF0.9504449367523193
aI1609
aS'kernel = 0 degree'
p105
ag4
(g8
S'\x96\xb4\t\xabey\xed?'
p106
tp107
Rp108
ag4
(g8
S'\x8d,\xb7\xf9\xd1\x10\xed?'
p109
tp110
Rp111
aF1.1270859241485596
aI1609
aS'kernel = 0 degree'
p112
ag4
(g8
S'/\x11\xf4\xf2\xc1U\xed?'
p113
tp114
Rp115
ag4
(g8
S'\x16?\xb2q\xa9\xed\xec?'
p116
tp117
Rp118
aF0.8714468479156494
aI1609
aS'kernel = 0 degree'
p119
aa(lp120
g4
(g8
S'/\x1f\\\xd5\xab\x88\xed?'
p121
tp122
Rp123
ag4
(g8
S'H\xdc\x11w\xc4\x1d\xed?'
p124
tp125
Rp126
aF1.0322260856628418
aI1609
aS'kernel = 0 degree'
p127
ag4
(g8
S'c\xf4\x00*8\xa7\xed?'
p128
tp129
Rp130
ag4
(g8
S';\xed\xb4\xd3N;\xed?'
p131
tp132
Rp133
aF1.0544960498809814
aI1609
aS'kernel = 0 degree'
p134
ag4
(g8
S'/\x1f\\\xd5\xab\x88\xed?'
p135
tp136
Rp137
ag4
(g8
S'l\x10&{\x9d\x1b\xed?'
p138
tp139
Rp140
aF1.0374209880828857
aI1609
aS'kernel = 0 degree'
p141
aa(lp142
g4
(g8
S'\xc9{F\x1d\x08e\xed?'
p143
tp144
Rp145
ag4
(g8
S'{\xdbH\xef[\x06\xed?'
p146
tp147
Rp148
aF1.242314100265503
aI1609
aS'kernel = 0 degree'
p149
ag4
(g8
S'\xfcP\xebq\x94\x83\xed?'
p150
tp151
Rp152
ag4
(g8
S'\xef:\'\xab"&\xed?'
p153
tp154
Rp155
aF0.6658210754394531
aI1609
aS'kernel = 0 degree'
p156
ag4
(g8
S'\xfb-\xe7\xbbK\x04\xed?'
p157
tp158
Rp159
ag4
(g8
S'\x91\xe1^\x05\xb3\xa4\xec?'
p160
tp161
Rp162
aF1.2753279209136963
aI1609
aS'kernel = 0 degree'
p163
aa(lp164
g4
(g8
S'b\xed\xcc8\xc3\x8d\xed?'
p165
tp166
Rp167
ag4
(g8
S'\n\x18\x80\x92\xbc\x1c\xed?'
p168
tp169
Rp170
aF1.4628980159759521
aI1609
aS'kernel = 0 degree'
p171
ag4
(g8
S'/\x1f\\\xd5\xab\x88\xed?'
p172
tp173
Rp174
ag4
(g8
S'\x10.\xd1\t\xe1\x12\xed?'
p175
tp176
Rp177
aF1.525381088256836
aI1609
aS'kernel = 0 degree'
p178
ag4
(g8
S'/\x11\xf4\xf2\xc1U\xed?'
p179
tp180
Rp181
ag4
(g8
S'vg\xcdPw\xd6\xec?'
p182
tp183
Rp184
aF1.3125441074371338
aI1609
aS'kernel = 0 degree'
p185
aa(lp186
g4
(g8
S'\xc9{F\x1d\x08e\xed?'
p187
tp188
Rp189
ag4
(g8
S'J\xae\x03\xd4\x80\xfc\xec?'
p190
tp191
Rp192
aF1.569148063659668
aI1609
aS'kernel = 0 degree'
p193
ag4
(g8
S'b\xdfdV\xd9Z\xed?'
p194
tp195
Rp196
ag4
(g8
S'\xf6g\xf0\x9b\xe8\xe9\xec?'
p197
tp198
Rp199
aF1.3412139415740967
aI1609
aS'kernel = 0 degree'
p200
ag4
(g8
S'\x95\xa6\xa1\xc8{F\xed?'
p201
tp202
Rp203
ag4
(g8
S' \xe2\xdf\xc3e\xcd\xec?'
p204
tp205
Rp206
aF1.3182899951934814
aI1609
aS'kernel = 0 degree'
p207
aa(lp208
g4
(g8
S'0-\xc4\xb7\x95\xbb\xed?'
p209
tp210
Rp211
ag4
(g8
S'\xeb\xcate\xba2\xed?'
p212
tp213
Rp214
aF1.6629090309143066
aI1609
aS'kernel = 0 degree'
p215
ag4
(g8
S'c\xfb4\x1b\xad\xc0\xed?'
p216
tp217
Rp218
ag4
(g8
S'\xcd\xff(\x87\xa7:\xed?'
p219
tp220
Rp221
aF1.211993932723999
aI1609
aS'kernel = 0 degree'
p222
ag4
(g8
S'\xfcB\x83\x8f\xaaP\xed?'
p223
tp224
Rp225
ag4
(g8
S'\xfd\x8e\xd27\xd9\xb1\xec?'
p226
tp227
Rp228
aF0.869391918182373
aI1609
aS'kernel = 0 degree'
p229
aas.