(dp0
S'letter'
p1
(lp2
(lp3
cnumpy.core.multiarray
scalar
p4
(cnumpy
dtype
p5
(S'f8'
p6
I0
I1
tp7
Rp8
(I3
S'<'
p9
NNNI-1
I-1
I0
tp10
bS'C\xadi\xdeq\x8a\xee?'
p11
tp12
Rp13
ag4
(g8
S'\x84\xee\x19\x8aV\x91\xee?'
p14
tp15
Rp16
aF4.968824863433838
aI5000
aS'kernel = 2 degree'
p17
ag4
(g8
S'\xd74\xef8EG\xee?'
p18
tp19
Rp20
ag4
(g8
S'\x99MF\xd5\xceN\xee?'
p21
tp22
Rp23
aF4.283720016479492
aI5000
aS'kernel = 2 degree'
p24
ag4
(g8
S' \xd2o_\x07\xce\xed?'
p25
tp26
Rp27
ag4
(g8
S'\xb2S7\x96\xf0\xd8\xed?'
p28
tp29
Rp30
aF2.782032012939453
aI5000
aS'kernel = 2 degree'
p31
aa(lp32
g4
(g8
S'\x7f\xfb:p\xce\x88\xee?'
p33
tp34
Rp35
ag4
(g8
S'I\x16)\xc6\x94\x88\xee?'
p36
tp37
Rp38
aF4.894928932189941
aI5000
aS'kernel = 2 degree'
p39
ag4
(g8
S'\xd74\xef8EG\xee?'
p40
tp41
Rp42
ag4
(g8
S'n\xe4]H\xd4F\xee?'
p43
tp44
Rp45
aF4.591839790344238
aI5000
aS'kernel = 2 degree'
p46
ag4
(g8
S' \xd2o_\x07\xce\xed?'
p47
tp48
Rp49
ag4
(g8
S'n\xbb\x01\x1e\xd3\xd0\xed?'
p50
tp51
Rp52
aF3.5388031005859375
aI5000
aS'kernel = 2 degree'
p53
aa(lp54
g4
(g8
S'\xfee\xf7\xe4a\xa1\xee?'
p55
tp56
Rp57
ag4
(g8
S'\xa7\x02\x15\x7f\xc7\xa2\xee?'
p58
tp59
Rp60
aF5.374060153961182
aI5000
aS'kernel = 2 degree'
p61
ag4
(g8
S'4\x116<\xbdR\xee?'
p62
tp63
Rp64
ag4
(g8
S'\x84\xb5AlGT\xee?'
p65
tp66
Rp67
aF3.9066050052642822
aI5000
aS'kernel = 2 degree'
p68
ag4
(g8
S':\x92\xcb\x7fH\xbf\xed?'
p69
tp70
Rp71
ag4
(g8
S'c\x8d\xe2\xa0 \xbe\xed?'
p72
tp73
Rp74
aF4.552554130554199
aI5000
aS'kernel = 2 degree'
p75
aa(lp76
g4
(g8
S'd;\xdfO\x8d\x97\xee?'
p77
tp78
Rp79
ag4
(g8
S'p\xbcM\x1d\xd8\x99\xee?'
p80
tp81
Rp82
aF6.003844976425171
aI5000
aS'kernel = 2 degree'
p83
ag4
(g8
S'\xb3{\xf2\xb0Pk\xee?'
p84
tp85
Rp86
ag4
(g8
S'g\xb0\xf6\xe7\x08p\xee?'
p87
tp88
Rp89
aF5.3868019580841064
aI5000
aS'kernel = 2 degree'
p90
ag4
(g8
S'\xdb\x8a\xfde\xf7\xe4\xed?'
p91
tp92
Rp93
ag4
(g8
S'\xb2\xf7\xc2\xed\xa5\xe7\xed?'
p94
tp95
Rp96
aF3.6578361988067627
aI5000
aS'kernel = 2 degree'
p97
aa(lp98
g4
(g8
S'\xed\x9e<,\xd4\x9a\xee?'
p99
tp100
Rp101
ag4
(g8
S'\xd2\xe2\xf8&b\x98\xee?'
p102
tp103
Rp104
aF4.325323104858398
aI5000
aS'kernel = 2 degree'
p105
ag4
(g8
S'\xa2\xb47\xf8\xc2d\xee?'
p106
tp107
Rp108
ag4
(g8
S'Z\x8c+0\x86c\xee?'
p109
tp110
Rp111
aF4.280436038970947
aI5000
aS'kernel = 2 degree'
p112
ag4
(g8
S'\xee|?5^\xba\xed?'
p113
tp114
Rp115
ag4
(g8
S'\x8c}&\xf5\x15\xb5\xed?'
p116
tp117
Rp118
aF2.606811046600342
aI5000
aS'kernel = 2 degree'
p119
aa(lp120
g4
(g8
S'\x07_\x98L\x15\x8c\xee?'
p121
tp122
Rp123
ag4
(g8
S'O\xd3\xb2_C\x8b\xee?'
p124
tp125
Rp126
aF4.463987112045288
aI5000
aS'kernel = 2 degree'
p127
ag4
(g8
S'yX\xa85\xcd;\xee?'
p128
tp129
Rp130
ag4
(g8
S'\xae4@\xde\x9e9\xee?'
p131
tp132
Rp133
aF4.22509503364563
aI5000
aS'kernel = 2 degree'
p134
ag4
(g8
S'\xd3\xbc\xe3\x14\x1d\xc9\xed?'
p135
tp136
Rp137
ag4
(g8
S'\x9d9\xee\x8ax\xca\xed?'
p138
tp139
Rp140
aF2.899585008621216
aI5000
aS'kernel = 2 degree'
p141
aa(lp142
g4
(g8
S'[B>\xe8\xd9\xac\xee?'
p143
tp144
Rp145
ag4
(g8
S'\x01\xa5~\xa40\xad\xee?'
p146
tp147
Rp148
aF4.124292850494385
aI5000
aS'kernel = 2 degree'
p149
ag4
(g8
S'\xac\xad\xd8_vO\xee?'
p150
tp151
Rp152
ag4
(g8
S'\xc4\x9aNs[Q\xee?'
p153
tp154
Rp155
aF3.3290669918060303
aI5000
aS'kernel = 2 degree'
p156
ag4
(g8
S"\xbb'\x0f\x0b\xb5\xa6\xed?"
p157
tp158
Rp159
ag4
(g8
S'\x18f\x04\xd2N\xa7\xed?'
p160
tp161
Rp162
aF2.3212621212005615
aI5000
aS'kernel = 2 degree'
p163
aa(lp164
g4
(g8
S'\x8f\xc2\xf5(\\\x8f\xee?'
p165
tp166
Rp167
ag4
(g8
S'\x85\x0e2\x9c5\x8d\xee?'
p168
tp169
Rp170
aF3.071319818496704
aI5000
aS'kernel = 2 degree'
p171
ag4
(g8
S'\x12\x83\xc0\xca\xa1E\xee?'
p172
tp173
Rp174
ag4
(g8
S'\x1b"\xa3=6D\xee?'
p175
tp176
Rp177
aF2.5198819637298584
aI5000
aS'kernel = 2 degree'
p178
ag4
(g8
S'\x87\xa7W\xca2\xc4\xed?'
p179
tp180
Rp181
ag4
(g8
S'\x85\x9a\xdb\x9e\xe8\xc5\xed?'
p182
tp183
Rp184
aF1.8398361206054688
aI5000
aS'kernel = 2 degree'
p185
aa(lp186
g4
(g8
S'Tt$\x97\xff\x90\xee?'
p187
tp188
Rp189
ag4
(g8
S'St$\x97\xff\x90\xee?'
p190
tp191
Rp192
aF3.0395610332489014
aI5000
aS'kernel = 2 degree'
p193
ag4
(g8
S'\xc6m4\x80\xb7@\xee?'
p194
tp195
Rp196
ag4
(g8
S'\xed0\xc1\xc1r@\xee?'
p197
tp198
Rp199
aF2.535290002822876
aI5000
aS'kernel = 2 degree'
p200
ag4
(g8
S'\x9f<,\xd4\x9a\xe6\xed?'
p201
tp202
Rp203
ag4
(g8
S'\x10\r\xa0\xa8Q\xe8\xed?'
p204
tp205
Rp206
aF1.0696749687194824
aI5000
aS'kernel = 2 degree'
p207
aa(lp208
g4
(g8
S'\xe5\xd0"\xdb\xf9~\xee?'
p209
tp210
Rp211
ag4
(g8
S'\x8c\xecM\xfa\xf6\x84\xee?'
p212
tp213
Rp214
aF1.8122460842132568
aI5000
aS'kernel = 2 degree'
p215
ag4
(g8
S'\xfa\xed\xeb\xc09#\xee?'
p216
tp217
Rp218
ag4
(g8
S'\xad\xf9\xb5n\xaa,\xee?'
p219
tp220
Rp221
aF1.678534984588623
aI5000
aS'kernel = 2 degree'
p222
ag4
(g8
S':\x92\xcb\x7fH\xbf\xed?'
p223
tp224
Rp225
ag4
(g8
S'\xca\xfd0d\x97\xca\xed?'
p226
tp227
Rp228
aF1.0094687938690186
aI5000
aS'kernel = 2 degree'
p229
aas.