(dp0
S'letter'
p1
(lp2
(lp3
cnumpy.core.multiarray
scalar
p4
(cnumpy
dtype
p5
(S'f8'
p6
I0
I1
tp7
Rp8
(I3
S'<'
p9
NNNI-1
I-1
I0
tp10
bS'C\xadi\xdeq\x8a\xee?'
p11
tp12
Rp13
ag4
(g8
S'\xa74\xf4\x8f\xd7\x7f\xee?'
p14
tp15
Rp16
aF5.461122035980225
aI5000
aS'kernel = 2 degree'
p17
ag4
(g8
S'\x1c|a2U0\xee?'
p18
tp19
Rp20
ag4
(g8
S'a\xd4\xbf\x179%\xee?'
p21
tp22
Rp23
aF4.292955160140991
aI5000
aS'kernel = 2 degree'
p24
ag4
(g8
S'\xfeC\xfa\xed\xeb\xc0\xed?'
p25
tp26
Rp27
ag4
(g8
S'g\xb0\xcd\xfd\x95\xb4\xed?'
p28
tp29
Rp30
aF3.4325549602508545
aI5000
aS'kernel = 2 degree'
p31
aa(lp32
g4
(g8
S'\xb1Pk\x9aw\x9c\xee?'
p33
tp34
Rp35
ag4
(g8
S'\x0e\x9e\xf1\xe3U\xa0\xee?'
p36
tp37
Rp38
aF5.589500188827515
aI5000
aS'kernel = 2 degree'
p39
ag4
(g8
S'\x10X9\xb4\xc8v\xee?'
p40
tp41
Rp42
ag4
(g8
S'@\xc9\xcb^\xadz\xee?'
p43
tp44
Rp45
aF4.730756044387817
aI5000
aS'kernel = 2 degree'
p46
ag4
(g8
S'\xee|?5^\xba\xed?'
p47
tp48
Rp49
ag4
(g8
S'\xea\xca[\xd5\xbc\xc2\xed?'
p50
tp51
Rp52
aF3.036222219467163
aI5000
aS'kernel = 2 degree'
p53
aa(lp54
g4
(g8
S'l\t\xf9\xa0g\xb3\xee?'
p55
tp56
Rp57
ag4
(g8
S'\xdaD\x15\xe9v\xb1\xee?'
p58
tp59
Rp60
aF5.249878883361816
aI5000
aS'kernel = 2 degree'
p61
ag4
(g8
S'+\x18\x95\xd4\th\xee?'
p62
tp63
Rp64
ag4
(g8
S'\x88\xea"\x8e\xa8e\xee?'
p65
tp66
Rp67
aF4.049391984939575
aI5000
aS'kernel = 2 degree'
p68
ag4
(g8
S'\xfeC\xfa\xed\xeb\xc0\xed?'
p69
tp70
Rp71
ag4
(g8
S'\xf4\xe7T\x88\x1d\xc0\xed?'
p72
tp73
Rp74
aF3.7071681022644043
aI5000
aS'kernel = 2 degree'
p75
aa(lp76
g4
(g8
S'\x18&S\x05\xa3\x92\xee?'
p77
tp78
Rp79
ag4
(g8
S'1\xfc]]\x81\x90\xee?'
p80
tp81
Rp82
aF6.492301940917969
aI5000
aS'kernel = 2 degree'
p83
ag4
(g8
S'\x02\xbc\x05\x12\x14?\xee?'
p84
tp85
Rp86
ag4
(g8
S'\xd1\x1e\x1b"\xa3=\xee?'
p87
tp88
Rp89
aF5.182192087173462
aI5000
aS'kernel = 2 degree'
p90
ag4
(g8
S'\x0f\x0b\xb5\xa6y\xc7\xed?'
p91
tp92
Rp93
ag4
(g8
S'lm\xd3\xc0\xa6\xcb\xed?'
p94
tp95
Rp96
aF4.231182098388672
aI5000
aS'kernel = 2 degree'
p97
aa(lp98
g4
(g8
S')\xed\r\xbe0\x99\xee?'
p99
tp100
Rp101
ag4
(g8
S'\x02\xf3\xe9-0\x9f\xee?'
p102
tp103
Rp104
aF3.7338430881500244
aI5000
aS'kernel = 2 degree'
p105
ag4
(g8
S';\xdfO\x8d\x97n\xee?'
p106
tp107
Rp108
ag4
(g8
S'\x96k\xecC^t\xee?'
p109
tp110
Rp111
aF4.76533317565918
aI5000
aS'kernel = 2 degree'
p112
ag4
(g8
S'\x8euq\x1b\r\xe0\xed?'
p113
tp114
Rp115
ag4
(g8
S'm\xc75\xe6\x01\xed\xed?'
p116
tp117
Rp118
aF3.4848709106445312
aI5000
aS'kernel = 2 degree'
p119
aa(lp120
g4
(g8
S')\xed\r\xbe0\x99\xee?'
p121
tp122
Rp123
ag4
(g8
S'\xd9gmA\x88\x97\xee?'
p124
tp125
Rp126
aF4.308114051818848
aI5000
aS'kernel = 2 degree'
p127
ag4
(g8
S'\xa2\xb47\xf8\xc2d\xee?'
p128
tp129
Rp130
ag4
(g8
S'\x9a#\xf5\xc3\x83d\xee?'
p131
tp132
Rp133
aF3.1607770919799805
aI5000
aS'kernel = 2 degree'
p134
ag4
(g8
S')\xcb\x10\xc7\xba\xb8\xed?'
p135
tp136
Rp137
ag4
(g8
S'\xdfq\x98\xe5\x7f\xb4\xed?'
p138
tp139
Rp140
aF2.8938939571380615
aI5000
aS'kernel = 2 degree'
p141
aa(lp142
g4
(g8
S'\xbaI\x0c\x02+\x87\xee?'
p143
tp144
Rp145
ag4
(g8
S'\xd9s\xe0\x92\\\x83\xee?'
p146
tp147
Rp148
aF4.1025190353393555
aI5000
aS'kernel = 2 degree'
p149
ag4
(g8
S'#J{\x83/L\xee?'
p150
tp151
Rp152
ag4
(g8
S'(m*6\xbbI\xee?'
p153
tp154
Rp155
aF2.9612419605255127
aI5000
aS'kernel = 2 degree'
p156
ag4
(g8
S'\xd5\xe7j+\xf6\x97\xed?'
p157
tp158
Rp159
ag4
(g8
S'\x1d<\x08\xd0\xbd\x94\xed?'
p160
tp161
Rp162
aF2.5975420475006104
aI5000
aS'kernel = 2 degree'
p163
aa(lp164
g4
(g8
S'L\xa6\nF%u\xee?'
p165
tp166
Rp167
ag4
(g8
S']"\x9d\xa6\xaer\xee?'
p168
tp169
Rp170
aF3.0776400566101074
aI5000
aS'kernel = 2 degree'
p171
ag4
(g8
S'\x8a\x1fc\xeeZB\xee?'
p172
tp173
Rp174
ag4
(g8
S'?\xfa\x97\x98\x1aA\xee?'
p175
tp176
Rp177
aF2.2973930835723877
aI5000
aS'kernel = 2 degree'
p178
ag4
(g8
S'\x87\xa7W\xca2\xc4\xed?'
p179
tp180
Rp181
ag4
(g8
S'4\xdf\x17\xa4n\xbc\xed?'
p182
tp183
Rp184
aF1.8794469833374023
aI5000
aS'kernel = 2 degree'
p185
aa(lp186
g4
(g8
S'\xaa\x82QI\x9d\x80\xee?'
p187
tp188
Rp189
ag4
(g8
S'\xa1\xdf\x80\xae:\x7f\xee?'
p190
tp191
Rp192
aF3.064000129699707
aI5000
aS'kernel = 2 degree'
p193
ag4
(g8
S'\xbct\x93\x18\x04V\xee?'
p194
tp195
Rp196
ag4
(g8
S'\x12\xb4\x1b\x8e)U\xee?'
p197
tp198
Rp199
aF1.5246241092681885
aI5000
aS'kernel = 2 degree'
p200
ag4
(g8
S'v\xe0\x9c\x11\xa5\xbd\xed?'
p201
tp202
Rp203
ag4
(g8
S'\x05\xa6zs\x87\xbd\xed?'
p204
tp205
Rp206
aF1.825251817703247
aI5000
aS'kernel = 2 degree'
p207
aa(lp208
g4
(g8
S'l\t\xf9\xa0g\xb3\xee?'
p209
tp210
Rp211
ag4
(g8
S'{\xf4\x9f\x83\x00\xb2\xee?'
p212
tp213
Rp214
aF1.8527710437774658
aI5000
aS'kernel = 2 degree'
p215
ag4
(g8
S';\xdfO\x8d\x97n\xee?'
p216
tp217
Rp218
ag4
(g8
S"\x91\xe5*7'o\xee?"
p219
tp220
Rp221
aF1.509016990661621
aI5000
aS'kernel = 2 degree'
p222
ag4
(g8
S'}\xae\xb6b\x7f\xd9\xed?'
p223
tp224
Rp225
ag4
(g8
S"{'@hI\xd7\xed?"
p226
tp227
Rp228
aF1.034512996673584
aI5000
aS'kernel = 2 degree'
p229
aas.