(dp0
S'sat'
p1
(lp2
(lp3
cnumpy.core.multiarray
scalar
p4
(cnumpy
dtype
p5
(S'f8'
p6
I0
I1
tp7
Rp8
(I3
S'<'
p9
NNNI-1
I-1
I0
tp10
bS'\xfcW\x1fc\t\x9d\xed?'
p11
tp12
Rp13
ag4
(g8
S'c\xb3\xa0\xdas2\xed?'
p14
tp15
Rp16
aF1.157768964767456
aI1609
aS'kernel = 0 degree'
p17
ag4
(g8
S'\xc9\x89\xae\xff\xf1\x97\xed?'
p18
tp19
Rp20
ag4
(g8
S'\xf75\xcd/\x00-\xed?'
p21
tp22
Rp23
aF1.1887710094451904
aI1609
aS'kernel = 0 degree'
p24
ag4
(g8
S'\xfcP\xebq\x94\x83\xed?'
p25
tp26
Rp27
ag4
(g8
S'Z\x163P\xb7\x10\xed?'
p28
tp29
Rp30
aF0.8783590793609619
aI1609
aS'kernel = 0 degree'
p31
aa(lp32
g4
(g8
S'\xc9\x82z\x0e}~\xed?'
p33
tp34
Rp35
ag4
(g8
S'\xb9\xa7\x11\x96{\x1a\xed?'
p36
tp37
Rp38
aF1.1334681510925293
aI1609
aS'kernel = 0 degree'
p39
ag4
(g8
S'\xc9\x89\xae\xff\xf1\x97\xed?'
p40
tp41
Rp42
ag4
(g8
S'B\x95\xfbge7\xed?'
p43
tp44
Rp45
aF1.1708321571350098
aI1609
aS'kernel = 0 degree'
p46
ag4
(g8
S'\x96\xb4\t\xabey\xed?'
p47
tp48
Rp49
ag4
(g8
S'\xbf(\xe9$f\x19\xed?'
p50
tp51
Rp52
aF0.9186458587646484
aI1609
aS'kernel = 0 degree'
p53
aa(lp54
g4
(g8
S'\x96\xb4\t\xabey\xed?'
p55
tp56
Rp57
ag4
(g8
S'\xb2\xadD\x86\x9d\x1d\xed?'
p58
tp59
Rp60
aF1.238217830657959
aI1609
aS'kernel = 0 degree'
p61
ag4
(g8
S'\xfcI\xb7\x80\x1fj\xed?'
p62
tp63
Rp64
ag4
(g8
S'/\x1f\xf5n\xc7\r\xed?'
p65
tp66
Rp67
aF1.1560420989990234
aI1609
aS'kernel = 0 degree'
p68
ag4
(g8
S'b\xdfdV\xd9Z\xed?'
p69
tp70
Rp71
ag4
(g8
S'\xf2\xcf9\xc0\x18\xff\xec?'
p72
tp73
Rp74
aF1.1248838901519775
aI1609
aS'kernel = 0 degree'
p75
aa(lp76
g4
(g8
S'\xc8t\x12,\x93K\xed?'
p77
tp78
Rp79
ag4
(g8
S'0<\xcd\x05\xf8\xea\xec?'
p80
tp81
Rp82
aF1.1219048500061035
aI1609
aS'kernel = 0 degree'
p83
ag4
(g8
S'\xc8t\x12,\x93K\xed?'
p84
tp85
Rp86
ag4
(g8
S'0<\xcd\x05\xf8\xea\xec?'
p87
tp88
Rp89
aF1.1809141635894775
aI1609
aS'kernel = 0 degree'
p90
ag4
(g8
S'/\x18(\xe46o\xed?'
p91
tp92
Rp93
ag4
(g8
S'f\xb3\x88\xa2r\x1b\xed?'
p94
tp95
Rp96
aF0.866461992263794
aI1609
aS'kernel = 0 degree'
p97
aa(lp98
g4
(g8
S'c\xfb4\x1b\xad\xc0\xed?'
p99
tp100
Rp101
ag4
(g8
S'\x12\xbb\xdaA\xccq\xed?'
p102
tp103
Rp104
aF1.1061530113220215
aI1609
aS'kernel = 0 degree'
p105
ag4
(g8
S'/&\x90\xc6 \xa2\xed?'
p106
tp107
Rp108
ag4
(g8
S'\xec\x96s\x1a\x16N\xed?'
p109
tp110
Rp111
aF0.9684939384460449
aI1609
aS'kernel = 0 degree'
p112
ag4
(g8
S'\xfcI\xb7\x80\x1fj\xed?'
p113
tp114
Rp115
ag4
(g8
S'x\x18\x01Af\x08\xed?'
p116
tp117
Rp118
aF0.9379069805145264
aI1609
aS'kernel = 0 degree'
p119
aa(lp120
g4
(g8
S'b\xed\xcc8\xc3\x8d\xed?'
p121
tp122
Rp123
ag4
(g8
S'\n\x18\x80\x92\xbc\x1c\xed?'
p124
tp125
Rp126
aF1.3200759887695312
aI1609
aS'kernel = 0 degree'
p127
ag4
(g8
S'\xfcI\xb7\x80\x1fj\xed?'
p128
tp129
Rp130
ag4
(g8
S'V\xc2\xd8,\xa8\xf6\xec?'
p131
tp132
Rp133
aF1.1155149936676025
aI1609
aS'kernel = 0 degree'
p134
ag4
(g8
S'\x95\xad\xd5\xb9\xf0_\xed?'
p135
tp136
Rp137
ag4
(g8
S'\xdb*\xde\xc9\x0f\xe6\xec?'
p138
tp139
Rp140
aF1.0368449687957764
aI1609
aS'kernel = 0 degree'
p141
aa(lp142
g4
(g8
S'\xc9\x82z\x0e}~\xed?'
p143
tp144
Rp145
ag4
(g8
S'\x1d\x15\xf8\xe2\xea\x07\xed?'
p146
tp147
Rp148
aF1.2019250392913818
aI1609
aS'kernel = 0 degree'
p149
ag4
(g8
S'\xfcW\x1fc\t\x9d\xed?'
p150
tp151
Rp152
ag4
(g8
S'\xcen\xe1Wc"\xed?'
p153
tp154
Rp155
aF1.3808770179748535
aI1609
aS'kernel = 0 degree'
p156
ag4
(g8
S'\xfcI\xb7\x80\x1fj\xed?'
p157
tp158
Rp159
ag4
(g8
S'\xddZY\xb5\xc9\xef\xec?'
p160
tp161
Rp162
aF1.2588279247283936
aI1609
aS'kernel = 0 degree'
p163
aa(lp164
g4
(g8
S'/&\x90\xc6 \xa2\xed?'
p165
tp166
Rp167
ag4
(g8
S'4\xa9\xf2P-H\xed?'
p168
tp169
Rp170
aF1.3959782123565674
aI1609
aS'kernel = 0 degree'
p171
ag4
(g8
S'b\xed\xcc8\xc3\x8d\xed?'
p172
tp173
Rp174
ag4
(g8
S'-\x1d\xdb\xd2\xb1-\xed?'
p175
tp176
Rp177
aF1.2490110397338867
aI1609
aS'kernel = 0 degree'
p178
ag4
(g8
S'\x96\xbb=\x9c\xda\x92\xed?'
p179
tp180
Rp181
ag4
(g8
S'\xa8\xbbt4\xea.\xed?'
p182
tp183
Rp184
aF1.0561230182647705
aI1609
aS'kernel = 0 degree'
p185
aa(lp186
g4
(g8
S'\xc9\x89\xae\xff\xf1\x97\xed?'
p187
tp188
Rp189
ag4
(g8
S'\xfd$\x19.\x7f>\xed?'
p190
tp191
Rp192
aF0.883342981338501
aI1609
aS'kernel = 0 degree'
p193
ag4
(g8
S'\x96\xbb=\x9c\xda\x92\xed?'
p194
tp195
Rp196
ag4
(g8
S'\x82\xd3\xe2\xd7(8\xed?'
p197
tp198
Rp199
aF1.2866151332855225
aI1609
aS'kernel = 0 degree'
p200
ag4
(g8
S'\xc9\x90\xe2\xf0f\xb1\xed?'
p201
tp202
Rp203
ag4
(g8
S'\xe5\x11{\xdb3Z\xed?'
p204
tp205
Rp206
aF1.29075288772583
aI1609
aS'kernel = 0 degree'
p207
aa(lp208
g4
(g8
S'\x96\xc2q\x8dO\xac\xed?'
p209
tp210
Rp211
ag4
(g8
S'\xb8C\x18\xcf\xc3?\xed?'
p212
tp213
Rp214
aF0.9826459884643555
aI1609
aS'kernel = 0 degree'
p215
ag4
(g8
S'\x96\xc2q\x8dO\xac\xed?'
p216
tp217
Rp218
ag4
(g8
S'\xb0e\x87\x1b\xdbB\xed?'
p219
tp220
Rp221
aF1.3029909133911133
aI1609
aS'kernel = 0 degree'
p222
ag4
(g8
S'c\xf4\x00*8\xa7\xed?'
p223
tp224
Rp225
ag4
(g8
S'm`-\xe8\x126\xed?'
p226
tp227
Rp228
aF1.2532620429992676
aI1609
aS'kernel = 0 degree'
p229
aas.