(dp0
S'letter'
p1
(lp2
(lp3
cnumpy.core.multiarray
scalar
p4
(cnumpy
dtype
p5
(S'f8'
p6
I0
I1
tp7
Rp8
(I3
S'<'
p9
NNNI-1
I-1
I0
tp10
bS'u\x02\x9a\x08\x1b\x9e\xee?'
p11
tp12
Rp13
ag4
(g8
S'\xba+P\xe8)\xa2\xee?'
p14
tp15
Rp16
aF4.888769865036011
aI5000
aS'kernel = 2 degree'
p17
ag4
(g8
S'+\x18\x95\xd4\th\xee?'
p18
tp19
Rp20
ag4
(g8
S'8\xb0\x9c\xaf\xe8m\xee?'
p21
tp22
Rp23
aF4.473336935043335
aI5000
aS'kernel = 2 degree'
p24
ag4
(g8
S'\xecQ\xb8\x1e\x85\xeb\xed?'
p25
tp26
Rp27
ag4
(g8
S'\xccZ(\xa0c\xf3\xed?'
p28
tp29
Rp30
aF3.494399070739746
aI5000
aS'kernel = 2 degree'
p31
aa(lp32
g4
(g8
S'9\xb4\xc8v\xbe\x9f\xee?'
p33
tp34
Rp35
ag4
(g8
S'\xe2\xf1\x00&\xdc\x96\xee?'
p36
tp37
Rp38
aF6.026663780212402
aI5000
aS'kernel = 2 degree'
p39
ag4
(g8
S'\xbct\x93\x18\x04V\xee?'
p40
tp41
Rp42
ag4
(g8
S'\xfc\xc4\xf2\xd4.K\xee?'
p43
tp44
Rp45
aF4.4123008251190186
aI5000
aS'kernel = 2 degree'
p46
ag4
(g8
S'\xc3\xf5(\\\x8f\xc2\xed?'
p47
tp48
Rp49
ag4
(g8
S'xI\xa9\x96\x88\xbc\xed?'
p50
tp51
Rp52
aF3.2877562046051025
aI5000
aS'kernel = 2 degree'
p53
aa(lp54
g4
(g8
S'u\x02\x9a\x08\x1b\x9e\xee?'
p55
tp56
Rp57
ag4
(g8
S'L\x96\xc6/\xae\x9d\xee?'
p58
tp59
Rp60
aF5.20871114730835
aI5000
aS'kernel = 2 degree'
p61
ag4
(g8
S'w-!\x1f\xf4l\xee?'
p62
tp63
Rp64
ag4
(g8
S'Qa\xf57\x14n\xee?'
p65
tp66
Rp67
aF4.17336106300354
aI5000
aS'kernel = 2 degree'
p68
ag4
(g8
S'\xb0\x03\xe7\x8c(\xed\xed?'
p69
tp70
Rp71
ag4
(g8
S'\xe0\x9d\xe6\xd5\x17\xe9\xed?'
p72
tp73
Rp74
aF3.0322458744049072
aI5000
aS'kernel = 2 degree'
p75
aa(lp76
g4
(g8
S')\xed\r\xbe0\x99\xee?'
p77
tp78
Rp79
ag4
(g8
S'7\x1f\x94x\x8c\x9a\xee?'
p80
tp81
Rp82
aF5.13778018951416
aI5000
aS'kernel = 2 degree'
p83
ag4
(g8
S'\xcd;N\xd1\x91\\\xee?'
p84
tp85
Rp86
ag4
(g8
S'\x1f)d8\x12_\xee?'
p87
tp88
Rp89
aF5.477306127548218
aI5000
aS'kernel = 2 degree'
p90
ag4
(g8
S'\x1e\xa7\xe8H.\xff\xed?'
p91
tp92
Rp93
ag4
(g8
S'*\x1e\x0e\nZ\x03\xee?'
p94
tp95
Rp96
aF4.055441856384277
aI5000
aS'kernel = 2 degree'
p97
aa(lp98
g4
(g8
S'\x18&S\x05\xa3\x92\xee?'
p99
tp100
Rp101
ag4
(g8
S'1\xfc]]\x81\x90\xee?'
p102
tp103
Rp104
aF3.606106996536255
aI5000
aS'kernel = 2 degree'
p105
ag4
(g8
S'\xc6m4\x80\xb7@\xee?'
p106
tp107
Rp108
ag4
(g8
S'L #\xf4^?\xee?'
p109
tp110
Rp111
aF4.853078126907349
aI5000
aS'kernel = 2 degree'
p112
ag4
(g8
S'\xc3\xf5(\\\x8f\xc2\xed?'
p113
tp114
Rp115
ag4
(g8
S'\xc3\xf5(\\\x8f\xc2\xed?'
p116
tp117
Rp118
aF2.759141206741333
aI5000
aS'kernel = 2 degree'
p119
aa(lp120
g4
(g8
S'[B>\xe8\xd9\xac\xee?'
p121
tp122
Rp123
ag4
(g8
S'D\x0f\x1e\xff\x1a\xa8\xee?'
p124
tp125
Rp126
aF5.0522661209106445
aI5000
aS'kernel = 2 degree'
p127
ag4
(g8
S'\x10X9\xb4\xc8v\xee?'
p128
tp129
Rp130
ag4
(g8
S'S\x0e\xcb\xce\\q\xee?'
p131
tp132
Rp133
aF4.849073886871338
aI5000
aS'kernel = 2 degree'
p134
ag4
(g8
S'\x8euq\x1b\r\xe0\xed?'
p135
tp136
Rp137
ag4
(g8
S'viCW\xc7\xda\xed?'
p138
tp139
Rp140
aF2.676584005355835
aI5000
aS'kernel = 2 degree'
p141
aa(lp142
g4
(g8
S'J{\x83/L\xa6\xee?'
p143
tp144
Rp145
ag4
(g8
S'\x0c\xea\xd5p\xbf\xa0\xee?'
p146
tp147
Rp148
aF4.6877360343933105
aI5000
aS'kernel = 2 degree'
p149
ag4
(g8
S'\x1aQ\xda\x1b|a\xee?'
p150
tp151
Rp152
ag4
(g8
S'\xf6\xf3\xc7\xd7\xda[\xee?'
p153
tp154
Rp155
aF3.29967999458313
aI5000
aS'kernel = 2 degree'
p156
ag4
(g8
S'\xa85\xcd;N\xd1\xed?'
p157
tp158
Rp159
ag4
(g8
S'$F\x1b\xe9\xf2\xc6\xed?'
p160
tp161
Rp162
aF2.5770578384399414
aI5000
aS'kernel = 2 degree'
p163
aa(lp164
g4
(g8
S'\xed\x9e<,\xd4\x9a\xee?'
p165
tp166
Rp167
ag4
(g8
S'\xb6N2\x9c9\x9e\xee?'
p168
tp169
Rp170
aF1.8564507961273193
aI5000
aS'kernel = 2 degree'
p171
ag4
(g8
S'w-!\x1f\xf4l\xee?'
p172
tp173
Rp174
ag4
(g8
S'\xcd1\x94H\x93q\xee?'
p175
tp176
Rp177
aF2.2934720516204834
aI5000
aS'kernel = 2 degree'
p178
ag4
(g8
S'Z\xf5\xb9\xda\x8a\xfd\xed?'
p179
tp180
Rp181
ag4
(g8
S'\xeeOz\xcf=\x06\xee?'
p182
tp183
Rp184
aF1.848073959350586
aI5000
aS'kernel = 2 degree'
p185
aa(lp186
g4
(g8
S'L\xa6\nF%u\xee?'
p187
tp188
Rp189
ag4
(g8
S'|\x8bW\xd5Dp\xee?'
p190
tp191
Rp192
aF3.076815128326416
aI5000
aS'kernel = 2 degree'
p193
ag4
(g8
S'\xe0-\x90\xa0\xf81\xee?'
p194
tp195
Rp196
ag4
(g8
S'\xf9`\xe8{\x8c,\xee?'
p197
tp198
Rp199
aF2.499166965484619
aI5000
aS'kernel = 2 degree'
p200
ag4
(g8
S'\x89\xd2\xde\xe0\x0b\x93\xed?'
p201
tp202
Rp203
ag4
(g8
S'\x05f\x0b\xb4\xa1\x8b\xed?'
p204
tp205
Rp206
aF1.8463659286499023
aI5000
aS'kernel = 2 degree'
p207
aa(lp208
g4
(g8
S'L\xa6\nF%u\xee?'
p209
tp210
Rp211
ag4
(g8
S']"\x9d\xa6\xaer\xee?'
p212
tp213
Rp214
aF1.8276081085205078
aI5000
aS'kernel = 2 degree'
p215
ag4
(g8
S'X\xca2\xc4\xb1.\xee?'
p216
tp217
Rp218
ag4
(g8
S'7t!\x1dC,\xee?'
p219
tp220
Rp221
aF1.4781160354614258
aI5000
aS'kernel = 2 degree'
p222
ag4
(g8
S'v\xe0\x9c\x11\xa5\xbd\xed?'
p223
tp224
Rp225
ag4
(g8
S'\xd1\xa2\xf7\x9e^\xbc\xed?'
p226
tp227
Rp228
aF1.0424871444702148
aI5000
aS'kernel = 2 degree'
p229
aas.