(dp0
S'heart'
p1
(lp2
(lp3
cnumpy.core.multiarray
scalar
p4
(cnumpy
dtype
p5
(S'f8'
p6
I0
I1
tp7
Rp8
(I3
S'<'
p9
NNNI-1
I-1
I0
tp10
bS'F\x17]t\xd1E\xe7?'
p11
tp12
Rp13
ag4
(g8
S'm\xdb\xb6m\xdb\xb6\xe5?'
p14
tp15
Rp16
aF0.00012087821960449219
aI66
aNag4
(g8
S'N6\xd9d\x93M\xe6?'
p17
tp18
Rp19
ag4
(g8
S'\xc3rO#,\xf7\xe4?'
p20
tp21
Rp22
aF0.00011396408081054688
aI66
aNag4
(g8
S'\xd9d\x93M6\xd9\xe4?'
p23
tp24
Rp25
ag4
(g8
S'\x9f\x12\xe4)A\x9e\xe2?'
p26
tp27
Rp28
aF0.00011301040649414062
aI66
aNaa(lp29
g4
(g8
S'F\x17]t\xd1E\xe7?'
p30
tp31
Rp32
ag4
(g8
S'E\x17]t\xd1E\xe7?'
p33
tp34
Rp35
aF0.00010704994201660156
aI66
aNag4
(g8
S'UUUUUU\xe5?'
p36
tp37
Rp38
ag4
(g8
S'\xa5\x94RJ)\xa5\xe4?'
p39
tp40
Rp41
aF0.00011777877807617188
aI66
aNag4
(g8
S'6\xd9d\x93M6\xe9?'
p42
tp43
Rp44
ag4
(g8
S'5\xd9d\x93M6\xe9?'
p45
tp46
Rp47
aF0.00011682510375976562
aI66
aNaa(lp48
g4
(g8
S'\xba\xe8\xa2\x8b.\xba\xe8?'
p49
tp50
Rp51
ag4
(g8
S'Cy\r\xe55\x94\xe7?'
p52
tp53
Rp54
aF0.0001380443572998047
aI66
aNag4
(g8
S'N6\xd9d\x93M\xe6?'
p55
tp56
Rp57
ag4
(g8
S'_B{\t\xed%\xe4?'
p58
tp59
Rp60
aF0.00010919570922851562
aI66
aNag4
(g8
S'\xe9\xa2\x8b.\xba\xe8\xe2?'
p61
tp62
Rp63
ag4
(g8
S'\x93$I\x92$I\xe2?'
p64
tp65
Rp66
aF0.020162105560302734
aI66
aNaa(lp67
g4
(g8
S'\xca&\x9bl\xb2\xc9\xe6?'
p68
tp69
Rp70
ag4
(g8
S'r\xed\xc0\\;0\xe7?'
p71
tp72
Rp73
aF0.00011301040649414062
aI66
aNag4
(g8
S'\xf0\xc1\x07\x1f|\xf0\xe1?'
p74
tp75
Rp76
ag4
(g8
S')\xf13J\xfc\x8c\xe2?'
p77
tp78
Rp79
aF0.0001609325408935547
aI66
aNag4
(g8
S'\xd9d\x93M6\xd9\xe4?'
p80
tp81
Rp82
ag4
(g8
S'&C\xb0\x8e6\xef\xe3?'
p83
tp84
Rp85
aF0.00011110305786132812
aI66
aNaa(lp86
g4
(g8
S'>\xf8\xe0\x83\x0f>\xe8?'
p87
tp88
Rp89
ag4
(g8
S'wwwwww\xe7?'
p90
tp91
Rp92
aF0.00011801719665527344
aI66
aNag4
(g8
S'\xb2\xc9&\x9bl\xb2\xe9?'
p93
tp94
Rp95
ag4
(g8
S'\xf2V\xf69\xa4&\xe8?'
p96
tp97
Rp98
aF0.00011801719665527344
aI66
aNag4
(g8
S'\xd1E\x17]t\xd1\xe5?'
p99
tp100
Rp101
ag4
(g8
S'\xca\x10\xac\xa3\xcd\xfb\xe4?'
p102
tp103
Rp104
aF0.00016307830810546875
aI66
aNaa(lp105
g4
(g8
S'\xca&\x9bl\xb2\xc9\xe6?'
p106
tp107
Rp108
ag4
(g8
S'\xd0pR\xf7\xe5\xb1\xe5?'
p109
tp110
Rp111
aF0.00011181831359863281
aI66
aNag4
(g8
S'\xf0\xc1\x07\x1f|\xf0\xe1?'
p112
tp113
Rp114
ag4
(g8
S'Q\x14EQ\x14E\xe1?'
p115
tp116
Rp117
aF0.0001571178436279297
aI66
aNag4
(g8
S']t\xd1E\x17]\xe4?'
p118
tp119
Rp120
ag4
(g8
S']t\xd1E\x17]\xe4?'
p121
tp122
Rp123
aF0.00010895729064941406
aI66
aNaa(lp124
g4
(g8
S'\xd1E\x17]t\xd1\xe5?'
p125
tp126
Rp127
ag4
(g8
S'UUUUUU\xe5?'
p128
tp129
Rp130
aF0.00011491775512695312
aI66
aNag4
(g8
S'\xd9d\x93M6\xd9\xe4?'
p131
tp132
Rp133
ag4
(g8
S'\xef\xcbc+\x82\x86\xe3?'
p134
tp135
Rp136
aF0.00011491775512695312
aI66
aNag4
(g8
S'\xba\xe8\xa2\x8b.\xba\xe8?'
p137
tp138
Rp139
ag4
(g8
S'\xb4y\x9f\xe2\x92!\xe8?'
p140
tp141
Rp142
aF0.00010395050048828125
aI66
aNaa(lp143
g4
(g8
S'N6\xd9d\x93M\xe6?'
p144
tp145
Rp146
ag4
(g8
S'\xab\xaa\xaa\xaa\xaa\xaa\xe2?'
p147
tp148
Rp149
aF0.00011801719665527344
aI66
aNag4
(g8
S'\xd9d\x93M6\xd9\xe4?'
p150
tp151
Rp152
ag4
(g8
S'5\xc1x+\xfb\x1c\xe2?'
p153
tp154
Rp155
aF0.00010800361633300781
aI66
aNag4
(g8
S'F\x17]t\xd1E\xe7?'
p156
tp157
Rp158
ag4
(g8
S'\xc5N\xec\xc4N\xec\xe4?'
p159
tp160
Rp161
aF0.00011610984802246094
aI66
aNaa(lp162
g4
(g8
S'F\x17]t\xd1E\xe7?'
p163
tp164
Rp165
ag4
(g8
S'm\xdb\xb6m\xdb\xb6\xe5?'
p166
tp167
Rp168
aF0.0001308917999267578
aI66
aNag4
(g8
S'UUUUUU\xe5?'
p169
tp170
Rp171
ag4
(g8
S'DDDDDD\xe4?'
p172
tp173
Rp174
aF0.00011491775512695312
aI66
aNag4
(g8
S'N6\xd9d\x93M\xe6?'
p175
tp176
Rp177
ag4
(g8
S'333333\xe3?'
p178
tp179
Rp180
aF0.00011491775512695312
aI66
aNaa(lp181
g4
(g8
S'\xca&\x9bl\xb2\xc9\xe6?'
p182
tp183
Rp184
ag4
(g8
S'\x96eY\x96eY\xe6?'
p185
tp186
Rp187
aF0.00011205673217773438
aI66
aNag4
(g8
S'\xca&\x9bl\xb2\xc9\xe6?'
p188
tp189
Rp190
ag4
(g8
S's\xed\xc0\\;0\xe7?'
p191
tp192
Rp193
aF0.00012087821960449219
aI66
aNag4
(g8
S'UUUUUU\xe5?'
p194
tp195
Rp196
ag4
(g8
S'\xa5\xa5\xa5\xa5\xa5\xa5\xe5?'
p197
tp198
Rp199
aF0.00015807151794433594
aI66
aNaa(lp200
g4
(g8
S'UUUUUU\xe5?'
p201
tp202
Rp203
ag4
(g8
S'UUUUUU\xe5?'
p204
tp205
Rp206
aF0.00013899803161621094
aI66
aNag4
(g8
S'\xca&\x9bl\xb2\xc9\xe6?'
p207
tp208
Rp209
ag4
(g8
S'Wj\xa5Vj\xa5\xe6?'
p210
tp211
Rp212
aF0.00011396408081054688
aI66
aNag4
(g8
S'>\xf8\xe0\x83\x0f>\xe8?'
p213
tp214
Rp215
ag4
(g8
S'\xbe\xf7\xde{\xef\xbd\xe7?'
p216
tp217
Rp218
aF0.00010204315185546875
aI66
aNaa(lp219
g4
(g8
S'\xd9d\x93M6\xd9\xe4?'
p220
tp221
Rp222
ag4
(g8
S'\xd5J\xad\xd4J\xad\xe4?'
p223
tp224
Rp225
aF0.00010704994201660156
aI66
aNag4
(g8
S'\xe9\xa2\x8b.\xba\xe8\xe2?'
p226
tp227
Rp228
ag4
(g8
S'J\x90\xa7\x04yJ\xe0?'
p229
tp230
Rp231
aF0.00015091896057128906
aI66
aNag4
(g8
S'UUUUUU\xe5?'
p232
tp233
Rp234
ag4
(g8
S'\xa6\xa5\xa5\xa5\xa5\xa5\xe5?'
p235
tp236
Rp237
aF0.00010704994201660156
aI66
aNaa(lp238
g4
(g8
S'e\x93M6\xd9d\xe3?'
p239
tp240
Rp241
ag4
(g8
S'""""""\xe2?'
p242
tp243
Rp244
aF0.00011301040649414062
aI66
aNag4
(g8
S'\xf0\xc1\x07\x1f|\xf0\xe1?'
p245
tp246
Rp247
ag4
(g8
S'Q\x14EQ\x14E\xe1?'
p248
tp249
Rp250
aF0.00011897087097167969
aI66
aNag4
(g8
S'\xb2\xc9&\x9bl\xb2\xe9?'
p251
tp252
Rp253
ag4
(g8
S'#h8\xa9\xfb\xf2\xe8?'
p254
tp255
Rp256
aF0.00011181831359863281
aI66
aNaa(lp257
g4
(g8
S'6\xd9d\x93M6\xe9?'
p258
tp259
Rp260
ag4
(g8
S'r\x1c\xc7q\x1c\xc7\xe9?'
p261
tp262
Rp263
aF0.00011491775512695312
aI66
aNag4
(g8
S'UUUUUU\xe5?'
p264
tp265
Rp266
ag4
(g8
S'\x16_\xf1\x15_\xf1\xe5?'
p267
tp268
Rp269
aF0.0001399517059326172
aI66
aNag4
(g8
S'\xca&\x9bl\xb2\xc9\xe6?'
p270
tp271
Rp272
ag4
(g8
S'\xe4\x17K~\xb1\xe4\xe7?'
p273
tp274
Rp275
aF0.00010609626770019531
aI66
aNaa(lp276
g4
(g8
S']t\xd1E\x17]\xe4?'
p277
tp278
Rp279
ag4
(g8
S'\x9ds\xce9\xe7\x9c\xe3?'
p280
tp281
Rp282
aF0.00011682510375976562
aI66
aNag4
(g8
S'\xe1\x83\x0f>\xf8\xe0\xe3?'
p283
tp284
Rp285
ag4
(g8
S'[\xf8\xd5\x98H\x0f\xe4?'
p286
tp287
Rp288
aF0.00011920928955078125
aI66
aNag4
(g8
S'\xe1\x83\x0f>\xf8\xe0\xe3?'
p289
tp290
Rp291
ag4
(g8
S'\xd44M\xd34M\xe3?'
p292
tp293
Rp294
aF0.0001289844512939453
aI66
aNaa(lp295
g4
(g8
S'F\x17]t\xd1E\xe7?'
p296
tp297
Rp298
ag4
(g8
S'8\xbd\xe9Moz\xe3?'
p299
tp300
Rp301
aF0.00012612342834472656
aI66
aNag4
(g8
S'\xd9d\x93M6\xd9\xe4?'
p302
tp303
Rp304
ag4
(g8
S'>4\xd6\x87\xc6\xfa\xe0?'
p305
tp306
Rp307
aF0.00012111663818359375
aI66
aNag4
(g8
S'UUUUUU\xe5?'
p308
tp309
Rp310
ag4
(g8
S'\xecQ\xb8\x1e\x85\xeb\xe1?'
p311
tp312
Rp313
aF0.00011420249938964844
aI66
aNaa(lp314
g4
(g8
S'N6\xd9d\x93M\xe6?'
p315
tp316
Rp317
ag4
(g8
S'_B{\t\xed%\xe4?'
p318
tp319
Rp320
aF0.00011420249938964844
aI66
aNag4
(g8
S'N6\xd9d\x93M\xe6?'
p321
tp322
Rp323
ag4
(g8
S'_B{\t\xed%\xe4?'
p324
tp325
Rp326
aF0.00012302398681640625
aI66
aNag4
(g8
S'm\xb2\xc9&\x9bl\xe2?'
p327
tp328
Rp329
ag4
(g8
S'\x9d\xd8\x89\x9d\xd8\x89\xdd?'
p330
tp331
Rp332
aF0.00010704994201660156
aI66
aNaa(lp333
g4
(g8
S'\xd9d\x93M6\xd9\xe4?'
p334
tp335
Rp336
ag4
(g8
S'5\xc1x+\xfb\x1c\xe2?'
p337
tp338
Rp339
aF0.00011110305786132812
aI66
aNag4
(g8
S'e\x93M6\xd9d\xe3?'
p340
tp341
Rp342
ag4
(g8
S'I\x92$I\x92$\xe1?'
p343
tp344
Rp345
aF0.00011301040649414062
aI66
aNag4
(g8
S'\xd1E\x17]t\xd1\xe5?'
p346
tp347
Rp348
ag4
(g8
S'_Cy\r\xe55\xe4?'
p349
tp350
Rp351
aF0.00010991096496582031
aI66
aNaa(lp352
g4
(g8
S'e\x93M6\xd9d\xe3?'
p353
tp354
Rp355
ag4
(g8
S'{\t\xed%\xb4\x97\xe0?'
p356
tp357
Rp358
aF0.00012111663818359375
aI66
aNag4
(g8
S'e\x93M6\xd9d\xe3?'
p359
tp360
Rp361
ag4
(g8
S'/\xba\xe8\xa2\x8b.\xda?'
p362
tp363
Rp364
aF0.00010704994201660156
aI66
aNag4
(g8
S'\xd9d\x93M6\xd9\xe4?'
p365
tp366
Rp367
ag4
(g8
S'?4\xd6\x87\xc6\xfa\xe0?'
p368
tp369
Rp370
aF0.0001900196075439453
aI66
aNaa(lp371
g4
(g8
S'm\xb2\xc9&\x9bl\xe2?'
p372
tp373
Rp374
ag4
(g8
S'\x8d1\xc6\x18c\x8c\xe1?'
p375
tp376
Rp377
aF0.00011014938354492188
aI66
aNag4
(g8
S'\xd9d\x93M6\xd9\xe4?'
p378
tp379
Rp380
ag4
(g8
S'\xd5J\xad\xd4J\xad\xe4?'
p381
tp382
Rp383
aF0.00011301040649414062
aI66
aNag4
(g8
S'\xf0\xc1\x07\x1f|\xf0\xe1?'
p384
tp385
Rp386
ag4
(g8
S'Q\x14EQ\x14E\xe1?'
p387
tp388
Rp389
aF0.00010991096496582031
aI66
aNaa(lp390
g4
(g8
S'\xca&\x9bl\xb2\xc9\xe6?'
p391
tp392
Rp393
ag4
(g8
S'\xd1pR\xf7\xe5\xb1\xe5?'
p394
tp395
Rp396
aF0.00012302398681640625
aI66
aNag4
(g8
S'\xca&\x9bl\xb2\xc9\xe6?'
p397
tp398
Rp399
ag4
(g8
S'\xd1pR\xf7\xe5\xb1\xe5?'
p400
tp401
Rp402
aF0.00011181831359863281
aI66
aNag4
(g8
S'\xf0\xc1\x07\x1f|\xf0\xe1?'
p403
tp404
Rp405
ag4
(g8
S'\xe5\xec\x16~5&\xe2?'
p406
tp407
Rp408
aF0.00011491775512695312
aI66
aNaa(lp409
g4
(g8
S'F\x17]t\xd1E\xe7?'
p410
tp411
Rp412
ag4
(g8
S'UUUUUU\xe5?'
p413
tp414
Rp415
aF0.00016498565673828125
aI66
aNag4
(g8
S'\xd1E\x17]t\xd1\xe5?'
p416
tp417
Rp418
ag4
(g8
S'\x96Z\xa9\x95Z\xa9\xe5?'
p419
tp420
Rp421
aF0.00011515617370605469
aI66
aNag4
(g8
S'\xc2\x07\x1f|\xf0\xc1\xe7?'
p422
tp423
Rp424
ag4
(g8
S'Lg1\x9d\xc5t\xe6?'
p425
tp426
Rp427
aF0.00010395050048828125
aI66
aNaa(lp428
g4
(g8
S'F\x17]t\xd1E\xe7?'
p429
tp430
Rp431
ag4
(g8
S'gfffff\xe6?'
p432
tp433
Rp434
aF0.00010991096496582031
aI66
aNag4
(g8
S'UUUUUU\xe5?'
p435
tp436
Rp437
ag4
(g8
S'\x00\x00\x00\x00\x00\x00\xe5?'
p438
tp439
Rp440
aF0.00011110305786132812
aI66
aNag4
(g8
S'\xd1E\x17]t\xd1\xe5?'
p441
tp442
Rp443
ag4
(g8
S'_\x1e[\x114\x9c\xe4?'
p444
tp445
Rp446
aF0.00010991096496582031
aI66
aNaa(lp447
g4
(g8
S'\xe9\xa2\x8b.\xba\xe8\xe2?'
p448
tp449
Rp450
ag4
(g8
S'\x93$I\x92$I\xe2?'
p451
tp452
Rp453
aF0.00011110305786132812
aI66
aNag4
(g8
S'\xe1\x83\x0f>\xf8\xe0\xe3?'
p454
tp455
Rp456
ag4
(g8
S'}ylE\xd0p\xe2?'
p457
tp458
Rp459
aF0.00011086463928222656
aI66
aNag4
(g8
S'\x00\x00\x00\x00\x00\x00\xe0?'
p460
tp461
Rp462
ag4
(g8
S'\x9f\xe7y\x9e\xe7y\xde?'
p463
tp464
Rp465
aF0.00010395050048828125
aI66
aNaa(lp466
g4
(g8
S'\xd1E\x17]t\xd1\xe5?'
p467
tp468
Rp469
ag4
(g8
S'\xc9\x10\xac\xa3\xcd\xfb\xe4?'
p470
tp471
Rp472
aF0.00011801719665527344
aI66
aNag4
(g8
S'e\x93M6\xd9d\xe3?'
p473
tp474
Rp475
ag4
(g8
S'\xc4\xc3\xc3\xc3\xc3\xc3\xe3?'
p476
tp477
Rp478
aF0.00010704994201660156
aI66
aNag4
(g8
S'\xe1\x83\x0f>\xf8\xe0\xe3?'
p479
tp480
Rp481
ag4
(g8
S'\xd34M\xd34M\xe3?'
p482
tp483
Rp484
aF0.00010585784912109375
aI66
aNaa(lp485
g4
(g8
S'm\xb2\xc9&\x9bl\xe2?'
p486
tp487
Rp488
ag4
(g8
S'\x00\x00\x00\x00\x00\x00\xe0?'
p489
tp490
Rp491
aF0.036180973052978516
aI66
aNag4
(g8
S'\xe1\x83\x0f>\xf8\xe0\xe3?'
p492
tp493
Rp494
ag4
(g8
S'q\x1f\xc1}\x04\xf7\xe1?'
p495
tp496
Rp497
aF0.00012302398681640625
aI66
aNag4
(g8
S'\xd1E\x17]t\xd1\xe5?'
p498
tp499
Rp500
ag4
(g8
S'_\x1e[\x114\x9c\xe4?'
p501
tp502
Rp503
aF0.00010585784912109375
aI66
aNaa(lp504
g4
(g8
S'N6\xd9d\x93M\xe6?'
p505
tp506
Rp507
ag4
(g8
S'\xc3rO#,\xf7\xe4?'
p508
tp509
Rp510
aF0.00010704994201660156
aI66
aNag4
(g8
S'N6\xd9d\x93M\xe6?'
p511
tp512
Rp513
ag4
(g8
S'M6\xd9d\x93M\xe6?'
p514
tp515
Rp516
aF0.010265827178955078
aI66
aNag4
(g8
S'\xd1E\x17]t\xd1\xe5?'
p517
tp518
Rp519
ag4
(g8
S'\xc9\x10\xac\xa3\xcd\xfb\xe4?'
p520
tp521
Rp522
aF0.00016307830810546875
aI66
aNaa(lp523
g4
(g8
S'UUUUUU\xe5?'
p524
tp525
Rp526
ag4
(g8
S'VUUUUU\xe5?'
p527
tp528
Rp529
aF0.00017499923706054688
aI66
aNag4
(g8
S'\xd1E\x17]t\xd1\xe5?'
p530
tp531
Rp532
ag4
(g8
S'VUUUUU\xe5?'
p533
tp534
Rp535
aF0.0001049041748046875
aI66
aNag4
(g8
S'UUUUUU\xe5?'
p536
tp537
Rp538
ag4
(g8
S'\x00\x00\x00\x00\x00\x00\xe5?'
p539
tp540
Rp541
aF0.000102996826171875
aI66
aNaa(lp542
g4
(g8
S'\xc2\x07\x1f|\xf0\xc1\xe7?'
p543
tp544
Rp545
ag4
(g8
S'Lg1\x9d\xc5t\xe6?'
p546
tp547
Rp548
aF0.00011205673217773438
aI66
aNag4
(g8
S'UUUUUU\xe5?'
p549
tp550
Rp551
ag4
(g8
S'UUUUUU\xe1?'
p552
tp553
Rp554
aF0.00011396408081054688
aI66
aNag4
(g8
S'e\x93M6\xd9d\xe3?'
p555
tp556
Rp557
ag4
(g8
S'\x00\x00\x00\x00\x00\x00\xe0?'
p558
tp559
Rp560
aF0.00011110305786132812
aI66
aNaa(lp561
g4
(g8
S'\xd1E\x17]t\xd1\xe5?'
p562
tp563
Rp564
ag4
(g8
S'\xc1x+\xfb\x1cR\xe3?'
p565
tp566
Rp567
aF0.00011086463928222656
aI66
aNag4
(g8
S']t\xd1E\x17]\xe4?'
p568
tp569
Rp570
ag4
(g8
S'P#,\xf74\xc2\xe2?'
p571
tp572
Rp573
aF0.00011920928955078125
aI66
aNag4
(g8
S'UUUUUU\xe5?'
p574
tp575
Rp576
ag4
(g8
S'\xebQ\xb8\x1e\x85\xeb\xe1?'
p577
tp578
Rp579
aF0.00011491775512695312
aI66
aNaa(lp580
g4
(g8
S'\xe1\x83\x0f>\xf8\xe0\xe3?'
p581
tp582
Rp583
ag4
(g8
S'\xd34M\xd34M\xe3?'
p584
tp585
Rp586
aF0.00010800361633300781
aI66
aNag4
(g8
S'\xd9d\x93M6\xd9\xe4?'
p587
tp588
Rp589
ag4
(g8
S'\xd5J\xad\xd4J\xad\xe4?'
p590
tp591
Rp592
aF0.00011610984802246094
aI66
aNag4
(g8
S']t\xd1E\x17]\xe4?'
p593
tp594
Rp595
ag4
(g8
S'\xb5\xb4\xb4\xb4\xb4\xb4\xe4?'
p596
tp597
Rp598
aF0.00011706352233886719
aI66
aNaa(lp599
g4
(g8
S'\xd1E\x17]t\xd1\xe5?'
p600
tp601
Rp602
ag4
(g8
S'\x93$I\x92$I\xe2?'
p603
tp604
Rp605
aF0.00012302398681640625
aI66
aNag4
(g8
S'N6\xd9d\x93M\xe6?'
p606
tp607
Rp608
ag4
(g8
S'\x01\x00\x00\x00\x00\x00\xe6?'
p609
tp610
Rp611
aF0.020171165466308594
aI66
aNag4
(g8
S'\xf0\xc1\x07\x1f|\xf0\xe1?'
p612
tp613
Rp614
ag4
(g8
S'\x04\xf7\x11\xdcGp\xdf?'
p615
tp616
Rp617
aF0.00011706352233886719
aI66
aNaa(lp618
g4
(g8
S'UUUUUU\xe5?'
p619
tp620
Rp621
ag4
(g8
S'\x00\x00\x00\x00\x00\x00\xe5?'
p622
tp623
Rp624
aF0.00011587142944335938
aI66
aNag4
(g8
S'N6\xd9d\x93M\xe6?'
p625
tp626
Rp627
ag4
(g8
S'M6\xd9d\x93M\xe6?'
p628
tp629
Rp630
aF0.00011801719665527344
aI66
aNag4
(g8
S'\xab\xaa\xaa\xaa\xaa\xaa\xea?'
p631
tp632
Rp633
ag4
(g8
S'\xfc\x14\x97\x0c\xc1:\xea?'
p634
tp635
Rp636
aF0.00010895729064941406
aI66
aNaa(lp637
g4
(g8
S'\xd9d\x93M6\xd9\xe4?'
p638
tp639
Rp640
ag4
(g8
S'5\xc1x+\xfb\x1c\xe2?'
p641
tp642
Rp643
aF0.00011515617370605469
aI66
aNag4
(g8
S'\xd1E\x17]t\xd1\xe5?'
p644
tp645
Rp646
ag4
(g8
S'\xd3\xd2\xd2\xd2\xd2\xd2\xe2?'
p647
tp648
Rp649
aF0.00011181831359863281
aI66
aNag4
(g8
S'\xc2\x07\x1f|\xf0\xc1\xe7?'
p650
tp651
Rp652
ag4
(g8
S'UUUUUU\xe5?'
p653
tp654
Rp655
aF0.00010395050048828125
aI66
aNaa(lp656
g4
(g8
S'\xc2\x07\x1f|\xf0\xc1\xe7?'
p657
tp658
Rp659
ag4
(g8
S'\x1c\xd6\xbea\xed\x1b\xe6?'
p660
tp661
Rp662
aF0.00011491775512695312
aI66
aNag4
(g8
S'\xe9\xa2\x8b.\xba\xe8\xe2?'
p663
tp664
Rp665
ag4
(g8
S'\xde\xa7\xb8d\x08\xd6\xe1?'
p666
tp667
Rp668
aF0.00016689300537109375
aI66
aNag4
(g8
S'\xf8\xe0\x83\x0f>\xf8\xe0?'
p669
tp670
Rp671
ag4
(g8
S'\xc6\x92_,\xf9\xc5\xe2?'
p672
tp673
Rp674
aF0.00010204315185546875
aI66
aNaa(lp675
g4
(g8
S'\xd1E\x17]t\xd1\xe5?'
p676
tp677
Rp678
ag4
(g8
S'_\x1e[\x114\x9c\xe4?'
p679
tp680
Rp681
aF0.00012087821960449219
aI66
aNag4
(g8
S'\xca&\x9bl\xb2\xc9\xe6?'
p682
tp683
Rp684
ag4
(g8
S'UUUUUU\xe5?'
p685
tp686
Rp687
aF0.00011205673217773438
aI66
aNag4
(g8
S'\xd9d\x93M6\xd9\xe4?'
p688
tp689
Rp690
ag4
(g8
S'5\xc1x+\xfb\x1c\xe2?'
p691
tp692
Rp693
aF0.00012302398681640625
aI66
aNaa(lp694
g4
(g8
S'\xd1E\x17]t\xd1\xe5?'
p695
tp696
Rp697
ag4
(g8
S'\x96Z\xa9\x95Z\xa9\xe5?'
p698
tp699
Rp700
aF0.00011301040649414062
aI66
aNag4
(g8
S'\xd9d\x93M6\xd9\xe4?'
p701
tp702
Rp703
ag4
(g8
S'\x14EQ\x14EQ\xe4?'
p704
tp705
Rp706
aF0.00011491775512695312
aI66
aNag4
(g8
S'N6\xd9d\x93M\xe6?'
p707
tp708
Rp709
ag4
(g8
S'\xc2rO#,\xf7\xe4?'
p710
tp711
Rp712
aF0.00011301040649414062
aI66
aNaa(lp713
g4
(g8
S'\xf0\xc1\x07\x1f|\xf0\xe1?'
p714
tp715
Rp716
ag4
(g8
S'\x91\x1b\xb9\x91\x1b\xb9\xe1?'
p717
tp718
Rp719
aF0.00011801719665527344
aI66
aNag4
(g8
S'UUUUUU\xe5?'
p720
tp721
Rp722
ag4
(g8
S'\xa5\x94RJ)\xa5\xe4?'
p723
tp724
Rp725
aF0.00016617774963378906
aI66
aNag4
(g8
S'\xe1\x83\x0f>\xf8\xe0\xe3?'
p726
tp727
Rp728
ag4
(g8
S'\x82u\xb4y\x9f\xe2\xe2?'
p729
tp730
Rp731
aF0.00011181831359863281
aI66
aNaa(lp732
g4
(g8
S'\xd1E\x17]t\xd1\xe5?'
p733
tp734
Rp735
ag4
(g8
S'_\x1e[\x114\x9c\xe4?'
p736
tp737
Rp738
aF0.0001571178436279297
aI66
aNag4
(g8
S'\xe1\x83\x0f>\xf8\xe0\xe3?'
p739
tp740
Rp741
ag4
(g8
S'\xd44M\xd34M\xe3?'
p742
tp743
Rp744
aF0.00011897087097167969
aI66
aNag4
(g8
S'UUUUUU\xe5?'
p745
tp746
Rp747
ag4
(g8
S'\xa5\xa5\xa5\xa5\xa5\xa5\xe5?'
p748
tp749
Rp750
aF0.00011014938354492188
aI66
aNaa(lp751
g4
(g8
S'\xca&\x9bl\xb2\xc9\xe6?'
p752
tp753
Rp754
ag4
(g8
S'\x8e\x89\xf4@\xe5\xec\xe6?'
p755
tp756
Rp757
aF0.00011396408081054688
aI66
aNag4
(g8
S'\xd1E\x17]t\xd1\xe5?'
p758
tp759
Rp760
ag4
(g8
S'\xca\x10\xac\xa3\xcd\xfb\xe4?'
p761
tp762
Rp763
aF0.00012111663818359375
aI66
aNag4
(g8
S'UUUUUU\xe5?'
p764
tp765
Rp766
ag4
(g8
S'\xa5\x94RJ)\xa5\xe4?'
p767
tp768
Rp769
aF0.00011610984802246094
aI66
aNaa(lp770
g4
(g8
S'>\xf8\xe0\x83\x0f>\xe8?'
p771
tp772
Rp773
ag4
(g8
S'\xb6m\xdb\xb6m\xdb\xe6?'
p774
tp775
Rp776
aF0.0001220703125
aI66
aNag4
(g8
S'\xd1E\x17]t\xd1\xe5?'
p777
tp778
Rp779
ag4
(g8
S'\xd3\xd2\xd2\xd2\xd2\xd2\xe2?'
p780
tp781
Rp782
aF0.00012993812561035156
aI66
aNag4
(g8
S'F\x17]t\xd1E\xe7?'
p783
tp784
Rp785
ag4
(g8
S'|\x1aa\xb9\xa7\x11\xe6?'
p786
tp787
Rp788
aF0.00011706352233886719
aI66
aNaa(lp789
g4
(g8
S'\xd1E\x17]t\xd1\xe5?'
p790
tp791
Rp792
ag4
(g8
S'\xc9\x10\xac\xa3\xcd\xfb\xe4?'
p793
tp794
Rp795
aF0.00011777877807617188
aI66
aNag4
(g8
S't\xd1E\x17]t\xe1?'
p796
tp797
Rp798
ag4
(g8
S'n\xdb\xb6m\xdb\xb6\xdd?'
p799
tp800
Rp801
aF0.0001380443572998047
aI66
aNag4
(g8
S'UUUUUU\xe5?'
p802
tp803
Rp804
ag4
(g8
S'\x00\x00\x00\x00\x00\x00\xe5?'
p805
tp806
Rp807
aF0.00011706352233886719
aI66
aNaa(lp808
g4
(g8
S'\xca&\x9bl\xb2\xc9\xe6?'
p809
tp810
Rp811
ag4
(g8
S'n\xde\xa7\xb8d\x08\xe6?'
p812
tp813
Rp814
aF0.00010895729064941406
aI66
aNag4
(g8
S'\xd9d\x93M6\xd9\xe4?'
p815
tp816
Rp817
ag4
(g8
S'\xd5J\xad\xd4J\xad\xe4?'
p818
tp819
Rp820
aF0.00011515617370605469
aI66
aNag4
(g8
S'\xca&\x9bl\xb2\xc9\xe6?'
p821
tp822
Rp823
ag4
(g8
S'n\xde\xa7\xb8d\x08\xe6?'
p824
tp825
Rp826
aF0.00010800361633300781
aI66
aNaa(lp827
g4
(g8
S']t\xd1E\x17]\xe4?'
p828
tp829
Rp830
ag4
(g8
S'\xb5\xb4\xb4\xb4\xb4\xb4\xe4?'
p831
tp832
Rp833
aF0.00012302398681640625
aI66
aNag4
(g8
S'\xc2\x07\x1f|\xf0\xc1\xe7?'
p834
tp835
Rp836
ag4
(g8
S'\x18z\xa1\x17z\xa1\xe7?'
p837
tp838
Rp839
aF0.00011181831359863281
aI66
aNag4
(g8
S'/\xba\xe8\xa2\x8b.\xea?'
p840
tp841
Rp842
ag4
(g8
S'\x00\x00\x00\x00\x00\x00\xea?'
p843
tp844
Rp845
aF0.00011086463928222656
aI66
aNaa(lp846
g4
(g8
S'UUUUUU\xe5?'
p847
tp848
Rp849
ag4
(g8
S'\t\xcb=\x8d\xb0\xdc\xe3?'
p850
tp851
Rp852
aF0.00011897087097167969
aI66
aNag4
(g8
S'UUUUUU\xe5?'
p853
tp854
Rp855
ag4
(g8
S'\t\xcb=\x8d\xb0\xdc\xe3?'
p856
tp857
Rp858
aF0.00010704994201660156
aI66
aNag4
(g8
S'\xd1E\x17]t\xd1\xe5?'
p859
tp860
Rp861
ag4
(g8
S'\xc9\x10\xac\xa3\xcd\xfb\xe4?'
p862
tp863
Rp864
aF0.00010514259338378906
aI66
aNaa(lp865
g4
(g8
S'\xd9d\x93M6\xd9\xe4?'
p866
tp867
Rp868
ag4
(g8
S'5\xc1x+\xfb\x1c\xe2?'
p869
tp870
Rp871
aF0.00015306472778320312
aI66
aNag4
(g8
S'N6\xd9d\x93M\xe6?'
p872
tp873
Rp874
ag4
(g8
S'\xc3rO#,\xf7\xe4?'
p875
tp876
Rp877
aF0.00012111663818359375
aI66
aNag4
(g8
S'\xd1E\x17]t\xd1\xe5?'
p878
tp879
Rp880
ag4
(g8
S'\xd3\xd2\xd2\xd2\xd2\xd2\xe2?'
p881
tp882
Rp883
aF0.00011396408081054688
aI66
aNaa(lp884
g4
(g8
S'\xd9d\x93M6\xd9\xe4?'
p885
tp886
Rp887
ag4
(g8
S'?4\xd6\x87\xc6\xfa\xe0?'
p888
tp889
Rp890
aF0.00012302398681640625
aI66
aNag4
(g8
S'\xd9d\x93M6\xd9\xe4?'
p891
tp892
Rp893
ag4
(g8
S'qG\xdc\x11w\xc4\xdd?'
p894
tp895
Rp896
aF0.00011897087097167969
aI66
aNag4
(g8
S'\xe1\x83\x0f>\xf8\xe0\xe3?'
p897
tp898
Rp899
ag4
(g8
S'x6\xea;\x1b\xf5\xdd?'
p900
tp901
Rp902
aF0.00012111663818359375
aI66
aNaa(lp903
g4
(g8
S'\xca&\x9bl\xb2\xc9\xe6?'
p904
tp905
Rp906
ag4
(g8
S'M0\xde\xca>\x87\xe4?'
p907
tp908
Rp909
aF0.00011491775512695312
aI66
aNag4
(g8
S'N6\xd9d\x93M\xe6?'
p910
tp911
Rp912
ag4
(g8
S'_B{\t\xed%\xe4?'
p913
tp914
Rp915
aF0.00011301040649414062
aI66
aNag4
(g8
S'N6\xd9d\x93M\xe6?'
p916
tp917
Rp918
ag4
(g8
S'\xab\xaa\xaa\xaa\xaa\xaa\xe2?'
p919
tp920
Rp921
aF0.00010704994201660156
aI66
aNaa(lp922
g4
(g8
S'UUUUUU\xe5?'
p923
tp924
Rp925
ag4
(g8
S'\xa5\x94RJ)\xa5\xe4?'
p926
tp927
Rp928
aF0.00011801719665527344
aI66
aNag4
(g8
S'6\xd9d\x93M6\xe9?'
p929
tp930
Rp931
ag4
(g8
S'\x89\x88\x88\x88\x88\x88\xe8?'
p932
tp933
Rp934
aF0.00011014938354492188
aI66
aNag4
(g8
S'>\xf8\xe0\x83\x0f>\xe8?'
p935
tp936
Rp937
ag4
(g8
S'xxxxxx\xe8?'
p938
tp939
Rp940
aF0.000102996826171875
aI66
aNaa(lp941
g4
(g8
S'UUUUUU\xe5?'
p942
tp943
Rp944
ag4
(g8
S'\t\xcb=\x8d\xb0\xdc\xe3?'
p945
tp946
Rp947
aF0.00011086463928222656
aI66
aNag4
(g8
S'\xb2\xc9&\x9bl\xb2\xe9?'
p948
tp949
Rp950
ag4
(g8
S'Y\x96eY\x96e\xe9?'
p951
tp952
Rp953
aF0.00017905235290527344
aI66
aNag4
(g8
S'\x10>\xf8\xe0\x83\x0f\xde?'
p954
tp955
Rp956
ag4
(g8
S'\x93\xba/\x8f\xad\x08\xda?'
p957
tp958
Rp959
aF0.00011682510375976562
aI66
aNaas.