(dp0
S'german'
p1
(lp2
(lp3
cnumpy.core.multiarray
scalar
p4
(cnumpy
dtype
p5
(S'f8'
p6
I0
I1
tp7
Rp8
(I3
S'<'
p9
NNNI-1
I-1
I0
tp10
bS'j\xbct\x93\x18\x04\xe6?'
p11
tp12
Rp13
ag4
(g8
S'\x1d\x1e\x1e\x1e\x1e\x1e\xce?'
p14
tp15
Rp16
aF0.24322104454040527
aI250
aS'kernel = 1 degree'
p17
ag4
(g8
S'\xbaI\x0c\x02+\x87\xe6?'
p18
tp19
Rp20
ag4
(g8
S'\x88\x88\x88\x88\x88\x88\xd8?'
p21
tp22
Rp23
aF0.17659592628479004
aI250
aS'kernel = 1 degree'
p24
ag4
(g8
S'\x17\xd9\xce\xf7S\xe3\xe5?'
p25
tp26
Rp27
ag4
(g8
S'qJ\xf3\xe2O$\xdc?'
p28
tp29
Rp30
aF0.1801130771636963
aI250
aS'kernel = 1 degree'
p31
aa(lp32
g4
(g8
S'X9\xb4\xc8v\xbe\xdf?'
p33
tp34
Rp35
ag4
(g8
S'\x1e\x1e\x1e\x1e\x1e\x1e\xde?'
p36
tp37
Rp38
aF0.16250300407409668
aI250
aS'kernel = 1 degree'
p39
ag4
(g8
S'\xdb\xf9~j\xbct\xe3?'
p40
tp41
Rp42
ag4
(g8
S'\xaeC\xbf\xd9:\xf4\xdb?'
p43
tp44
Rp45
aF0.10524797439575195
aI250
aS'kernel = 1 degree'
p46
ag4
(g8
S'\x7fj\xbct\x93\x18\xe4?'
p47
tp48
Rp49
ag4
(g8
S'I$\x12\x89D"\xd1?'
p50
tp51
Rp52
aF0.11723709106445312
aI250
aS'kernel = 0 degree'
p53
aa(lp54
g4
(g8
S'\xb6\xf3\xfd\xd4x\xe9\xe6?'
p55
tp56
Rp57
ag4
(g8
S"\x91i\xd8n\x96'\xd1?"
p58
tp59
Rp60
aF0.16268301010131836
aI250
aS'kernel = 1 degree'
p61
ag4
(g8
S'\xd3Mb\x10X9\xe4?'
p62
tp63
Rp64
ag4
(g8
S'UUUUUU\xd5?'
p65
tp66
Rp67
aF0.13212990760803223
aI250
aS'kernel = 1 degree'
p68
ag4
(g8
S'o\x12\x83\xc0\xca\xa1\xe5?'
p69
tp70
Rp71
ag4
(g8
S'\xcc\xe5r\xb9\\.\xd7?'
p72
tp73
Rp74
aF0.10806894302368164
aI250
aS'kernel = 1 degree'
p75
aa(lp76
g4
(g8
S'J\x0c\x02+\x87\x16\xd9?'
p77
tp78
Rp79
ag4
(g8
S'<<<<<<\xdc?'
p80
tp81
Rp82
aF0.11592888832092285
aI250
aS'kernel = 1 degree'
p83
ag4
(g8
S'\xcb\xa1E\xb6\xf3\xfd\xe4?'
p84
tp85
Rp86
ag4
(g8
S'\xa1\xbc\x86\xf2\x1a\xca\xdb?'
p87
tp88
Rp89
aF0.053852081298828125
aI250
aS'kernel = 1 degree'
p90
ag4
(g8
S'j\xbct\x93\x18\x04\xe6?'
p91
tp92
Rp93
ag4
(g8
S'\x00\x00\x00\x00\x00\x00\xd0?'
p94
tp95
Rp96
aF0.12723112106323242
aI250
aS'kernel = 1 degree'
p97
aa(lp98
g4
(g8
S'F\xb6\xf3\xfd\xd4x\xe9?'
p99
tp100
Rp101
ag4
(g8
S'\xaa\xf3k\x0f\xb9\xac\xd8?'
p102
tp103
Rp104
aF0.05997490882873535
aI250
aS'kernel = 0 degree'
p105
ag4
(g8
S'R\xb8\x1e\x85\xebQ\xd8?'
p106
tp107
Rp108
ag4
(g8
S'W\x10\x93+\x88\xc9\xd5?'
p109
tp110
Rp111
aF0.1136620044708252
aI250
aS'kernel = 1 degree'
p112
ag4
(g8
S'\x0e-\xb2\x9d\xef\xa7\xe6?'
p113
tp114
Rp115
ag4
(g8
S'\xb7\xc6\xdf\xcd#T\xdf?'
p116
tp117
Rp118
aF0.10749316215515137
aI250
aS'kernel = 1 degree'
p119
aa(lp120
g4
(g8
S'+\x87\x16\xd9\xce\xf7\xe3?'
p121
tp122
Rp123
ag4
(g8
S'F\x89\x9fQ\xe2g\xd4?'
p124
tp125
Rp126
aF0.060678958892822266
aI250
aS'kernel = 1 degree'
p127
ag4
(g8
S'\x1b/\xdd$\x06\x81\xe5?'
p128
tp129
Rp130
ag4
(g8
S'\x95\xd7P^Cy\xdd?'
p131
tp132
Rp133
aF0.10164713859558105
aI250
aS'kernel = 1 degree'
p134
ag4
(g8
S'w\xbe\x9f\x1a/\xdd\xe4?'
p135
tp136
Rp137
ag4
(g8
S'\xd9\x80l@6 \xdb?'
p138
tp139
Rp140
aF0.09983491897583008
aI250
aS'kernel = 1 degree'
p141
aa(lp142
g4
(g8
S'sh\x91\xed|?\xe5?'
p143
tp144
Rp145
ag4
(g8
S'\x0b\xc6[\xd9\xe7\x90\xca?'
p146
tp147
Rp148
aF0.05907893180847168
aI250
aS'kernel = 1 degree'
p149
ag4
(g8
S'\x1f\x85\xebQ\xb8\x1e\xe5?'
p150
tp151
Rp152
ag4
(g8
S'\x12x\xfb!\x81\xb7\xcf?'
p153
tp154
Rp155
aF0.10625600814819336
aI250
aS'kernel = 1 degree'
p156
ag4
(g8
S"'1\x08\xac\x1cZ\xe4?"
p157
tp158
Rp159
ag4
(g8
S'\x9aD\xef\x99D\xef\xd9?'
p160
tp161
Rp162
aF0.07874083518981934
aI250
aS'kernel = 1 degree'
p163
aa(lp164
g4
(g8
S'\xcb\xa1E\xb6\xf3\xfd\xe4?'
p165
tp166
Rp167
ag4
(g8
S'\xf9\x8a\xaf\xf8\x8a\xaf\xd8?'
p168
tp169
Rp170
aF0.058905839920043945
aI250
aS'kernel = 1 degree'
p171
ag4
(g8
S'w\xbe\x9f\x1a/\xdd\xe4?'
p172
tp173
Rp174
ag4
(g8
S'\xefa\xeb\xdb\x80\xa1\xda?'
p175
tp176
Rp177
aF0.11781692504882812
aI250
aS'kernel = 1 degree'
p178
ag4
(g8
S'w\xbe\x9f\x1a/\xdd\xe4?'
p179
tp180
Rp181
ag4
(g8
S'cr\x051\xb9\x82\xd8?'
p182
tp183
Rp184
aF0.0582118034362793
aI250
aS'kernel = 1 degree'
p185
aa(lp186
g4
(g8
S'\xb2\x9d\xef\xa7\xc6K\xe7?'
p187
tp188
Rp189
ag4
(g8
S'f\x9fCj\x82\xf1\xd6?'
p190
tp191
Rp192
aF0.05947089195251465
aI250
aS'kernel = 1 degree'
p193
ag4
(g8
S'sh\x91\xed|?\xe5?'
p194
tp195
Rp196
ag4
(g8
S'I\x0fT\xcen\xe1\xd7?'
p197
tp198
Rp199
aF0.0320589542388916
aI250
aS'kernel = 1 degree'
p200
ag4
(g8
S'j\xbct\x93\x18\x04\xe6?'
p201
tp202
Rp203
ag4
(g8
S'\xef\xdc\xb9s\xe7\xce\xdd?'
p204
tp205
Rp206
aF0.05113101005554199
aI250
aS'kernel = 1 degree'
p207
aa(lp208
g4
(g8
S'\xaeG\xe1z\x14\xae\xe7?'
p209
tp210
Rp211
ag4
(g8
S'\xfb\x91\xd3|\xad\x9e\xdd?'
p212
tp213
Rp214
aF0.06046605110168457
aI250
aS'kernel = 1 degree'
p215
ag4
(g8
S'b\x10X9\xb4\xc8\xe6?'
p216
tp217
Rp218
ag4
(g8
S'\xb1\x13;\xb1\x13;\xe1?'
p219
tp220
Rp221
aF0.053176164627075195
aI250
aS'kernel = 1 degree'
p222
ag4
(g8
S'\x87\x16\xd9\xce\xf7S\xe3?'
p223
tp224
Rp225
ag4
(g8
S'\xfa\xd3\x16\x1a\xb0\xa4\xd7?'
p226
tp227
Rp228
aF0.049748897552490234
aI250
aS'kernel = 1 degree'
p229
aa(lp230
g4
(g8
S'\xb2\x9d\xef\xa7\xc6K\xe7?'
p231
tp232
Rp233
ag4
(g8
S'\xa0\xf4I\x9f\xf4I\xcf?'
p234
tp235
Rp236
aF0.041452884674072266
aI250
aS'kernel = 1 degree'
p237
ag4
(g8
S'\xbaI\x0c\x02+\x87\xe6?'
p238
tp239
Rp240
ag4
(g8
S'\x92\x91\x91\x91\x91\x91\xd1?'
p241
tp242
Rp243
aF0.03274989128112793
aI250
aS'kernel = 1 degree'
p244
ag4
(g8
S'\x1b/\xdd$\x06\x81\xe5?'
p245
tp246
Rp247
ag4
(g8
S'\x05\x95\xb3[\xf8\xd5\xd8?'
p248
tp249
Rp250
aF0.029553890228271484
aI250
aS'kernel = 1 degree'
p251
aa(lp252
g4
(g8
S'\xc7K7\x89A`\xe5?'
p253
tp254
Rp255
ag4
(g8
S'\x12\x99\x86\xedfy\xc2?'
p256
tp257
Rp258
aF0.035370826721191406
aI250
aS'kernel = 1 degree'
p259
ag4
(g8
S'sh\x91\xed|?\xe5?'
p260
tp261
Rp262
ag4
(g8
S'333333\xd3?'
p263
tp264
Rp265
aF0.033735036849975586
aI250
aS'kernel = 1 degree'
p266
ag4
(g8
S'\x1f\x85\xebQ\xb8\x1e\xe5?'
p267
tp268
Rp269
ag4
(g8
S'B{\t\xed%\xb4\xd7?'
p270
tp271
Rp272
aF0.030330181121826172
aI250
aS'kernel = 0 degree'
p273
aa(lp274
g4
(g8
S'{\x14\xaeG\xe1z\xd4?'
p275
tp276
Rp277
ag4
(g8
S'a\xb9\xa7\x11\x96{\xda?'
p278
tp279
Rp280
aF0.05994296073913574
aI250
aS'kernel = 1 degree'
p281
ag4
(g8
S'\xd3Mb\x10X9\xe4?'
p282
tp283
Rp284
ag4
(g8
S'\x1a\xa4A\x1a\xa4A\xda?'
p285
tp286
Rp287
aF0.05464887619018555
aI250
aS'kernel = 1 degree'
p288
ag4
(g8
S'\xbe\x9f\x1a/\xdd$\xe6?'
p289
tp290
Rp291
ag4
(g8
S'L&\x93\xc9d2\xd9?'
p292
tp293
Rp294
aF0.030201196670532227
aI250
aS'kernel = 1 degree'
p295
aa(lp296
g4
(g8
S'V\x0e-\xb2\x9d\xef\xe7?'
p297
tp298
Rp299
ag4
(g8
S'\xdabe\xf8F\x14\xd8?'
p300
tp301
Rp302
aF0.055045127868652344
aI250
aS'kernel = 1 degree'
p303
ag4
(g8
S'?5^\xbaI\x0c\xe2?'
p304
tp305
Rp306
ag4
(g8
S'Fs\x19\xcde4\xd7?'
p307
tp308
Rp309
aF0.03255915641784668
aI250
aS'kernel = 1 degree'
p310
ag4
(g8
S'#\xdb\xf9~j\xbc\xe4?'
p311
tp312
Rp313
ag4
(g8
S'"\x9fu\x83)\xf2\xd9?'
p314
tp315
Rp316
aF0.03037118911743164
aI250
aS'kernel = 1 degree'
p317
aa(lp318
g4
(g8
S'{\x14\xaeG\xe1z\xe4?'
p319
tp320
Rp321
ag4
(g8
S'\x13;\xb1\x13;\xb1\xd3?'
p322
tp323
Rp324
aF0.03546309471130371
aI250
aS'kernel = 1 degree'
p325
ag4
(g8
S'^\xbaI\x0c\x02+\xe7?'
p326
tp327
Rp328
ag4
(g8
S'\xc1\xec\x01\xb3\x07\xcc\xde?'
p329
tp330
Rp331
aF0.0361180305480957
aI250
aS'kernel = 1 degree'
p332
ag4
(g8
S'\xcf\xf7S\xe3\xa5\x9b\xe4?'
p333
tp334
Rp335
ag4
(g8
S'\x7f\x85Y\x8d"\x0e\xdd?'
p336
tp337
Rp338
aF0.029903173446655273
aI250
aS'kernel = 1 degree'
p339
aa(lp340
g4
(g8
S'\xb6\xf3\xfd\xd4x\xe9\xe6?'
p341
tp342
Rp343
ag4
(g8
S'\xb1\x02a\xa4\x1d+\xd0?'
p344
tp345
Rp346
aF0.0350499153137207
aI250
aS'kernel = 0 degree'
p347
ag4
(g8
S'\xc3\xf5(\\\x8f\xc2\xe5?'
p348
tp349
Rp350
ag4
(g8
S'\x92$I\x92$I\xd2?'
p351
tp352
Rp353
aF0.03302192687988281
aI250
aS'kernel = 1 degree'
p354
ag4
(g8
S'ffffff\xe6?'
p355
tp356
Rp357
ag4
(g8
S'\xf9\x18\x9c\x8f\xc1\xf9\xd8?'
p358
tp359
Rp360
aF0.04718303680419922
aI250
aS'kernel = 0 degree'
p361
aa(lp362
g4
(g8
S'\xcb\xa1E\xb6\xf3\xfd\xe4?'
p363
tp364
Rp365
ag4
(g8
S'\x81u\xb4y\x9f\xe2\xd2?'
p366
tp367
Rp368
aF0.05924201011657715
aI250
aS'kernel = 1 degree'
p369
ag4
(g8
S'o\x12\x83\xc0\xca\xa1\xe5?'
p370
tp371
Rp372
ag4
(g8
S'\xf4\x05}A_\xd0\xd7?'
p373
tp374
Rp375
aF0.032440185546875
aI250
aS'kernel = 1 degree'
p376
ag4
(g8
S'\xcb\xa1E\xb6\xf3\xfd\xe4?'
p377
tp378
Rp379
ag4
(g8
S'\xfa\xac\x1bL\x91\xcf\xda?'
p380
tp381
Rp382
aF0.03757500648498535
aI250
aS'kernel = 1 degree'
p383
aa(lp384
g4
(g8
S'sh\x91\xed|?\xe5?'
p385
tp386
Rp387
ag4
(g8
S'\x82D+l\x0e$\xda?'
p388
tp389
Rp390
aF0.04604315757751465
aI250
aS'kernel = 1 degree'
p391
ag4
(g8
S'w\xbe\x9f\x1a/\xdd\xe4?'
p392
tp393
Rp394
ag4
(g8
S'\x9a\x99\x99\x99\x99\x99\xd9?'
p395
tp396
Rp397
aF0.03211092948913574
aI250
aS'kernel = 1 degree'
p398
ag4
(g8
S'ffffff\xe6?'
p399
tp400
Rp401
ag4
(g8
S'\x8e\xbe9\xfa\xe6\xe8\xdb?'
p402
tp403
Rp404
aF0.03327798843383789
aI250
aS'kernel = 1 degree'
p405
aa(lp406
g4
(g8
S'\x10X9\xb4\xc8v\xde?'
p407
tp408
Rp409
ag4
(g8
S';\xd3\xb8\x81Qg\xda?'
p410
tp411
Rp412
aF0.03534507751464844
aI250
aS'kernel = 1 degree'
p413
ag4
(g8
S'\xb6\xf3\xfd\xd4x\xe9\xe6?'
p414
tp415
Rp416
ag4
(g8
S'\xfdd\tl\xdaO\xd6?'
p417
tp418
Rp419
aF0.10439419746398926
aI250
aS'kernel = 1 degree'
p420
ag4
(g8
S'{\x14\xaeG\xe1z\xe4?'
p421
tp422
Rp423
ag4
(g8
S'\xf9\xedRO\xc6o\xd7?'
p424
tp425
Rp426
aF0.09796309471130371
aI250
aS'kernel = 1 degree'
p427
aa(lp428
g4
(g8
S'\xc3\xf5(\\\x8f\xc2\xe5?'
p429
tp430
Rp431
ag4
(g8
S'\xe1\xe5\x14\xbc\x9c\x82\xc7?'
p432
tp433
Rp434
aF0.12468695640563965
aI250
aS'kernel = 1 degree'
p435
ag4
(g8
S'+\x87\x16\xd9\xce\xf7\xe3?'
p436
tp437
Rp438
ag4
(g8
S'\xfa\xcd\xd6\xa1\xdfl\xdd?'
p439
tp440
Rp441
aF0.11424612998962402
aI250
aS'kernel = 1 degree'
p442
ag4
(g8
S'{\x14\xaeG\xe1z\xe4?'
p443
tp444
Rp445
ag4
(g8
S';\xda\xbcOq\xc9\xd0?'
p446
tp447
Rp448
aF0.09857392311096191
aI250
aS'kernel = 1 degree'
p449
aa(lp450
g4
(g8
S'j\xbct\x93\x18\x04\xe6?'
p451
tp452
Rp453
ag4
(g8
S'\xa9\t\xc6[\xd9\xe7\xd0?'
p454
tp455
Rp456
aF0.1200711727142334
aI250
aS'kernel = 1 degree'
p457
ag4
(g8
S'\xbe\x9f\x1a/\xdd$\xe6?'
p458
tp459
Rp460
ag4
(g8
S'\x12\x11\x11\x11\x11\x11\xd1?'
p461
tp462
Rp463
aF0.1250009536743164
aI250
aS'kernel = 0 degree'
p464
ag4
(g8
S'\xd3Mb\x10X9\xe4?'
p465
tp466
Rp467
ag4
(g8
S"\x9f\x10g\xe5'\xc4\xd9?"
p468
tp469
Rp470
aF0.06053519248962402
aI250
aS'kernel = 1 degree'
p471
aa(lp472
g4
(g8
S'\xc7K7\x89A`\xe5?'
p473
tp474
Rp475
ag4
(g8
S' \x99@\xef\xd4\xb5\xcc?'
p476
tp477
Rp478
aF0.15235304832458496
aI250
aS'kernel = 1 degree'
p479
ag4
(g8
S'\xcb\xa1E\xb6\xf3\xfd\xe4?'
p480
tp481
Rp482
ag4
(g8
S']t\xd1E\x17]\xe0?'
p483
tp484
Rp485
aF0.13245797157287598
aI250
aS'kernel = 1 degree'
p486
ag4
(g8
S'\x8f\xc2\xf5(\\\x8f\xe2?'
p487
tp488
Rp489
ag4
(g8
S'\xda\xe7\x90\x9a`\xbc\xd5?'
p490
tp491
Rp492
aF0.09893178939819336
aI250
aS'kernel = 1 degree'
p493
aa(lp494
g4
(g8
S'\x8bl\xe7\xfb\xa9\xf1\xe2?'
p495
tp496
Rp497
ag4
(g8
S'\xba\xbb\xbb\xbb\xbb\xbb\xdb?'
p498
tp499
Rp500
aF0.12113785743713379
aI250
aS'kernel = 1 degree'
p501
ag4
(g8
S'\x1f\x85\xebQ\xb8\x1e\xe5?'
p502
tp503
Rp504
ag4
(g8
S'\x077\xfb\x85XQ\xca?'
p505
tp506
Rp507
aF0.20443105697631836
aI250
aS'kernel = 1 degree'
p508
ag4
(g8
S'\x17\xd9\xce\xf7S\xe3\xe5?'
p509
tp510
Rp511
ag4
(g8
S')&\xe8\xaeRL\xe0?'
p512
tp513
Rp514
aF0.10252499580383301
aI250
aS'kernel = 1 degree'
p515
aa(lp516
g4
(g8
S'\xfa~j\xbct\x93\xe8?'
p517
tp518
Rp519
ag4
(g8
S'!5\xc1x+\xfb\xdc?'
p520
tp521
Rp522
aF0.12443900108337402
aI250
aS'kernel = 1 degree'
p523
ag4
(g8
S'\xb6\xf3\xfd\xd4x\xe9\xe6?'
p524
tp525
Rp526
ag4
(g8
S'\x9a\x92)\x99\x92)\xd9?'
p527
tp528
Rp529
aF0.12836194038391113
aI250
aS'kernel = 1 degree'
p530
ag4
(g8
S'Zd;\xdfO\x8d\xe7?'
p531
tp532
Rp533
ag4
(g8
S'\x00\x00\x00\x00\x00\x00\xe0?'
p534
tp535
Rp536
aF0.10846590995788574
aI250
aS'kernel = 0 degree'
p537
aa(lp538
g4
(g8
S'o\x12\x83\xc0\xca\xa1\xe5?'
p539
tp540
Rp541
ag4
(g8
S'\x95\xddo\x94\xddo\xd4?'
p542
tp543
Rp544
aF0.06385302543640137
aI250
aS'kernel = 1 degree'
p545
ag4
(g8
S'{\x14\xaeG\xe1z\xe4?'
p546
tp547
Rp548
ag4
(g8
S'\xb7m\xdb\xb6m\xdb\xd6?'
p549
tp550
Rp551
aF0.12032294273376465
aI250
aS'kernel = 1 degree'
p552
ag4
(g8
S'\x1f\x85\xebQ\xb8\x1e\xe5?'
p553
tp554
Rp555
ag4
(g8
S'Q\xed9\x99\xbeJ\xd8?'
p556
tp557
Rp558
aF0.09610795974731445
aI250
aS'kernel = 1 degree'
p559
aa(lp560
g4
(g8
S'\xbe\x9f\x1a/\xdd$\xe6?'
p561
tp562
Rp563
ag4
(g8
S's\xc6\x9c1g\xcc\xd9?'
p564
tp565
Rp566
aF0.10815596580505371
aI250
aS'kernel = 1 degree'
p567
ag4
(g8
S'j\xbct\x93\x18\x04\xe6?'
p568
tp569
Rp570
ag4
(g8
S'\xa9\t\xc6[\xd9\xe7\xd0?'
p571
tp572
Rp573
aF0.056179046630859375
aI250
aS'kernel = 1 degree'
p574
ag4
(g8
S'\xc7K7\x89A`\xe5?'
p575
tp576
Rp577
ag4
(g8
S'\xce\x9f\xe5\xfcY\xce\xdf?'
p578
tp579
Rp580
aF0.08188199996948242
aI250
aS'kernel = 1 degree'
p581
aa(lp582
g4
(g8
S'\xb6\xf3\xfd\xd4x\xe9\xe6?'
p583
tp584
Rp585
ag4
(g8
S"\x91i\xd8n\x96'\xd1?"
p586
tp587
Rp588
aF0.10034584999084473
aI250
aS'kernel = 1 degree'
p589
ag4
(g8
S'333333\xe3?'
p590
tp591
Rp592
ag4
(g8
S'{\x9e\xe7y\x9e\xe7\xd9?'
p593
tp594
Rp595
aF0.13636398315429688
aI250
aS'kernel = 1 degree'
p596
ag4
(g8
S'/\xdd$\x06\x81\x95\xe3?'
p597
tp598
Rp599
ag4
(g8
S'a\x1a\x03\xa61`\xda?'
p600
tp601
Rp602
aF0.08774495124816895
aI250
aS'kernel = 1 degree'
p603
aa(lp604
g4
(g8
S'{\x14\xaeG\xe1z\xe4?'
p605
tp606
Rp607
ag4
(g8
S'\x13;\xb1\x13;\xb1\xd3?'
p608
tp609
Rp610
aF0.12616300582885742
aI250
aS'kernel = 1 degree'
p611
ag4
(g8
S'ffffff\xe6?'
p612
tp613
Rp614
ag4
(g8
S'\x16\xf3\xa9\x17\xf3\xa9\xd7?'
p615
tp616
Rp617
aF0.12045812606811523
aI250
aS'kernel = 1 degree'
p618
ag4
(g8
S'j\xbct\x93\x18\x04\xe6?'
p619
tp620
Rp621
ag4
(g8
S'LKKKKK\xdb?'
p622
tp623
Rp624
aF0.10768008232116699
aI250
aS'kernel = 1 degree'
p625
aa(lp626
g4
(g8
S'\xbaI\x0c\x02+\x87\xe6?'
p627
tp628
Rp629
ag4
(g8
S'\xd7\x87\xc6\xfa\xd0X\xcf?'
p630
tp631
Rp632
aF0.11417007446289062
aI250
aS'kernel = 1 degree'
p633
ag4
(g8
S'\x0e-\xb2\x9d\xef\xa7\xe6?'
p634
tp635
Rp636
ag4
(g8
S'z;Cb\xde\xce\xd0?'
p637
tp638
Rp639
aF0.09238100051879883
aI250
aS'kernel = 1 degree'
p640
ag4
(g8
S'\x0e-\xb2\x9d\xef\xa7\xe6?'
p641
tp642
Rp643
ag4
(g8
S'7Ls\x17\xfcU\xdc?'
p644
tp645
Rp646
aF0.11639595031738281
aI250
aS'kernel = 1 degree'
p647
aa(lp648
g4
(g8
S'\xf4\xfd\xd4x\xe9&\xe1?'
p649
tp650
Rp651
ag4
(g8
S'"5\xc1x+\xfb\xdc?'
p652
tp653
Rp654
aF0.12737298011779785
aI250
aS'kernel = 1 degree'
p655
ag4
(g8
S'\x00\x00\x00\x00\x00\x00\xe0?'
p656
tp657
Rp658
ag4
(g8
S'#*\xc86\x04\x14\xdf?'
p659
tp660
Rp661
aF0.18837690353393555
aI250
aS'kernel = 1 degree'
p662
ag4
(g8
S'\xc3\xf5(\\\x8f\xc2\xe5?'
p663
tp664
Rp665
ag4
(g8
S'`\x1e[\x114\x9c\xd4?'
p666
tp667
Rp668
aF0.0874478816986084
aI250
aS'kernel = 0 degree'
p669
aa(lp670
g4
(g8
S'X9\xb4\xc8v\xbe\xdf?'
p671
tp672
Rp673
ag4
(g8
S'\x1e\x1e\x1e\x1e\x1e\x1e\xde?'
p674
tp675
Rp676
aF0.11648392677307129
aI250
aS'kernel = 1 degree'
p677
ag4
(g8
S'\xb6\xf3\xfd\xd4x\xe9\xe6?'
p678
tp679
Rp680
ag4
(g8
S'\x95K\xb9\x94K\xb9\xd4?'
p681
tp682
Rp683
aF0.1523590087890625
aI250
aS'kernel = 1 degree'
p684
ag4
(g8
S'{\x14\xaeG\xe1z\xe4?'
p685
tp686
Rp687
ag4
(g8
S'd!\x0bY\xc8B\xd6?'
p688
tp689
Rp690
aF0.10039782524108887
aI250
aS'kernel = 1 degree'
p691
aa(lp692
g4
(g8
S'\xbaI\x0c\x02+\x87\xe6?'
p693
tp694
Rp695
ag4
(g8
S'\x1c\xb9\x91\x1b\xb9\x91\xdb?'
p696
tp697
Rp698
aF0.11276388168334961
aI250
aS'kernel = 1 degree'
p699
ag4
(g8
S'\x06\x81\x95C\x8bl\xe7?'
p700
tp701
Rp702
ag4
(g8
S'\x91\x8a\xb9\xd5\x19\xa9\xd8?'
p703
tp704
Rp705
aF0.09239697456359863
aI250
aS'kernel = 0 degree'
p706
ag4
(g8
S'sh\x91\xed|?\xe5?'
p707
tp708
Rp709
ag4
(g8
S'\xda\xb2e\xcb\x96-\xdb?'
p710
tp711
Rp712
aF0.07913994789123535
aI250
aS'kernel = 1 degree'
p713
aa(lp714
g4
(g8
S'\xc3\xf5(\\\x8f\xc2\xe5?'
p715
tp716
Rp717
ag4
(g8
S'\xe1\xe5\x14\xbc\x9c\x82\xc7?'
p718
tp719
Rp720
aF0.14725708961486816
aI250
aS'kernel = 1 degree'
p721
ag4
(g8
S'\n\xd7\xa3p=\n\xe7?'
p722
tp723
Rp724
ag4
(g8
S'\x9f\xe2\x92!XG\xdb?'
p725
tp726
Rp727
aF0.12030696868896484
aI250
aS'kernel = 1 degree'
p728
ag4
(g8
S'\x1f\x85\xebQ\xb8\x1e\xe5?'
p729
tp730
Rp731
ag4
(g8
S'\x1a\x86a\x18\x86a\xc8?'
p732
tp733
Rp734
aF0.08476901054382324
aI250
aS'kernel = 1 degree'
p735
aa(lp736
g4
(g8
S'\xb6\xf3\xfd\xd4x\xe9\xe6?'
p737
tp738
Rp739
ag4
(g8
S"\x91i\xd8n\x96'\xd1?"
p740
tp741
Rp742
aF0.14039111137390137
aI250
aS'kernel = 1 degree'
p743
ag4
(g8
S'b\x10X9\xb4\xc8\xe6?'
p744
tp745
Rp746
ag4
(g8
S'\xb7m\xdb\xb6m\xdb\xd6?'
p747
tp748
Rp749
aF0.11662411689758301
aI250
aS'kernel = 0 degree'
p750
ag4
(g8
S'ffffff\xe6?'
p751
tp752
Rp753
ag4
(g8
S'\x9a\x99\x99\x99\x99\x99\xd9?'
p754
tp755
Rp756
aF0.09642291069030762
aI250
aS'kernel = 1 degree'
p757
aa(lp758
g4
(g8
S'V\x0e-\xb2\x9d\xef\xe7?'
p759
tp760
Rp761
ag4
(g8
S'\x90\x90\x90\x90\x90\x90\xd0?'
p762
tp763
Rp764
aF0.06210017204284668
aI250
aS'kernel = 1 degree'
p765
ag4
(g8
S'\n\xd7\xa3p=\n\xe7?'
p766
tp767
Rp768
ag4
(g8
S'\x92$I\x92$I\xd2?'
p769
tp770
Rp771
aF0.05916190147399902
aI250
aS'kernel = 1 degree'
p772
ag4
(g8
S'Zd;\xdfO\x8d\xe7?'
p773
tp774
Rp775
ag4
(g8
S'(\xaf\xa1\xbc\x86\xf2\xda?'
p776
tp777
Rp778
aF0.12053084373474121
aI250
aS'kernel = 0 degree'
p779
aa(lp780
g4
(g8
S'\xfa~j\xbct\x93\xe8?'
p781
tp782
Rp783
ag4
(g8
S'!5\xc1x+\xfb\xdc?'
p784
tp785
Rp786
aF0.1403799057006836
aI250
aS'kernel = 1 degree'
p787
ag4
(g8
S'\xb2\x9d\xef\xa7\xc6K\xe7?'
p788
tp789
Rp790
ag4
(g8
S'a\xb9\xa7\x11\x96{\xda?'
p791
tp792
Rp793
aF0.07086515426635742
aI250
aS'kernel = 1 degree'
p794
ag4
(g8
S'\xa6\x9b\xc4 \xb0r\xe8?'
p795
tp796
Rp797
ag4
(g8
S'\xde\x1c}s\xf4\xcd\xe1?'
p798
tp799
Rp800
aF0.11234307289123535
aI250
aS'kernel = 0 degree'
p801
aa(lp802
g4
(g8
S'\xbaI\x0c\x02+\x87\xe6?'
p803
tp804
Rp805
ag4
(g8
S'l\xd4w6\xea;\xcb?'
p806
tp807
Rp808
aF0.06138491630554199
aI250
aS'kernel = 1 degree'
p809
ag4
(g8
S'\n\xd7\xa3p=\n\xe7?'
p810
tp811
Rp812
ag4
(g8
S'AL\xae &W\xd0?'
p813
tp814
Rp815
aF0.11243605613708496
aI250
aS'kernel = 1 degree'
p816
ag4
(g8
S'\xb6\xf3\xfd\xd4x\xe9\xe6?'
p817
tp818
Rp819
ag4
(g8
S'\xd83\x10\x95\x8e\xec\xb9?'
p820
tp821
Rp822
aF0.08106207847595215
aI250
aS'kernel = 0 degree'
p823
aa(lp824
g4
(g8
S'\xecQ\xb8\x1e\x85\xeb\xe1?'
p825
tp826
Rp827
ag4
(g8
S'\x00\x00\x00\x00\x00\x00\xd4?'
p828
tp829
Rp830
aF0.12429404258728027
aI250
aS'kernel = 1 degree'
p831
ag4
(g8
S'\xdfO\x8d\x97n\x12\xe3?'
p832
tp833
Rp834
ag4
(g8
S'\xe91\x7f\xaf\x8dX\xd7?'
p835
tp836
Rp837
aF0.09650802612304688
aI250
aS'kernel = 1 degree'
p838
ag4
(g8
S'/\xdd$\x06\x81\x95\xe3?'
p839
tp840
Rp841
ag4
(g8
S'\xd1\xc8;\x7f\x8b\xd3\xda?'
p842
tp843
Rp844
aF0.08027005195617676
aI250
aS'kernel = 1 degree'
p845
aa(lp846
g4
(g8
S'\xfa~j\xbct\x93\xe8?'
p847
tp848
Rp849
ag4
(g8
S'!5\xc1x+\xfb\xdc?'
p850
tp851
Rp852
aF0.08693480491638184
aI250
aS'kernel = 1 degree'
p853
ag4
(g8
S'\xc1\xca\xa1E\xb6\xf3\xdd?'
p854
tp855
Rp856
ag4
(g8
S'G\x17]t\xd1E\xd7?'
p857
tp858
Rp859
aF0.1264181137084961
aI250
aS'kernel = 1 degree'
p860
ag4
(g8
S'\xa6\x9b\xc4 \xb0r\xe8?'
p861
tp862
Rp863
ag4
(g8
S'\x9f\xfb\xb9\x9f\xfb\xb9\xdf?'
p864
tp865
Rp866
aF0.0718989372253418
aI250
aS'kernel = 1 degree'
p867
aa(lp868
g4
(g8
S')\\\x8f\xc2\xf5(\xdc?'
p869
tp870
Rp871
ag4
(g8
S'\x93\xba/\x8f\xad\x08\xda?'
p872
tp873
Rp874
aF0.12436103820800781
aI250
aS'kernel = 1 degree'
p875
ag4
(g8
S'\x98n\x12\x83\xc0\xca\xe1?'
p876
tp877
Rp878
ag4
(g8
S'\x02\x1aw\xeb\xbc\x02\xda?'
p879
tp880
Rp881
aF0.09637999534606934
aI250
aS'kernel = 1 degree'
p882
ag4
(g8
S'\x17\xd9\xce\xf7S\xe3\xe5?'
p883
tp884
Rp885
ag4
(g8
S'\x16:\x83\x15:\x83\xd5?'
p886
tp887
Rp888
aF0.050924062728881836
aI250
aS'kernel = 1 degree'
p889
aa(lp890
g4
(g8
S'j\xbct\x93\x18\x04\xe6?'
p891
tp892
Rp893
ag4
(g8
S'r\x1c\xc7q\x1c\xc7\xd1?'
p894
tp895
Rp896
aF0.09773492813110352
aI250
aS'kernel = 1 degree'
p897
ag4
(g8
S'\x0e-\xb2\x9d\xef\xa7\xe6?'
p898
tp899
Rp900
ag4
(g8
S':\xb4\xc8v\xbe\x9f\xda?'
p901
tp902
Rp903
aF0.06896209716796875
aI250
aS'kernel = 1 degree'
p904
ag4
(g8
S'\xbaI\x0c\x02+\x87\xe6?'
p905
tp906
Rp907
ag4
(g8
S'\x92\x91\x91\x91\x91\x91\xd1?'
p908
tp909
Rp910
aF0.055722951889038086
aI250
aS'kernel = 0 degree'
p911
aa(lp912
g4
(g8
S'\x12\x83\xc0\xca\xa1E\xe6?'
p913
tp914
Rp915
ag4
(g8
S'\xb8\x1e\x85\xebQ\xb8\xce?'
p916
tp917
Rp918
aF0.08837699890136719
aI250
aS'kernel = 1 degree'
p919
ag4
(g8
S'\x02+\x87\x16\xd9\xce\xe7?'
p920
tp921
Rp922
ag4
(g8
S'\xd5\x08\xcb=\x8d\xb0\xdc?'
p923
tp924
Rp925
aF0.05501580238342285
aI250
aS'kernel = 1 degree'
p926
ag4
(g8
S'/\xdd$\x06\x81\x95\xe3?'
p927
tp928
Rp929
ag4
(g8
S'Q\xa6\xe2\xb9fu\xd8?'
p930
tp931
Rp932
aF0.08040213584899902
aI250
aS'kernel = 1 degree'
p933
aa(lp934
g4
(g8
S'\x93\x18\x04V\x0e-\xe2?'
p935
tp936
Rp937
ag4
(g8
S'XWWWWW\xd7?'
p938
tp939
Rp940
aF0.1042330265045166
aI250
aS'kernel = 1 degree'
p941
ag4
(g8
S'7\x89A`\xe5\xd0\xe2?'
p942
tp943
Rp944
ag4
(g8
S'=\xd2_\xcfU,\xdb?'
p945
tp946
Rp947
aF0.10498809814453125
aI250
aS'kernel = 1 degree'
p948
ag4
(g8
S'\xcb\xa1E\xb6\xf3\xfd\xe4?'
p949
tp950
Rp951
ag4
(g8
S'\x96Z\xa9\x95Z\xa9\xd5?'
p952
tp953
Rp954
aF0.07640385627746582
aI250
aS'kernel = 0 degree'
p955
aa(lp956
g4
(g8
S'\xc7K7\x89A`\xe5?'
p957
tp958
Rp959
ag4
(g8
S'B\xd3\x1d\xec\xb7\xda\xc8?'
p960
tp961
Rp962
aF0.09643006324768066
aI250
aS'kernel = 1 degree'
p963
ag4
(g8
S'\x17\xd9\xce\xf7S\xe3\xe5?'
p964
tp965
Rp966
ag4
(g8
S'\x1f\xfb\xb1\x1f\xfb\xb1\xcf?'
p967
tp968
Rp969
aF0.06994199752807617
aI250
aS'kernel = 0 degree'
p970
ag4
(g8
S'\xcf\xf7S\xe3\xa5\x9b\xe4?'
p971
tp972
Rp973
ag4
(g8
S'\x1f\xea\xa1\x1e\xea\xa1\xce?'
p974
tp975
Rp976
aF0.06443095207214355
aI250
aS'kernel = 0 degree'
p977
aa(lp978
g4
(g8
S'^\xbaI\x0c\x02+\xe7?'
p979
tp980
Rp981
ag4
(g8
S' \xef\xf1\x1e\xef\xf1\xce?'
p982
tp983
Rp984
aF0.09636497497558594
aI250
aS'kernel = 1 degree'
p985
ag4
(g8
S'\xdb\xf9~j\xbct\xe3?'
p986
tp987
Rp988
ag4
(g8
S'(\xf13J\xfc\x8c\xd2?'
p989
tp990
Rp991
aF0.060920000076293945
aI250
aS'kernel = 1 degree'
p992
ag4
(g8
S'\xe3\xa5\x9b\xc4 \xb0\xe2?'
p993
tp994
Rp995
ag4
(g8
S'\x0c\x94\xf0FS\xe7\xd7?'
p996
tp997
Rp998
aF0.06997108459472656
aI250
aS'kernel = 1 degree'
p999
aa(lp1000
g4
(g8
S'\xb2\x9d\xef\xa7\xc6K\xe7?'
p1001
tp1002
Rp1003
ag4
(g8
S'\xaa\xaa\xaa\xaa\xaa\xaa\xd2?'
p1004
tp1005
Rp1006
aF0.07155895233154297
aI250
aS'kernel = 1 degree'
p1007
ag4
(g8
S'\x1f\x85\xebQ\xb8\x1e\xe5?'
p1008
tp1009
Rp1010
ag4
(g8
S'Ke{\xd7\x01\xdd\xd8?'
p1011
tp1012
Rp1013
aF0.07132792472839355
aI250
aS'kernel = 1 degree'
p1014
ag4
(g8
S'\xbe\x9f\x1a/\xdd$\xe6?'
p1015
tp1016
Rp1017
ag4
(g8
S'L&\x93\xc9d2\xd9?'
p1018
tp1019
Rp1020
aF0.05529308319091797
aI250
aS'kernel = 1 degree'
p1021
aa(lp1022
g4
(g8
S'{\x14\xaeG\xe1z\xd4?'
p1023
tp1024
Rp1025
ag4
(g8
S'a\xb9\xa7\x11\x96{\xda?'
p1026
tp1027
Rp1028
aF0.07778310775756836
aI250
aS'kernel = 1 degree'
p1029
ag4
(g8
S'\xaeG\xe1z\x14\xae\xe7?'
p1030
tp1031
Rp1032
ag4
(g8
S'F\x13M4\xd1D\xd3?'
p1033
tp1034
Rp1035
aF0.08058381080627441
aI250
aS'kernel = 1 degree'
p1036
ag4
(g8
S'\x12\x83\xc0\xca\xa1E\xe6?'
p1037
tp1038
Rp1039
ag4
(g8
S'br\x051\xb9\x82\xc8?'
p1040
tp1041
Rp1042
aF0.056919097900390625
aI250
aS'kernel = 1 degree'
p1043
aa(lp1044
g4
(g8
S'o\x12\x83\xc0\xca\xa1\xe5?'
p1045
tp1046
Rp1047
ag4
(g8
S'\x95\xddo\x94\xddo\xd4?'
p1048
tp1049
Rp1050
aF0.06898307800292969
aI250
aS'kernel = 1 degree'
p1051
ag4
(g8
S'\x1f\x85\xebQ\xb8\x1e\xe5?'
p1052
tp1053
Rp1054
ag4
(g8
S'"pc\x19\x94\n\xd3?'
p1055
tp1056
Rp1057
aF0.056691884994506836
aI250
aS'kernel = 1 degree'
p1058
ag4
(g8
S'\xbe\x9f\x1a/\xdd$\xe6?'
p1059
tp1060
Rp1061
ag4
(g8
S'M&\x93\xc9d2\xd9?'
p1062
tp1063
Rp1064
aF0.0635519027709961
aI250
aS'kernel = 1 degree'
p1065
aa(lp1066
g4
(g8
S'\x0e-\xb2\x9d\xef\xa7\xe6?'
p1067
tp1068
Rp1069
ag4
(g8
S'\xcef\xb3\xd9l6\xdb?'
p1070
tp1071
Rp1072
aF0.0883791446685791
aI250
aS'kernel = 1 degree'
p1073
ag4
(g8
S'b\x10X9\xb4\xc8\xe6?'
p1074
tp1075
Rp1076
ag4
(g8
S'\xff\xff\xff\xff\xff\xff\xdb?'
p1077
tp1078
Rp1079
aF0.054913997650146484
aI250
aS'kernel = 1 degree'
p1080
ag4
(g8
S'\xcb\xa1E\xb6\xf3\xfd\xe4?'
p1081
tp1082
Rp1083
ag4
(g8
S'\xa1\xbc\x86\xf2\x1a\xca\xdb?'
p1084
tp1085
Rp1086
aF0.07618498802185059
aI250
aS'kernel = 1 degree'
p1087
aa(lp1088
g4
(g8
S'sh\x91\xed|?\xe5?'
p1089
tp1090
Rp1091
ag4
(g8
S'\x82D+l\x0e$\xda?'
p1092
tp1093
Rp1094
aF0.066680908203125
aI250
aS'kernel = 1 degree'
p1095
ag4
(g8
S'V\x0e-\xb2\x9d\xef\xe7?'
p1096
tp1097
Rp1098
ag4
(g8
S'\xd0\xba\xc1\x14\xf9\xac\xdb?'
p1099
tp1100
Rp1101
aF0.0633401870727539
aI250
aS'kernel = 0 degree'
p1102
ag4
(g8
S'\x1b/\xdd$\x06\x81\xe5?'
p1103
tp1104
Rp1105
ag4
(g8
S'DDDDDD\xd4?'
p1106
tp1107
Rp1108
aF0.0623319149017334
aI250
aS'kernel = 1 degree'
p1109
aas.