(dp0
S'segment'
p1
(lp2
(lp3
cnumpy.core.multiarray
scalar
p4
(cnumpy
dtype
p5
(S'f8'
p6
I0
I1
tp7
Rp8
(I3
S'<'
p9
NNNI-1
I-1
I0
tp10
bS'\x8dA\xf6\xaa_\x14\xe9?'
p11
tp12
Rp13
ag4
(g8
S'\xc0z>AV\\\xe7?'
p14
tp15
Rp16
aF0.06685805320739746
aI578
aS'kernel = 1 degree'
p17
ag4
(g8
S'\xce7\xa1\nt\xdd\xe6?'
p18
tp19
Rp20
ag4
(g8
S'%N\xfd\x9e[\xe2\xe4?'
p21
tp22
Rp23
aF0.057431936264038086
aI578
aS'kernel = 1 degree'
p24
ag4
(g8
S']\xb7\x11l\xc6 \xeb?'
p25
tp26
Rp27
ag4
(g8
S'\xd4Bw\xecjX\xea?'
p28
tp29
Rp30
aF0.050276994705200195
aI578
aS'kernel = 1 degree'
p31
aa(lp32
g4
(g8
S':\xdf\x84*\xd0u\xeb?'
p33
tp34
Rp35
ag4
(g8
S'\xa2\xf2\xb4\xd0\x1d\xbb\xea?'
p36
tp37
Rp38
aF0.06673312187194824
aI578
aS'kernel = 1 degree'
p39
ag4
(g8
S'\x90\x9e\xad\xbc\xcb\xda\xe9?'
p40
tp41
Rp42
ag4
(g8
S'~\x83\xab\x86\xa4/\xe7?'
p43
tp44
Rp45
aF0.05688309669494629
aI578
aS'kernel = 1 degree'
p46
ag4
(g8
S'\xcd\xf9&T\x81\xae\xeb?'
p47
tp48
Rp49
ag4
(g8
S'O\x9b\x81\xe9:\xc7\xea?'
p50
tp51
Rp52
aF0.047091007232666016
aI578
aS'kernel = 1 degree'
p53
aa(lp54
g4
(g8
S'\xb7\x11l\xc6 {\xe5?'
p55
tp56
Rp57
ag4
(g8
S'\xd0(\xf13J\xfc\xe4?'
p58
tp59
Rp60
aF0.04869389533996582
aI578
aS'kernel = 1 degree'
p61
ag4
(g8
S'I\xee\x939\xdf\x84\xea?'
p62
tp63
Rp64
ag4
(g8
S'\x0b?\x1f\xbd]7\xe9?'
p65
tp66
Rp67
aF0.05847907066345215
aI578
aS'kernel = 1 degree'
p68
ag4
(g8
S'\x04\x9b1\xc8^\xf5\xeb?'
p69
tp70
Rp71
ag4
(g8
S'C\x9d\xcd\xf4\x19[\xeb?'
p72
tp73
Rp74
aF0.05295109748840332
aI578
aS'kernel = 1 degree'
p75
aa(lp76
g4
(g8
S'`\x14\xc9}2\xe7\xeb?'
p77
tp78
Rp79
ag4
(g8
S'][[[[[\xeb?'
p80
tp81
Rp82
aF0.047165870666503906
aI578
aS'kernel = 1 degree'
p83
ag4
(g8
S'\xfa&T\x81\xae\xdb\xe8?'
p84
tp85
Rp86
ag4
(g8
S'\xafvA%\xfaj\xe7?'
p87
tp88
Rp89
aF0.05378293991088867
aI578
aS'kernel = 1 degree'
p90
ag4
(g8
S'\xcd\xf9&T\x81\xae\xeb?'
p91
tp92
Rp93
ag4
(g8
S'\xc6b\xb1X,\x16\xeb?'
p94
tp95
Rp96
aF0.051162004470825195
aI578
aS'kernel = 1 degree'
p97
aa(lp98
g4
(g8
S'7\x82\xcd\x18d\xaf\xea?'
p99
tp100
Rp101
ag4
(g8
S'\xf9\xd4\x8b\xf9\xd4\x8b\xe9?'
p102
tp103
Rp104
aF0.07568907737731934
aI578
aS'kernel = 1 degree'
p105
ag4
(g8
S'\xa1\nt\xddF\xb0\xe9?'
p106
tp107
Rp108
ag4
(g8
S'S\x8f%\x9e \xf5\xe8?'
p109
tp110
Rp111
aF0.04262399673461914
aI578
aS'kernel = 1 degree'
p112
ag4
(g8
S'\xcd\xf9&T\x81\xae\xeb?'
p113
tp114
Rp115
ag4
(g8
S'~X\xa4\x0c<\xdd\xea?'
p116
tp117
Rp118
aF0.052494049072265625
aI578
aS'kernel = 1 degree'
p119
aa(lp120
g4
(g8
S'#\xb9O\xe6|\x13\xea?'
p121
tp122
Rp123
ag4
(g8
S'\xec`%R\xcf/\xea?'
p124
tp125
Rp126
aF0.05741596221923828
aI578
aS'kernel = 1 degree'
p127
ag4
(g8
S'\xdc\x086c\x90\xbd\xea?'
p128
tp129
Rp130
ag4
(g8
S'\xafB]\xd8pv\xea?'
p131
tp132
Rp133
aF0.05807089805603027
aI578
aS'kernel = 1 degree'
p134
ag4
(g8
S'\xf0\xd1\xb3\x95wY\xeb?'
p135
tp136
Rp137
ag4
(g8
S'\xba\xba\xba\xba\xba\xba\xea?'
p138
tp139
Rp140
aF0.05008697509765625
aI578
aS'kernel = 1 degree'
p141
aa(lp142
g4
(g8
S'\xff\xe0\xc2\xa4\x86h\xea?'
p143
tp144
Rp145
ag4
(g8
S'\x9d|\xf3G\xe2j\xe9?'
p146
tp147
Rp148
aF0.05897092819213867
aI578
aS'kernel = 1 degree'
p149
ag4
(g8
S'\xf0\xd1\xb3\x95wY\xeb?'
p150
tp151
Rp152
ag4
(g8
S'\xb3b\xa0\x847\x9a\xea?'
p153
tp154
Rp155
aF0.053843021392822266
aI578
aS'kernel = 1 degree'
p156
ag4
(g8
S'\xedt\xfc\x83\x0b\x93\xea?'
p157
tp158
Rp159
ag4
(g8
S'\x12\xb8\xb1\x0cJ\x85\xe9?'
p160
tp161
Rp162
aF0.052577972412109375
aI578
aS'kernel = 1 degree'
p163
aa(lp164
g4
(g8
S'\x80\x8f\x9e\xad\xbc\xcb\xea?'
p165
tp166
Rp167
ag4
(g8
S'\x15\xbc\x9c\x82\x97S\xe8?'
p168
tp169
Rp170
aF0.05785179138183594
aI578
aS'kernel = 1 degree'
p171
ag4
(g8
S'7\x82\xcd\x18d\xaf\xea?'
p172
tp173
Rp174
ag4
(g8
S'\xfa\x96o\xf9\x96o\xe9?'
p175
tp176
Rp177
aF0.058569908142089844
aI578
aS'kernel = 1 degree'
p178
ag4
(g8
S'%\x16\x07\xf8\xe8\xd9\xea?'
p179
tp180
Rp181
ag4
(g8
S'\x02\xa1\xe4N\xd1\xc2\xe9?'
p182
tp183
Rp184
aF0.04880714416503906
aI578
aS'kernel = 1 degree'
p185
aa(lp186
g4
(g8
S'\x04\x9b1\xc8^\xf5\xeb?'
p187
tp188
Rp189
ag4
(g8
S'@\x80\x99\xc2K{\xeb?'
p190
tp191
Rp192
aF0.06189298629760742
aI578
aS'kernel = 1 degree'
p193
ag4
(g8
S'o#\xd8\x8cA\xf6\xea?'
p194
tp195
Rp196
ag4
(g8
S'\xd3\xa4I\x93&M\xea?'
p197
tp198
Rp199
aF0.04990100860595703
aI578
aS'kernel = 1 degree'
p200
ag4
(g8
S'\x80\x8f\x9e\xad\xbc\xcb\xea?'
p201
tp202
Rp203
ag4
(g8
S'\xe7\xfa\xfe2\n\x02\xea?'
p204
tp205
Rp206
aF0.05173516273498535
aI578
aS'kernel = 1 degree'
p207
aa(lp208
g4
(g8
S'X\xfd\xa2H\xee\x93\xe9?'
p209
tp210
Rp211
ag4
(g8
S'.-----\xe9?'
p212
tp213
Rp214
aF0.0736231803894043
aI578
aS'kernel = 1 degree'
p215
ag4
(g8
S'\x8a\xe4>\x99\xf3M\xe8?'
p216
tp217
Rp218
ag4
(g8
S'\xeaB\\\x1a,1\xe7?'
p219
tp220
Rp221
aF0.05918097496032715
aI578
aS'kernel = 1 degree'
p222
ag4
(g8
S"F\x91\xdc's\xbe\xe9?"
p223
tp224
Rp225
ag4
(g8
S'ks\xf7U\x91J\xe9?'
p226
tp227
Rp228
aF0.05144190788269043
aI578
aS'kernel = 1 degree'
p229
aa(lp230
g4
(g8
S'I\xee\x939\xdf\x84\xea?'
p231
tp232
Rp233
ag4
(g8
S'\x8c\xb4\xea}pE\xea?'
p234
tp235
Rp236
aF0.060153961181640625
aI578
aS'kernel = 1 degree'
p237
ag4
(g8
S'\x83\xecU\xbf(\x92\xeb?'
p238
tp239
Rp240
ag4
(g8
S'\\[ \xd6\xdb=\xeb?'
p241
tp242
Rp243
aF0.056053876876831055
aI578
aS'kernel = 1 degree'
p244
ag4
(g8
S'\xdc\x086c\x90\xbd\xea?'
p245
tp246
Rp247
ag4
(g8
S'\x96\x04\x08\x8e\xf82\xe9?'
p248
tp249
Rp250
aF0.0496671199798584
aI578
aS'kernel = 1 degree'
p251
aa(lp252
g4
(g8
S'\x949\xdf\x84*\xd0\xe5?'
p253
tp254
Rp255
ag4
(g8
S'\n1\xf6\x01f\xb8\xe4?'
p256
tp257
Rp258
aF0.06405091285705566
aI578
aS'kernel = 1 degree'
p259
ag4
(g8
S'\xb80\xa9!\x9a\x12\xeb?'
p260
tp261
Rp262
ag4
(g8
S'"\xdaf\xc2\x88\xb6\xe9?'
p263
tp264
Rp265
aF0.05812811851501465
aI578
aS'kernel = 1 degree'
p266
ag4
(g8
S'\xd9\xab~Q$\xf7\xe9?'
p267
tp268
Rp269
ag4
(g8
S'\xb6\x9e\x84\xd4/\x98\xe8?'
p270
tp271
Rp272
aF0.057641029357910156
aI578
aS'kernel = 1 degree'
p273
aa(lp274
g4
(g8
S'xxxxxx\xe8?'
p275
tp276
Rp277
ag4
(g8
S'333333\xe9?'
p278
tp279
Rp280
aF0.056138038635253906
aI578
aS'kernel = 1 degree'
p281
ag4
(g8
S'\xdee\xedt\xfc\x83\xeb?'
p282
tp283
Rp284
ag4
(g8
S"\\\x19mD\xb7'\xeb?"
p285
tp286
Rp287
aF0.054244041442871094
aI578
aS'kernel = 1 degree'
p288
ag4
(g8
S'\x83\xecU\xbf(\x92\xeb?'
p289
tp290
Rp291
ag4
(g8
S'\x9eeD\x1fP\x1d\xeb?'
p292
tp293
Rp294
aF0.05244588851928711
aI578
aS'kernel = 1 degree'
p295
aa(lp296
g4
(g8
S'%\x16\x07\xf8\xe8\xd9\xea?'
p297
tp298
Rp299
ag4
(g8
S'#%\xf1\x05d>\xea?'
p300
tp301
Rp302
aF0.06492090225219727
aI578
aS'kernel = 1 degree'
p303
ag4
(g8
S'\xab_\x14\xc9}2\xe7?'
p304
tp305
Rp306
ag4
(g8
S'\x86Bp\xad\xe41\xe4?'
p307
tp308
Rp309
aF0.05777597427368164
aI578
aS'kernel = 1 degree'
p310
ag4
(g8
S'\xb3v:\xfe\xc1\x85\xe9?'
p311
tp312
Rp313
ag4
(g8
S'\xf1V\xf69\xa4&\xe8?'
p314
tp315
Rp316
aF0.04074406623840332
aI578
aS'kernel = 1 degree'
p317
aa(lp318
g4
(g8
S'\x0e\xf0\xd1\xb3\x95w\xe9?'
p319
tp320
Rp321
ag4
(g8
S'G\xa9&\x8f;K\xe8?'
p322
tp323
Rp324
aF0.0611269474029541
aI578
aS'kernel = 1 degree'
p325
ag4
(g8
S'\x8dA\xf6\xaa_\x14\xe9?'
p326
tp327
Rp328
ag4
(g8
S'9f\xac\xeeW;\xe9?'
p329
tp330
Rp331
aF0.043640851974487305
aI578
aS'kernel = 1 degree'
p332
ag4
(g8
S'I\xee\x939\xdf\x84\xea?'
p333
tp334
Rp335
ag4
(g8
S'7\xad\xda\xe1\x18\x14\xea?'
p336
tp337
Rp338
aF0.046952009201049805
aI578
aS'kernel = 1 degree'
p339
aa(lp340
g4
(g8
S'4%\x16\x07\xf8\xe8\xe9?'
p341
tp342
Rp343
ag4
(g8
S'\xa8\x87z\xa8\x87z\xe8?'
p344
tp345
Rp346
aF0.05017709732055664
aI578
aS'kernel = 1 degree'
p347
ag4
(g8
S'A\xd7m\x04\x9b1\xe8?'
p348
tp349
Rp350
ag4
(g8
S'J\xcd\x90\xd1C;\xe5?'
p351
tp352
Rp353
aF0.05317497253417969
aI578
aS'kernel = 1 degree'
p354
ag4
(g8
S'o#\xd8\x8cA\xf6\xea?'
p355
tp356
Rp357
ag4
(g8
S'\xc2\xf0Z\xb5A\x05\xea?'
p358
tp359
Rp360
aF0.049327850341796875
aI578
aS'kernel = 1 degree'
p361
aa(lp362
g4
(g8
S'%\x16\x07\xf8\xe8\xd9\xea?'
p363
tp364
Rp365
ag4
(g8
S'#%\xf1\x05d>\xea?'
p366
tp367
Rp368
aF0.0677490234375
aI578
aS'kernel = 1 degree'
p369
ag4
(g8
S'\xdc\x086c\x90\xbd\xea?'
p370
tp371
Rp372
ag4
(g8
S'\x087\xfb\x85XQ\xea?'
p373
tp374
Rp375
aF0.05800795555114746
aI578
aS'kernel = 1 degree'
p376
ag4
(g8
S'\xedt\xfc\x83\x0b\x93\xea?'
p377
tp378
Rp379
ag4
(g8
S'\x93\xca\x87q\xbf.\xe9?'
p380
tp381
Rp382
aF0.04217195510864258
aI578
aS'kernel = 1 degree'
p383
aa(lp384
g4
(g8
S']\xb7\x11l\xc6 \xeb?'
p385
tp386
Rp387
ag4
(g8
S'\xe0H\xd1\x10\x7f\xdc\xea?'
p388
tp389
Rp390
aF0.05143094062805176
aI578
aS'kernel = 1 degree'
p391
ag4
(g8
S'U\xa0\xeb6\x82\xcd\xe8?'
p392
tp393
Rp394
ag4
(g8
S'\xff\xc0\x8e\r/\x85\xe9?'
p395
tp396
Rp397
aF0.06017804145812988
aI578
aS'kernel = 1 degree'
p398
ag4
(g8
S'ZZZZZZ\xea?'
p399
tp400
Rp401
ag4
(g8
S'\xb5$\x8a)m\xd7\xe9?'
p402
tp403
Rp404
aF0.0486600399017334
aI578
aS'kernel = 1 degree'
p405
aa(lp406
g4
(g8
S':\xdf\x84*\xd0u\xeb?'
p407
tp408
Rp409
ag4
(g8
S'\xb6\xd6Zk\xad\xb5\xea?'
p410
tp411
Rp412
aF0.06469202041625977
aI578
aS'kernel = 1 degree'
p413
ag4
(g8
S'\x90\x9e\xad\xbc\xcb\xda\xe9?'
p414
tp415
Rp416
ag4
(g8
S'\x02\xacrL\x88\x05\xe9?'
p417
tp418
Rp419
aF0.05092811584472656
aI578
aS'kernel = 1 degree'
p420
ag4
(g8
S'%\x16\x07\xf8\xe8\xd9\xea?'
p421
tp422
Rp423
ag4
(g8
S'Y\x97uY\x97u\xe9?'
p424
tp425
Rp426
aF0.048438072204589844
aI578
aS'kernel = 1 degree'
p427
aa(lp428
g4
(g8
S' \\\x98\xd4\x10M\xe9?'
p429
tp430
Rp431
ag4
(g8
S'5\xd6\x87\xc6\xfa\xd0\xe8?'
p432
tp433
Rp434
aF0.062081098556518555
aI578
aS'kernel = 1 degree'
p435
ag4
(g8
S'I\xee\x939\xdf\x84\xea?'
p436
tp437
Rp438
ag4
(g8
S'\x18O\x14f\xdfb\xe9?'
p439
tp440
Rp441
aF0.04132413864135742
aI578
aS'kernel = 1 degree'
p442
ag4
(g8
S'\x1b\xa2)\xb18\xc0\xe7?'
p443
tp444
Rp445
ag4
(g8
S"'e\x1c\xc0\x8f\xbc\xe7?"
p446
tp447
Rp448
aF0.02782893180847168
aI578
aS'kernel = 1 degree'
p449
aa(lp450
g4
(g8
S'ZZZZZZ\xea?'
p451
tp452
Rp453
ag4
(g8
S'\xb6$\x8a)m\xd7\xe9?'
p454
tp455
Rp456
aF0.061448097229003906
aI578
aS'kernel = 1 degree'
p457
ag4
(g8
S'\x13\xaa@\xd7m\x04\xeb?'
p458
tp459
Rp460
ag4
(g8
S'\xb8\xa2\xf5\xc5\x87+\xea?'
p461
tp462
Rp463
aF0.049479007720947266
aI578
aS'kernel = 1 degree'
p464
ag4
(g8
S' \\\x98\xd4\x10M\xe9?'
p465
tp466
Rp467
ag4
(g8
S'\xfe1t}\x89\xff\xe8?'
p468
tp469
Rp470
aF0.034234046936035156
aI578
aS'kernel = 1 degree'
p471
aa(lp472
g4
(g8
S'6c\x90\xbd\xea\x17\xe5?'
p473
tp474
Rp475
ag4
(g8
S'G\xa6\x97\xad\x0c\xfe\xe3?'
p476
tp477
Rp478
aF0.062158823013305664
aI578
aS'kernel = 1 degree'
p479
ag4
(g8
S'\x99\xf3M\xa8\x02]\xe7?'
p480
tp481
Rp482
ag4
(g8
S'\xc1_\xc5\t)y\xe6?'
p483
tp484
Rp485
aF0.044318199157714844
aI578
aS'kernel = 1 degree'
p486
ag4
(g8
S'\xd4\xf1\x0f.Lj\xe8?'
p487
tp488
Rp489
ag4
(g8
S'\x94:\xe4\xf4aZ\xe7?'
p490
tp491
Rp492
aF0.05057692527770996
aI578
aS'kernel = 1 degree'
p493
aa(lp494
g4
(g8
S'\xff\xe0\xc2\xa4\x86h\xea?'
p495
tp496
Rp497
ag4
(g8
S'\x9d|\xf3G\xe2j\xe9?'
p498
tp499
Rp500
aF0.061135053634643555
aI578
aS'kernel = 1 degree'
p501
ag4
(g8
S'4%\x16\x07\xf8\xe8\xe9?'
p502
tp503
Rp504
ag4
(g8
S'\x18\x9b\x05\xd5\x9e\x93\xe9?'
p505
tp506
Rp507
aF0.04010295867919922
aI578
aS'kernel = 1 degree'
p508
ag4
(g8
S'l\xc6 {\xd5/\xea?'
p509
tp510
Rp511
ag4
(g8
S'\x8b\xf8\x04R\xc9y\xe9?'
p512
tp513
Rp514
aF0.04677605628967285
aI578
aS'kernel = 1 degree'
p515
aa(lp516
g4
(g8
S'\x13\xaa@\xd7m\x04\xeb?'
p517
tp518
Rp519
ag4
(g8
S'\xff\xff\xff\xff\xff\x7f\xe8?'
p520
tp521
Rp522
aF0.16353201866149902
aI578
aS'kernel = 2 degree'
p523
ag4
(g8
S'\x97\xb5\xd3\xf1\x0f.\xec?'
p524
tp525
Rp526
ag4
(g8
S'T\x93\xb1+"+\xeb?'
p527
tp528
Rp529
aF0.05899500846862793
aI578
aS'kernel = 1 degree'
p530
ag4
(g8
S'\x11M\x89\xc5\x01>\xea?'
p531
tp532
Rp533
ag4
(g8
S'W\xc3\xd2\x8b8Q\xe9?'
p534
tp535
Rp536
aF0.045567989349365234
aI578
aS'kernel = 1 degree'
p537
aa(lp538
g4
(g8
S'\xbb\x8d`3\x06\xd9\xeb?'
p539
tp540
Rp541
ag4
(g8
S'\xe9\xd4<\xc8]?\xeb?'
p542
tp543
Rp544
aF0.07283997535705566
aI578
aS'kernel = 1 degree'
p545
ag4
(g8
S'\x02>z\xb6\xf2.\xeb?'
p546
tp547
Rp548
ag4
(g8
S'\xd2;\x03\x0e\x92#\xea?'
p549
tp550
Rp551
aF0.05910205841064453
aI578
aS'kernel = 1 degree'
p552
ag4
(g8
S'\x04\x9b1\xc8^\xf5\xeb?'
p553
tp554
Rp555
ag4
(g8
S'\x97ya6\x92Q\xeb?'
p556
tp557
Rp558
aF0.049633026123046875
aI578
aS'kernel = 1 degree'
p559
aa(lp560
g4
(g8
S'\xdc\x086c\x90\xbd\xea?'
p561
tp562
Rp563
ag4
(g8
S'\xa6\xecl\xd5"o\xe9?'
p564
tp565
Rp566
aF0.047772884368896484
aI578
aS'kernel = 1 degree'
p567
ag4
(g8
S'\xa9!\x9a\x12\x8b\x03\xec?'
p568
tp569
Rp570
ag4
(g8
S'P\xc2\x1bM\x9d_\xeb?'
p571
tp572
Rp573
aF0.03178286552429199
aI578
aS'kernel = 1 degree'
p574
ag4
(g8
S'\xf0\xd1\xb3\x95wY\xeb?'
p575
tp576
Rp577
ag4
(g8
S'\xb9\xf4\xed\xafL\x14\xea?'
p578
tp579
Rp580
aF0.05576586723327637
aI578
aS'kernel = 1 degree'
p581
aa(lp582
g4
(g8
S'\x90\x9e\xad\xbc\xcb\xda\xe9?'
p583
tp584
Rp585
ag4
(g8
S'\x9e\x835K\x8cO\xe9?'
p586
tp587
Rp588
aF0.062246084213256836
aI578
aS'kernel = 1 degree'
p589
ag4
(g8
S'\xdee\xedt\xfc\x83\xeb?'
p590
tp591
Rp592
ag4
(g8
S'A\xe8\xb5\x93\xeb0\xeb?'
p593
tp594
Rp595
aF0.06470990180969238
aI578
aS'kernel = 1 degree'
p596
ag4
(g8
S'\x97\xb5\xd3\xf1\x0f.\xec?'
p597
tp598
Rp599
ag4
(g8
S'3Z96\xc8\x80\xeb?'
p600
tp601
Rp602
aF0.04705810546875
aI578
aS'kernel = 1 degree'
p603
aa(lp604
g4
(g8
S'\x8dA\xf6\xaa_\x14\xe9?'
p605
tp606
Rp607
ag4
(g8
S'\xc0z>AV\\\xe7?'
p608
tp609
Rp610
aF0.04686307907104492
aI578
aS'kernel = 1 degree'
p611
ag4
(g8
S'7\x82\xcd\x18d\xaf\xea?'
p612
tp613
Rp614
ag4
(g8
S'J\x85\x89\xf7#\xa7\xe9?'
p615
tp616
Rp617
aF0.05602908134460449
aI578
aS'kernel = 1 degree'
p618
ag4
(g8
S'I\xee\x939\xdf\x84\xea?'
p619
tp620
Rp621
ag4
(g8
S'\xd9\x94\xee\x8c\xd1w\xe9?'
p622
tp623
Rp624
aF0.04754281044006348
aI578
aS'kernel = 1 degree'
p625
aa(lp626
g4
(g8
S'\x8a\xe4>\x99\xf3M\xe8?'
p627
tp628
Rp629
ag4
(g8
S'P\xa15\x80Z\xb8\xe8?'
p630
tp631
Rp632
aF0.061981916427612305
aI578
aS'kernel = 1 degree'
p633
ag4
(g8
S'C4%\x16\x07\xf8\xe8?'
p634
tp635
Rp636
ag4
(g8
S'\xb37g\x9eb\xe3\xe7?'
p637
tp638
Rp639
aF0.05882596969604492
aI578
aS'kernel = 1 degree'
p640
ag4
(g8
S'\xca\x9coB\x15\xe8\xea?'
p641
tp642
Rp643
ag4
(g8
S'\x11\xa5s\xd9\x0cQ\xea?'
p644
tp645
Rp646
aF0.03786301612854004
aI578
aS'kernel = 1 degree'
p647
aa(lp648
g4
(g8
S'\xd9\xab~Q$\xf7\xe9?'
p649
tp650
Rp651
ag4
(g8
S'\xd0\xfa\x94\xbc\x90\x93\xe9?'
p652
tp653
Rp654
aF0.06723308563232422
aI578
aS'kernel = 1 degree'
p655
ag4
(g8
S'\x13\xaa@\xd7m\x04\xeb?'
p656
tp657
Rp658
ag4
(g8
S'\xd93\x10\x95\x8e\xec\xe9?'
p659
tp660
Rp661
aF0.03140091896057129
aI578
aS'kernel = 1 degree'
p662
ag4
(g8
S'\xa7\xc4\xe2\x00\x1f=\xeb?'
p663
tp664
Rp665
ag4
(g8
S'h\n\x81\xa6\x10h\xea?'
p666
tp667
Rp668
aF0.05165410041809082
aI578
aS'kernel = 1 degree'
p669
aa(lp670
g4
(g8
S'I\xee\x939\xdf\x84\xea?'
p671
tp672
Rp673
ag4
(g8
S'i\xf6/\x10\xaf\x94\xe8?'
p674
tp675
Rp676
aF0.06331205368041992
aI578
aS'kernel = 1 degree'
p677
ag4
(g8
S'\x80\x8f\x9e\xad\xbc\xcb\xea?'
p678
tp679
Rp680
ag4
(g8
S'\x8a@\xae\x89@\xae\xe9?'
p681
tp682
Rp683
aF0.05345416069030762
aI578
aS'kernel = 1 degree'
p684
ag4
(g8
S'\xa7\xc4\xe2\x00\x1f=\xeb?'
p685
tp686
Rp687
ag4
(g8
S'\xcf\xb1F" >\xea?'
p688
tp689
Rp690
aF0.032948970794677734
aI578
aS'kernel = 1 degree'
p691
aa(lp692
g4
(g8
S'z\xb6\xf2.k\xa7\xe3?'
p693
tp694
Rp695
ag4
(g8
S'~1"Tmu\xe3?'
p696
tp697
Rp698
aF0.07003307342529297
aI578
aS'kernel = 1 degree'
p699
ag4
(g8
S'\x02>z\xb6\xf2.\xeb?'
p700
tp701
Rp702
ag4
(g8
S'\xc1/R\x1c\x01\xf6\xe9?'
p703
tp704
Rp705
aF0.0535578727722168
aI578
aS'kernel = 1 degree'
p706
ag4
(g8
S'%\x16\x07\xf8\xe8\xd9\xea?'
p707
tp708
Rp709
ag4
(g8
S'G=r4\xa7\xf6\xe9?'
p710
tp711
Rp712
aF0.053807973861694336
aI578
aS'kernel = 1 degree'
p713
aa(lp714
g4
(g8
S'\x92\xfbd\xce7\xa1\xea?'
p715
tp716
Rp717
ag4
(g8
S'\xc5|Wp\n\xf9\xe9?'
p718
tp719
Rp720
aF0.0658421516418457
aI578
aS'kernel = 1 degree'
p721
ag4
(g8
S'\x04\x9b1\xc8^\xf5\xeb?'
p722
tp723
Rp724
ag4
(g8
S'\x96ya6\x92Q\xeb?'
p725
tp726
Rp727
aF0.0602719783782959
aI578
aS'kernel = 1 degree'
p728
ag4
(g8
S'v\x1b\xc1f\x0c\xb2\xe7?'
p729
tp730
Rp731
ag4
(g8
S'\xdf\x1aY]\x86\xbd\xe2?'
p732
tp733
Rp734
aF0.0444180965423584
aI578
aS'kernel = 1 degree'
p735
aa(lp736
g4
(g8
S'6c\x90\xbd\xea\x17\xe5?'
p737
tp738
Rp739
ag4
(g8
S'G\xa6\x97\xad\x0c\xfe\xe3?'
p740
tp741
Rp742
aF0.07120990753173828
aI578
aS'kernel = 1 degree'
p743
ag4
(g8
S'\xa7\xc4\xe2\x00\x1f=\xeb?'
p744
tp745
Rp746
ag4
(g8
S'\xb0\x8e6\xefS\\\xea?'
p747
tp748
Rp749
aF0.05932807922363281
aI578
aS'kernel = 1 degree'
p750
ag4
(g8
S']\xb7\x11l\xc6 \xeb?'
p751
tp752
Rp753
ag4
(g8
S'\x9dN\xa7\xd3\xe9t\xea?'
p754
tp755
Rp756
aF0.049455881118774414
aI578
aS'kernel = 1 degree'
p757
aa(lp758
g4
(g8
S'\xd9\xab~Q$\xf7\xe9?'
p759
tp760
Rp761
ag4
(g8
S'\xd0\xfa\x94\xbc\x90\x93\xe9?'
p762
tp763
Rp764
aF0.062187910079956055
aI578
aS'kernel = 1 degree'
p765
ag4
(g8
S'\x1b\xa2)\xb18\xc0\xe7?'
p766
tp767
Rp768
ag4
(g8
S'UB\xf1\xad.\xd9\xe6?'
p769
tp770
Rp771
aF0.06035614013671875
aI578
aS'kernel = 1 degree'
p772
ag4
(g8
S'\x13\xaa@\xd7m\x04\xeb?'
p773
tp774
Rp775
ag4
(g8
S'>\n\xd7\xa3p=\xea?'
p776
tp777
Rp778
aF0.055658817291259766
aI578
aS'kernel = 1 degree'
p779
aa(lp780
g4
(g8
S'\xc7?\xb80\xa9!\xea?'
p781
tp782
Rp783
ag4
(g8
S'\xdb\xb6m\xdb\xb6m\xe8?'
p784
tp785
Rp786
aF0.06619501113891602
aI578
aS'kernel = 1 degree'
p787
ag4
(g8
S']\xb7\x11l\xc6 \xeb?'
p788
tp789
Rp790
ag4
(g8
S'\xcd\x0b\xe6\x05\xf3\x82\xe9?'
p791
tp792
Rp793
aF0.035546064376831055
aI578
aS'kernel = 1 degree'
p794
ag4
(g8
S'\xa4g+\xef\xb2v\xea?'
p795
tp796
Rp797
ag4
(g8
S'\x9a\xc6\r\x8c:\xd3\xe8?'
p798
tp799
Rp800
aF0.04805111885070801
aI578
aS'kernel = 1 degree'
p801
aa(lp802
g4
(g8
S'KKKKKK\xeb?'
p803
tp804
Rp805
ag4
(g8
S'l\xf2\xf6\xf9\xfb\xa7\xea?'
p806
tp807
Rp808
aF0.062397003173828125
aI578
aS'kernel = 1 degree'
p809
ag4
(g8
S'\xe8\xba\x8d`3\x06\xe9?'
p810
tp811
Rp812
ag4
(g8
S'\xf2~\xe44_\xab\xe7?'
p813
tp814
Rp815
aF0.059168100357055664
aI578
aS'kernel = 1 degree'
p816
ag4
(g8
S'\xa7\xc4\xe2\x00\x1f=\xeb?'
p817
tp818
Rp819
ag4
(g8
S'\xe2\xa4\xee\xcbc+\xea?'
p820
tp821
Rp822
aF0.0340578556060791
aI578
aS'kernel = 1 degree'
p823
aa(lp824
g4
(g8
S'\xb7\x11l\xc6 {\xe5?'
p825
tp826
Rp827
ag4
(g8
S'\xd0(\xf13J\xfc\xe4?'
p828
tp829
Rp830
aF0.06551504135131836
aI578
aS'kernel = 1 degree'
p831
ag4
(g8
S'\x07\xf8\xe8\xd9\xca\xbb\xec?'
p832
tp833
Rp834
ag4
(g8
S'\x9fY\x0f-!Y\xec?'
p835
tp836
Rp837
aF0.0644080638885498
aI578
aS'kernel = 1 degree'
p838
ag4
(g8
S'\xa9!\x9a\x12\x8b\x03\xec?'
p839
tp840
Rp841
ag4
(g8
S'{L8{L8\xeb?'
p842
tp843
Rp844
aF0.04745197296142578
aI578
aS'kernel = 1 degree'
p845
aa(lp846
g4
(g8
S'\x88\x87\x87\x87\x87\x87\xe7?'
p847
tp848
Rp849
ag4
(g8
S'\x0f\xa4eQ!\xef\xe7?'
p850
tp851
Rp852
aF0.06575798988342285
aI578
aS'kernel = 1 degree'
p853
ag4
(g8
S'\x97\xb5\xd3\xf1\x0f.\xec?'
p854
tp855
Rp856
ag4
(g8
S'[\x8c\xc3\x94Sw\xeb?'
p857
tp858
Rp859
aF0.05647706985473633
aI578
aS'kernel = 1 degree'
p860
ag4
(g8
S'\xff\xe0\xc2\xa4\x86h\xea?'
p861
tp862
Rp863
ag4
(g8
S'~\xcd\xad\xed\xa0\xbf\xe9?'
p864
tp865
Rp866
aF0.0373690128326416
aI578
aS'kernel = 1 degree'
p867
aa(lp868
g4
(g8
S'4%\x16\x07\xf8\xe8\xe9?'
p869
tp870
Rp871
ag4
(g8
S'\xa8\x87z\xa8\x87z\xe8?'
p872
tp873
Rp874
aF0.06482481956481934
aI578
aS'kernel = 1 degree'
p875
ag4
(g8
S'\xdc\x086c\x90\xbd\xea?'
p876
tp877
Rp878
ag4
(g8
S'\xd3"\x8d\x13\xa0\xbe\xe8?'
p879
tp880
Rp881
aF0.06303691864013672
aI578
aS'kernel = 1 degree'
p882
ag4
(g8
S'\xf3.k\xa7\xe3\x1f\xec?'
p883
tp884
Rp885
ag4
(g8
S"'\x9bl\xb2\xc9&\xeb?"
p886
tp887
Rp888
aF0.04617190361022949
aI578
aS'kernel = 1 degree'
p889
aa(lp890
g4
(g8
S'\x1d\xff\xe0\xc2\xa4\x86\xe8?'
p891
tp892
Rp893
ag4
(g8
S'\xe8\xa9\x85\x95\x9eZ\xe8?'
p894
tp895
Rp896
aF0.061749935150146484
aI578
aS'kernel = 1 degree'
p897
ag4
(g8
S'\xf3.k\xa7\xe3\x1f\xec?'
p898
tp899
Rp900
ag4
(g8
S'\xe38\x8e\xe38\x8e\xeb?'
p901
tp902
Rp903
aF0.05445504188537598
aI578
aS'kernel = 1 degree'
p904
ag4
(g8
S'I\xee\x939\xdf\x84\xea?'
p905
tp906
Rp907
ag4
(g8
S'\xb1%\xf86\x7f\x85\xe9?'
p908
tp909
Rp910
aF0.032570838928222656
aI578
aS'kernel = 1 degree'
p911
aa(lp912
g4
(g8
S'#\xb9O\xe6|\x13\xea?'
p913
tp914
Rp915
ag4
(g8
S'\xbf\x14\xac\r\xbd\xb1\xe9?'
p916
tp917
Rp918
aF0.05391097068786621
aI578
aS'kernel = 1 degree'
p919
ag4
(g8
S'\xbb\x8d`3\x06\xd9\xeb?'
p920
tp921
Rp922
ag4
(g8
S'V\xaa\x88\xfc\x9a[\xeb?'
p923
tp924
Rp925
aF0.05828404426574707
aI578
aS'kernel = 1 degree'
p926
ag4
(g8
S'\xa9!\x9a\x12\x8b\x03\xec?'
p927
tp928
Rp929
ag4
(g8
S'>\x8d\xb0\xdc\xd3\x08\xeb?'
p930
tp931
Rp932
aF0.04994511604309082
aI578
aS'kernel = 1 degree'
p933
aa(lp934
g4
(g8
S'\x13\xaa@\xd7m\x04\xeb?'
p935
tp936
Rp937
ag4
(g8
S'\xff\xff\xff\xff\xff\x7f\xe8?'
p938
tp939
Rp940
aF0.16111302375793457
aI578
aS'kernel = 2 degree'
p941
ag4
(g8
S'\xa9!\x9a\x12\x8b\x03\xec?'
p942
tp943
Rp944
ag4
(g8
S'\xb0K*\x1f\xc6\xfd\xea?'
p945
tp946
Rp947
aF0.041288137435913086
aI578
aS'kernel = 1 degree'
p948
ag4
(g8
S'\xa9!\x9a\x12\x8b\x03\xec?'
p949
tp950
Rp951
ag4
(g8
S'\xb7m\xdb\xb6m\xdb\xea?'
p952
tp953
Rp954
aF0.054766178131103516
aI578
aS'kernel = 1 degree'
p955
aa(lp956
g4
(g8
S'I\xee\x939\xdf\x84\xea?'
p957
tp958
Rp959
ag4
(g8
S'\x8c\xb4\xea}pE\xea?'
p960
tp961
Rp962
aF0.0658729076385498
aI578
aS'kernel = 1 degree'
p963
ag4
(g8
S'~2\xe7\x9bP\x05\xea?'
p964
tp965
Rp966
ag4
(g8
S'-\x81M\xfb\xc9\x12\xe8?'
p967
tp968
Rp969
aF0.05293107032775879
aI578
aS'kernel = 1 degree'
p970
ag4
(g8
S'\x90\x9e\xad\xbc\xcb\xda\xe9?'
p971
tp972
Rp973
ag4
(g8
S'\x7fUB\xf1\xad.\xe9?'
p974
tp975
Rp976
aF0.048254966735839844
aI578
aS'kernel = 1 degree'
p977
aa(lp978
g4
(g8
S'KKKKKK\xeb?'
p979
tp980
Rp981
ag4
(g8
S'l\xf2\xf6\xf9\xfb\xa7\xea?'
p982
tp983
Rp984
aF0.06432604789733887
aI578
aS'kernel = 1 degree'
p985
ag4
(g8
S'o#\xd8\x8cA\xf6\xea?'
p986
tp987
Rp988
ag4
(g8
S'j\xb0\xc4\\\xd1;\xea?'
p989
tp990
Rp991
aF0.046556949615478516
aI578
aS'kernel = 1 degree'
p992
ag4
(g8
S'\x13\xaa@\xd7m\x04\xeb?'
p993
tp994
Rp995
ag4
(g8
S'\x01\x00\x00\x00\x00`\xea?'
p996
tp997
Rp998
aF0.047293901443481445
aI578
aS'kernel = 1 degree'
p999
aa(lp1000
g4
(g8
S'%\x16\x07\xf8\xe8\xd9\xea?'
p1001
tp1002
Rp1003
ag4
(g8
S'#%\xf1\x05d>\xea?'
p1004
tp1005
Rp1006
aF0.0668799877166748
aI578
aS'kernel = 1 degree'
p1007
ag4
(g8
S'\xfa&T\x81\xae\xdb\xe8?'
p1008
tp1009
Rp1010
ag4
(g8
S'wp\x04\x91\xd6\x0b\xe8?'
p1011
tp1012
Rp1013
aF0.032668113708496094
aI578
aS'kernel = 1 degree'
p1014
ag4
(g8
S'\xb3v:\xfe\xc1\x85\xe9?'
p1015
tp1016
Rp1017
ag4
(g8
S'\xf1V\xf69\xa4&\xe8?'
p1018
tp1019
Rp1020
aF0.03418111801147461
aI578
aS'kernel = 1 degree'
p1021
aa(lp1022
g4
(g8
S'\x8a\xe4>\x99\xf3M\xe8?'
p1023
tp1024
Rp1025
ag4
(g8
S'P\xa15\x80Z\xb8\xe8?'
p1026
tp1027
Rp1028
aF0.04731011390686035
aI578
aS'kernel = 1 degree'
p1029
ag4
(g8
S'\xa4g+\xef\xb2v\xea?'
p1030
tp1031
Rp1032
ag4
(g8
S"\xe8'\xb1\xe6\x95\xea\xe9?"
p1033
tp1034
Rp1035
aF0.04074597358703613
aI578
aS'kernel = 1 degree'
p1036
ag4
(g8
S'N\xa8\x02]\xb7\x11\xec?'
p1037
tp1038
Rp1039
ag4
(g8
S'\x1ag\xef\xf4M\x89\xeb?'
p1040
tp1041
Rp1042
aF0.05571389198303223
aI578
aS'kernel = 1 degree'
p1043
aa(lp1044
g4
(g8
S'\xe1\xc2\xa4\x86hJ\xec?'
p1045
tp1046
Rp1047
ag4
(g8
S'H*\xb4X\x9b&\xec?'
p1048
tp1049
Rp1050
aF0.0736689567565918
aI578
aS'kernel = 1 degree'
p1051
ag4
(g8
S'\x13\xaa@\xd7m\x04\xeb?'
p1052
tp1053
Rp1054
ag4
(g8
S'\x00\x00\x00\x00\x00\x00\xeb?'
p1055
tp1056
Rp1057
aF0.05840802192687988
aI578
aS'kernel = 1 degree'
p1058
ag4
(g8
S'`\x14\xc9}2\xe7\xeb?'
p1059
tp1060
Rp1061
ag4
(g8
S'~5&\xd2\x03\x95\xeb?'
p1062
tp1063
Rp1064
aF0.05458712577819824
aI578
aS'kernel = 1 degree'
p1065
aa(lp1066
g4
(g8
S'\x13\xaa@\xd7m\x04\xeb?'
p1067
tp1068
Rp1069
ag4
(g8
S'=\n\xd7\xa3p=\xea?'
p1070
tp1071
Rp1072
aF0.06638407707214355
aI578
aS'kernel = 1 degree'
p1073
ag4
(g8
S'4%\x16\x07\xf8\xe8\xe9?'
p1074
tp1075
Rp1076
ag4
(g8
S'\xa7\x87\x81\xb3\xf0\xfc\xe8?'
p1077
tp1078
Rp1079
aF0.032968997955322266
aI578
aS'kernel = 1 degree'
p1080
ag4
(g8
S'o#\xd8\x8cA\xf6\xea?'
p1081
tp1082
Rp1083
ag4
(g8
S'vIf\xcf]\x92\xe9?'
p1084
tp1085
Rp1086
aF0.05161881446838379
aI578
aS'kernel = 1 degree'
p1087
aa(lp1088
g4
(g8
S'\x92\xfbd\xce7\xa1\xea?'
p1089
tp1090
Rp1091
ag4
(g8
S'\xc5|Wp\n\xf9\xe9?'
p1092
tp1093
Rp1094
aF0.06085991859436035
aI578
aS'kernel = 1 degree'
p1095
ag4
(g8
S' \\\x98\xd4\x10M\xe9?'
p1096
tp1097
Rp1098
ag4
(g8
S'_\x90\xd5\x13\xff\x05\xe9?'
p1099
tp1100
Rp1101
aF0.05660295486450195
aI578
aS'kernel = 1 degree'
p1102
ag4
(g8
S'l\xc6 {\xd5/\xea?'
p1103
tp1104
Rp1105
ag4
(g8
S'\x18\x9f2\xed\x1c\xac\xe9?'
p1106
tp1107
Rp1108
aF0.05287814140319824
aI578
aS'kernel = 1 degree'
p1109
aas.