(dp0
S'vehicle'
p1
(lp2
(lp3
cnumpy.core.multiarray
scalar
p4
(cnumpy
dtype
p5
(S'f8'
p6
I0
I1
tp7
Rp8
(I3
S'<'
p9
NNNI-1
I-1
I0
tp10
bS'\xfb\xceF}g\xa3\xee?'
p11
tp12
Rp13
ag4
(g8
S'\t\xd4\xfa\x95\x02\xb5\xee?'
p14
tp15
Rp16
aF0.1721818447113037
aI188
aS'kernel = 1 degree'
p17
ag4
(g8
S'<\x1b\xf5\x9d\x8d\xfa\xee?'
p18
tp19
Rp20
ag4
(g8
S'\x0b\xd7\xa3p=\n\xef?'
p21
tp22
Rp23
aF0.10610103607177734
aI188
aS'kernel = 1 degree'
p24
ag4
(g8
S'\xda\xa8\xefl\xd4w\xee?'
p25
tp26
Rp27
ag4
(g8
S'\xc9\x03W\xd1\xce\x94\xee?'
p28
tp29
Rp30
aF0.0975790023803711
aI188
aS'kernel = 1 degree'
p31
aa(lp32
g4
(g8
S'\x9e\x8d\xfa\xceF}\xef?'
p33
tp34
Rp35
ag4
(g8
S'|\x1d\x96pT\x7f\xef?'
p36
tp37
Rp38
aF0.0994110107421875
aI188
aS'kernel = 1 degree'
p39
ag4
(g8
S'\xdf\xd9\xa8\xefl\xd4\xef?'
p40
tp41
Rp42
ag4
(g8
S'J\xfd)\xf5\xa7\xd4\xef?'
p43
tp44
Rp45
aF0.08381795883178711
aI188
aS'kernel = 1 degree'
p46
ag4
(g8
S'\xd4w6\xea;\x1b\xed?'
p47
tp48
Rp49
ag4
(g8
S"\xf2\xd1\xc9G'\x1f\xed?"
p50
tp51
Rp52
aF0.09802007675170898
aI188
aS'kernel = 1 degree'
p53
aa(lp54
g4
(g8
S'}g\xa3\xbe\xb3Q\xef?'
p55
tp56
Rp57
ag4
(g8
S'\xd0\x17\xf4\x05}A\xef?'
p58
tp59
Rp60
aF0.11719584465026855
aI188
aS'kernel = 1 degree'
p61
ag4
(g8
S'\xfb\xceF}g\xa3\xee?'
p62
tp63
Rp64
ag4
(g8
S'\xb3u\xe87[\x87\xee?'
p65
tp66
Rp67
aF0.07882118225097656
aI188
aS'kernel = 1 degree'
p68
ag4
(g8
S'\xa9\xefl\xd4w6\xea?'
p69
tp70
Rp71
ag4
(g8
S'a\x18\x86a\x18\x86\xe9?'
p72
tp73
Rp74
aF0.11894106864929199
aI188
aS'kernel = 1 degree'
p75
aa(lp76
g4
(g8
S'\x1b\xf5\x9d\x8d\xfa\xce\xee?'
p77
tp78
Rp79
ag4
(g8
S'\xa5\x8e\x10\xdb\xb4\xe2\xee?'
p80
tp81
Rp82
aF0.11609697341918945
aI188
aS'kernel = 1 degree'
p83
ag4
(g8
S'6\xea;\x1b\xf5\x9d\xed?'
p84
tp85
Rp86
ag4
(g8
S')0\xe9\xd4<\xc8\xed?'
p87
tp88
Rp89
aF0.10378193855285645
aI188
aS'kernel = 1 degree'
p90
ag4
(g8
S'\x16\xc4\xe4\nbr\xed?'
p91
tp92
Rp93
ag4
(g8
S'N\x06\x91\x07\xae\xa2\xed?'
p94
tp95
Rp96
aF0.1655571460723877
aI188
aS'kernel = 1 degree'
p97
aa(lp98
g4
(g8
S'<\x1b\xf5\x9d\x8d\xfa\xee?'
p99
tp100
Rp101
ag4
(g8
S'_\\\xfd\xa0\xa3\x02\xef?'
p102
tp103
Rp104
aF0.09196686744689941
aI188
aS'kernel = 1 degree'
p105
ag4
(g8
S'\x1b\xf5\x9d\x8d\xfa\xce\xee?'
p106
tp107
Rp108
ag4
(g8
S'\x9a8\x8c\xd5\xd6\xdf\xee?'
p109
tp110
Rp111
aF0.08405208587646484
aI188
aS'kernel = 1 degree'
p112
ag4
(g8
S'r\x051\xb9\x82\x98\xec?'
p113
tp114
Rp115
ag4
(g8
S'\x19\x12\xf3v\x86\xc4\xec?'
p116
tp117
Rp118
aF0.0765829086303711
aI188
aS'kernel = 0 degree'
p119
aa(lp120
g4
(g8
S'}g\xa3\xbe\xb3Q\xef?'
p121
tp122
Rp123
ag4
(g8
S'O?\xfd\xf4\xd3O\xef?'
p124
tp125
Rp126
aF0.09594297409057617
aI188
aS'kernel = 1 degree'
p127
ag4
(g8
S'x6\xea;\x1b\xf5\xed?'
p128
tp129
Rp130
ag4
(g8
S'?\xde\xe3=\xde\xe3\xed?'
p131
tp132
Rp133
aF0.10721087455749512
aI188
aS'kernel = 1 degree'
p134
ag4
(g8
S'r\x051\xb9\x82\x98\xec?'
p135
tp136
Rp137
ag4
(g8
S'\x1d\xc7q\x1c\xc7q\xec?'
p138
tp139
Rp140
aF0.07871317863464355
aI188
aS'kernel = 1 degree'
p141
aa(lp142
g4
(g8
S'\x9e\x8d\xfa\xceF}\xef?'
p143
tp144
Rp145
ag4
(g8
S'\xb2\xf75!({\xef?'
p146
tp147
Rp148
aF0.09484314918518066
aI188
aS'kernel = 1 degree'
p149
ag4
(g8
S'\x99\\AL\xae \xee?'
p150
tp151
Rp152
ag4
(g8
S'3\xe2\xcd\x887#\xee?'
p153
tp154
Rp155
aF0.12921595573425293
aI188
aS'kernel = 1 degree'
p156
ag4
(g8
S'\x16\xc4\xe4\nbr\xed?'
p157
tp158
Rp159
ag4
(g8
S'o\x9dW@\xe3n\xed?'
p160
tp161
Rp162
aF0.21472787857055664
aI188
aS'kernel = 1 degree'
p163
aa(lp164
g4
(g8
S'\xda\xa8\xefl\xd4w\xee?'
p165
tp166
Rp167
ag4
(g8
S'vX\xc2Q\xfd}\xee?'
p168
tp169
Rp170
aF0.0541989803314209
aI188
aS'kernel = 1 degree'
p171
ag4
(g8
S'x6\xea;\x1b\xf5\xed?'
p172
tp173
Rp174
ag4
(g8
S'\xaa\xdfsK\x9c\xfa\xed?'
p175
tp176
Rp177
aF0.08168315887451172
aI188
aS'kernel = 1 degree'
p178
ag4
(g8
S'\xfb\xceF}g\xa3\xee?'
p179
tp180
Rp181
ag4
(g8
S'r\xea\xf7\xdc\x12\xa7\xee?'
p182
tp183
Rp184
aF0.08676886558532715
aI188
aS'kernel = 1 degree'
p185
aa(lp186
g4
(g8
S'\xda\xa8\xefl\xd4w\xee?'
p187
tp188
Rp189
ag4
(g8
S'\x8aK\x86`\x1dm\xee?'
p190
tp191
Rp192
aF0.13889503479003906
aI188
aS'kernel = 1 degree'
p193
ag4
(g8
S'6\xea;\x1b\xf5\x9d\xed?'
p194
tp195
Rp196
ag4
(g8
S'\x96]v\xd9e\x97\xed?'
p197
tp198
Rp199
aF0.10271596908569336
aI188
aS'kernel = 1 degree'
p200
ag4
(g8
S'\x93+\x88\xc9\x15\xc4\xec?'
p201
tp202
Rp203
ag4
(g8
S'\xb8\x05\x14Fu\x9a\xec?'
p204
tp205
Rp206
aF0.10654997825622559
aI188
aS'kernel = 0 degree'
p207
aa(lp208
g4
(g8
S'\xda\xa8\xefl\xd4w\xee?'
p209
tp210
Rp211
ag4
(g8
S'Xm\xfd\xed\x81\x8d\xee?'
p212
tp213
Rp214
aF0.0910639762878418
aI188
aS'kernel = 1 degree'
p215
ag4
(g8
S']AL\xae &\xef?'
p216
tp217
Rp218
ag4
(g8
S'\xe0\xf2-\xdf\xf2-\xef?'
p219
tp220
Rp221
aF0.07081794738769531
aI188
aS'kernel = 1 degree'
p222
ag4
(g8
S'W\x10\x93+\x88\xc9\xed?'
p223
tp224
Rp225
ag4
(g8
S'\xc9\xdc!s\x87\xcc\xed?'
p226
tp227
Rp228
aF0.053904056549072266
aI188
aS'kernel = 1 degree'
p229
aa(lp230
g4
(g8
S']AL\xae &\xef?'
p231
tp232
Rp233
ag4
(g8
S'\x1eK\x99\x04\xbb\n\xef?'
p234
tp235
Rp236
aF0.0751948356628418
aI188
aS'kernel = 1 degree'
p237
ag4
(g8
S']AL\xae &\xef?'
p238
tp239
Rp240
ag4
(g8
S'\x08\x1f|\xf0\xc1\x07\xef?'
p241
tp242
Rp243
aF0.07874321937561035
aI188
aS'kernel = 1 degree'
p244
ag4
(g8
S'\xda\xa8\xefl\xd4w\xee?'
p245
tp246
Rp247
ag4
(g8
S'\x08\x1b\x8f\xe6\x0f6\xee?'
p248
tp249
Rp250
aF0.07277894020080566
aI188
aS'kernel = 1 degree'
p251
aa(lp252
g4
(g8
S'\x1b\xf5\x9d\x8d\xfa\xce\xee?'
p253
tp254
Rp255
ag4
(g8
S'\xd2\x1f\n\xc9\x05\xbc\xee?'
p256
tp257
Rp258
aF0.09082317352294922
aI188
aS'kernel = 1 degree'
p259
ag4
(g8
S'\xb9\x82\x98\\AL\xee?'
p260
tp261
Rp262
ag4
(g8
S'd!\x0bY\xc8B\xee?'
p263
tp264
Rp265
aF0.08292603492736816
aI188
aS'kernel = 1 degree'
p266
ag4
(g8
S'\x93+\x88\xc9\x15\xc4\xec?'
p267
tp268
Rp269
ag4
(g8
S'\xd0. 6\x95\x86\xec?'
p270
tp271
Rp272
aF0.07165884971618652
aI188
aS'kernel = 1 degree'
p273
aa(lp274
g4
(g8
S']AL\xae &\xef?'
p275
tp276
Rp277
ag4
(g8
S'M;\x07k\x96\x18\xef?'
p278
tp279
Rp280
aF0.06000494956970215
aI188
aS'kernel = 1 degree'
p281
ag4
(g8
S'}g\xa3\xbe\xb3Q\xef?'
p282
tp283
Rp284
ag4
(g8
S'\xa0\xf4I\x9f\xf4I\xef?'
p285
tp286
Rp287
aF0.06955504417419434
aI188
aS'kernel = 1 degree'
p288
ag4
(g8
S'\x1b\xf5\x9d\x8d\xfa\xce\xee?'
p289
tp290
Rp291
ag4
(g8
S'\xbco\x8d\xac.\xc3\xee?'
p292
tp293
Rp294
aF0.06775903701782227
aI188
aS'kernel = 1 degree'
p295
aa(lp296
g4
(g8
S'\x1b\xf5\x9d\x8d\xfa\xce\xee?'
p297
tp298
Rp299
ag4
(g8
S'\xd2\x1f\n\xc9\x05\xbc\xee?'
p300
tp301
Rp302
aF0.09389996528625488
aI188
aS'kernel = 1 degree'
p303
ag4
(g8
S'\xb9\x82\x98\\AL\xee?'
p304
tp305
Rp306
ag4
(g8
S'!\x93\xe2\x052)\xee?'
p307
tp308
Rp309
aF0.07468914985656738
aI188
aS'kernel = 1 degree'
p310
ag4
(g8
S'\xda\xa8\xefl\xd4w\xee?'
p311
tp312
Rp313
ag4
(g8
S"W\x04\r'u_\xee?"
p314
tp315
Rp316
aF0.06613302230834961
aI188
aS'kernel = 1 degree'
p317
aa(lp318
g4
(g8
S'\xb9\x82\x98\\AL\xee?'
p319
tp320
Rp321
ag4
(g8
S'e!\x0bY\xc8B\xee?'
p322
tp323
Rp324
aF0.0712881088256836
aI188
aS'kernel = 1 degree'
p325
ag4
(g8
S'<\x1b\xf5\x9d\x8d\xfa\xee?'
p326
tp327
Rp328
ag4
(g8
S'\xef\xee\xee\xee\xee\xee\xee?'
p329
tp330
Rp331
aF0.09038186073303223
aI188
aS'kernel = 1 degree'
p332
ag4
(g8
S'W\x10\x93+\x88\xc9\xed?'
p333
tp334
Rp335
ag4
(g8
S'\x06\xdc\xe9\x8fX\xc0\xed?'
p336
tp337
Rp338
aF0.17221784591674805
aI188
aS'kernel = 1 degree'
p339
aa(lp340
g4
(g8
S'<\x1b\xf5\x9d\x8d\xfa\xee?'
p341
tp342
Rp343
ag4
(g8
S'oz\xd3\x9b\xde\xf4\xee?'
p344
tp345
Rp346
aF0.0755770206451416
aI188
aS'kernel = 1 degree'
p347
ag4
(g8
S'6\xea;\x1b\xf5\x9d\xed?'
p348
tp349
Rp350
ag4
(g8
S'\xab\xaa\xaa\xaa\xaa\xaa\xed?'
p351
tp352
Rp353
aF0.1681349277496338
aI188
aS'kernel = 1 degree'
p354
ag4
(g8
S'\xd4w6\xea;\x1b\xed?'
p355
tp356
Rp357
ag4
(g8
S'\x17]t\xd1E\x17\xed?'
p358
tp359
Rp360
aF0.07843494415283203
aI188
aS'kernel = 1 degree'
p361
aa(lp362
g4
(g8
S'\xfb\xceF}g\xa3\xee?'
p363
tp364
Rp365
ag4
(g8
S'\xa0~\xfa\xe9\xa7\x9f\xee?'
p366
tp367
Rp368
aF0.08235979080200195
aI188
aS'kernel = 1 degree'
p369
ag4
(g8
S'<\x1b\xf5\x9d\x8d\xfa\xee?'
p370
tp371
Rp372
ag4
(g8
S'\x00\x00\x00\x00\x00\x00\xef?'
p373
tp374
Rp375
aF0.07146096229553223
aI188
aS'kernel = 1 degree'
p376
ag4
(g8
S'\x16\xc4\xe4\nbr\xed?'
p377
tp378
Rp379
ag4
(g8
S'}\xd6\r\xa6\xc8g\xed?'
p380
tp381
Rp382
aF0.07828593254089355
aI188
aS'kernel = 0 degree'
p383
aa(lp384
g4
(g8
S'\x1b\xf5\x9d\x8d\xfa\xce\xee?'
p385
tp386
Rp387
ag4
(g8
S'\x9a8\x8c\xd5\xd6\xdf\xee?'
p388
tp389
Rp390
aF0.054505109786987305
aI188
aS'kernel = 1 degree'
p391
ag4
(g8
S'}g\xa3\xbe\xb3Q\xef?'
p392
tp393
Rp394
ag4
(g8
S'\\\x8f\xc2\xf5(\\\xef?'
p395
tp396
Rp397
aF0.09439992904663086
aI188
aS'kernel = 1 degree'
p398
ag4
(g8
S'\x1b\xf5\x9d\x8d\xfa\xce\xee?'
p399
tp400
Rp401
ag4
(g8
S'\x9e\xed\xd9\x9e\xed\xd9\xee?'
p402
tp403
Rp404
aF0.07468700408935547
aI188
aS'kernel = 1 degree'
p405
aa(lp406
g4
(g8
S'\x1b\xf5\x9d\x8d\xfa\xce\xee?'
p407
tp408
Rp409
ag4
(g8
S'\x9a8\x8c\xd5\xd6\xdf\xee?'
p410
tp411
Rp412
aF0.07636308670043945
aI188
aS'kernel = 1 degree'
p413
ag4
(g8
S'\xda\xa8\xefl\xd4w\xee?'
p414
tp415
Rp416
ag4
(g8
S'\xa9Y\x7f\x06\xbf\x89\xee?'
p417
tp418
Rp419
aF0.08246302604675293
aI188
aS'kernel = 1 degree'
p420
ag4
(g8
S'\xf5\x9d\x8d\xfa\xceF\xed?'
p421
tp422
Rp423
ag4
(g8
S'Y\x1f\x1a\xebCc\xed?'
p424
tp425
Rp426
aF0.10660195350646973
aI188
aS'kernel = 1 degree'
p427
aa(lp428
g4
(g8
S']AL\xae &\xef?'
p429
tp430
Rp431
ag4
(g8
S"t\xf2\xd1\xc9G'\xef?"
p432
tp433
Rp434
aF0.05730795860290527
aI188
aS'kernel = 1 degree'
p435
ag4
(g8
S'\xb9\x82\x98\\AL\xee?'
p436
tp437
Rp438
ag4
(g8
S'\r\xe55\x94\xd7P\xee?'
p439
tp440
Rp441
aF0.07830095291137695
aI188
aS'kernel = 1 degree'
p442
ag4
(g8
S'\x16\xc4\xe4\nbr\xed?'
p443
tp444
Rp445
ag4
(g8
S'\x9e\xd8\x89\x9d\xd8\x89\xed?'
p446
tp447
Rp448
aF0.07074785232543945
aI188
aS'kernel = 1 degree'
p449
aa(lp450
g4
(g8
S'\xda\xa8\xefl\xd4w\xee?'
p451
tp452
Rp453
ag4
(g8
S'\x17\xe7\xa1cxq\xee?'
p454
tp455
Rp456
aF0.06904196739196777
aI188
aS'kernel = 1 degree'
p457
ag4
(g8
S'<\x1b\xf5\x9d\x8d\xfa\xee?'
p458
tp459
Rp460
ag4
(g8
S'\x1f\xef\xf1\x1e\xef\xf1\xee?'
p461
tp462
Rp463
aF0.06162309646606445
aI188
aS'kernel = 1 degree'
p464
ag4
(g8
S'r\x051\xb9\x82\x98\xec?'
p465
tp466
Rp467
ag4
(g8
S'\x1b\xcak(\xaf\xa1\xec?'
p468
tp469
Rp470
aF0.07551193237304688
aI188
aS'kernel = 1 degree'
p471
aa(lp472
g4
(g8
S'\x9e\x8d\xfa\xceF}\xef?'
p473
tp474
Rp475
ag4
(g8
S'\xb2\xf75!({\xef?'
p476
tp477
Rp478
aF0.0913090705871582
aI188
aS'kernel = 1 degree'
p479
ag4
(g8
S'W\x10\x93+\x88\xc9\xed?'
p480
tp481
Rp482
ag4
(g8
S'V,\x1b\xdf\x0c\xad\xed?'
p483
tp484
Rp485
aF0.08157896995544434
aI188
aS'kernel = 1 degree'
p486
ag4
(g8
S'\xcfF}g\xa3\xbe\xeb?'
p487
tp488
Rp489
ag4
(g8
S'\x7f($\x17\xf0z\xeb?'
p490
tp491
Rp492
aF0.07413196563720703
aI188
aS'kernel = 1 degree'
p493
aa(lp494
g4
(g8
S'<\x1b\xf5\x9d\x8d\xfa\xee?'
p495
tp496
Rp497
ag4
(g8
S'\xf8\xde{\xef\xbd\xf7\xee?'
p498
tp499
Rp500
aF0.07555294036865234
aI188
aS'kernel = 1 degree'
p501
ag4
(g8
S'\xfb\xceF}g\xa3\xee?'
p502
tp503
Rp504
ag4
(g8
S'\xa0~\xfa\xe9\xa7\x9f\xee?'
p505
tp506
Rp507
aF0.06251811981201172
aI188
aS'kernel = 1 degree'
p508
ag4
(g8
S'\x93+\x88\xc9\x15\xc4\xec?'
p509
tp510
Rp511
ag4
(g8
S'\x87\xcc\x1d2w\xc8\xec?'
p512
tp513
Rp514
aF0.062474966049194336
aI188
aS'kernel = 1 degree'
p515
aa(lp516
g4
(g8
S'\xfb\xceF}g\xa3\xee?'
p517
tp518
Rp519
ag4
(g8
S'a\xd2\xa9y\x90\xbb\xee?'
p520
tp521
Rp522
aF0.06903409957885742
aI188
aS'kernel = 1 degree'
p523
ag4
(g8
S'<\x1b\xf5\x9d\x8d\xfa\xee?'
p524
tp525
Rp526
ag4
(g8
S'\x08\x1f|\xf0\xc1\x07\xef?'
p527
tp528
Rp529
aF0.05172991752624512
aI188
aS'kernel = 1 degree'
p530
ag4
(g8
S'\xb4Q\xdf\xd9\xa8\xef\xec?'
p531
tp532
Rp533
ag4
(g8
S'X\x19\xbe\x11\x05&\xed?'
p534
tp535
Rp536
aF0.053708791732788086
aI188
aS'kernel = 1 degree'
p537
aa(lp538
g4
(g8
S'}g\xa3\xbe\xb3Q\xef?'
p539
tp540
Rp541
ag4
(g8
S'\\\x8f\xc2\xf5(\\\xef?'
p542
tp543
Rp544
aF0.06847405433654785
aI188
aS'kernel = 1 degree'
p545
ag4
(g8
S'<\x1b\xf5\x9d\x8d\xfa\xee?'
p546
tp547
Rp548
ag4
(g8
S'\x10\x0f\x0f\x0f\x0f\x0f\xef?'
p549
tp550
Rp551
aF0.0272982120513916
aI188
aS'kernel = 1 degree'
p552
ag4
(g8
S'\x1b\xf5\x9d\x8d\xfa\xce\xee?'
p553
tp554
Rp555
ag4
(g8
S'\xa5\x8e\x10\xdb\xb4\xe2\xee?'
p556
tp557
Rp558
aF0.05528688430786133
aI188
aS'kernel = 1 degree'
p559
aa(lp560
g4
(g8
S'\xfb\xceF}g\xa3\xee?'
p561
tp562
Rp563
ag4
(g8
S'a\xd2\xa9y\x90\xbb\xee?'
p564
tp565
Rp566
aF0.027351856231689453
aI188
aS'kernel = 1 degree'
p567
ag4
(g8
S'<\x1b\xf5\x9d\x8d\xfa\xee?'
p568
tp569
Rp570
ag4
(g8
S'\x0b\xd7\xa3p=\n\xef?'
p571
tp572
Rp573
aF0.054946184158325195
aI188
aS'kernel = 1 degree'
p574
ag4
(g8
S'6\xea;\x1b\xf5\x9d\xed?'
p575
tp576
Rp577
ag4
(g8
S'\xde,O"\xd3\xb0\xed?'
p578
tp579
Rp580
aF0.06195688247680664
aI188
aS'kernel = 1 degree'
p581
aa(lp582
g4
(g8
S'}g\xa3\xbe\xb3Q\xef?'
p583
tp584
Rp585
ag4
(g8
S'O?\xfd\xf4\xd3O\xef?'
p586
tp587
Rp588
aF0.06295013427734375
aI188
aS'kernel = 1 degree'
p589
ag4
(g8
S'}g\xa3\xbe\xb3Q\xef?'
p590
tp591
Rp592
ag4
(g8
S'O?\xfd\xf4\xd3O\xef?'
p593
tp594
Rp595
aF0.06381082534790039
aI188
aS'kernel = 1 degree'
p596
ag4
(g8
S'\xf0l\xd4w6\xea\xeb?'
p597
tp598
Rp599
ag4
(g8
S'T\xbf\xe7\x968\xf5\xeb?'
p600
tp601
Rp602
aF0.07315301895141602
aI188
aS'kernel = 1 degree'
p603
aa(lp604
g4
(g8
S'}g\xa3\xbe\xb3Q\xef?'
p605
tp606
Rp607
ag4
(g8
S'O?\xfd\xf4\xd3O\xef?'
p608
tp609
Rp610
aF0.06359314918518066
aI188
aS'kernel = 1 degree'
p611
ag4
(g8
S'\xda\xa8\xefl\xd4w\xee?'
p612
tp613
Rp614
ag4
(g8
S'\x18\xe7\xa1cxq\xee?'
p615
tp616
Rp617
aF0.07436704635620117
aI188
aS'kernel = 1 degree'
p618
ag4
(g8
S'\x1b\xf5\x9d\x8d\xfa\xce\xee?'
p619
tp620
Rp621
ag4
(g8
S'\x17\x90/\x12\xa5\xc6\xee?'
p622
tp623
Rp624
aF0.0648038387298584
aI188
aS'kernel = 1 degree'
p625
aa(lp626
g4
(g8
S'\x1b\xf5\x9d\x8d\xfa\xce\xee?'
p627
tp628
Rp629
ag4
(g8
S'\xa5\x8e\x10\xdb\xb4\xe2\xee?'
p630
tp631
Rp632
aF0.07864689826965332
aI188
aS'kernel = 1 degree'
p633
ag4
(g8
S'<\x1b\xf5\x9d\x8d\xfa\xee?'
p634
tp635
Rp636
ag4
(g8
S'\x08\x1f|\xf0\xc1\x07\xef?'
p637
tp638
Rp639
aF0.07992100715637207
aI188
aS'kernel = 1 degree'
p640
ag4
(g8
S'\x99\\AL\xae \xee?'
p641
tp642
Rp643
ag4
(g8
S'\x1f\xe31\x1e\xe31\xee?'
p644
tp645
Rp646
aF0.06619596481323242
aI188
aS'kernel = 1 degree'
p647
aa(lp648
g4
(g8
S']AL\xae &\xef?'
p649
tp650
Rp651
ag4
(g8
S'\x8b\x045\x15\xa2\r\xef?'
p652
tp653
Rp654
aF0.06940388679504395
aI188
aS'kernel = 1 degree'
p655
ag4
(g8
S'}g\xa3\xbe\xb3Q\xef?'
p656
tp657
Rp658
ag4
(g8
S'\xcf\xf3<\xcf\xf3<\xef?'
p659
tp660
Rp661
aF0.05292391777038574
aI188
aS'kernel = 1 degree'
p662
ag4
(g8
S'\x93+\x88\xc9\x15\xc4\xec?'
p663
tp664
Rp665
ag4
(g8
S'\xff\x9c\xed\xf8\x10\xa4\xec?'
p666
tp667
Rp668
aF0.04417681694030762
aI188
aS'kernel = 1 degree'
p669
aa(lp670
g4
(g8
S'x6\xea;\x1b\xf5\xed?'
p671
tp672
Rp673
ag4
(g8
S'\xa9\xdfsK\x9c\xfa\xed?'
p674
tp675
Rp676
aF0.07837700843811035
aI188
aS'kernel = 1 degree'
p677
ag4
(g8
S'\xd4w6\xea;\x1b\xed?'
p678
tp679
Rp680
ag4
(g8
S'\xe2\x95O\xc4l.\xed?'
p681
tp682
Rp683
aF0.028095006942749023
aI188
aS'kernel = 1 degree'
p684
ag4
(g8
S'\x99\\AL\xae \xee?'
p685
tp686
Rp687
ag4
(g8
S'\x1f\xe31\x1e\xe31\xee?'
p688
tp689
Rp690
aF0.043601036071777344
aI188
aS'kernel = 1 degree'
p691
aa(lp692
g4
(g8
S'\x1b\xf5\x9d\x8d\xfa\xce\xee?'
p693
tp694
Rp695
ag4
(g8
S'\xf3R"x\xa4\xbf\xee?'
p696
tp697
Rp698
aF0.03226613998413086
aI188
aS'kernel = 1 degree'
p699
ag4
(g8
S'\x9e\x8d\xfa\xceF}\xef?'
p700
tp701
Rp702
ag4
(g8
S"\xc7V\x04\r'u\xef?"
p703
tp704
Rp705
aF0.07561898231506348
aI188
aS'kernel = 1 degree'
p706
ag4
(g8
S'\x99\\AL\xae \xee?'
p707
tp708
Rp709
ag4
(g8
S'kyc\x04\x13\xfd\xed?'
p710
tp711
Rp712
aF0.09340906143188477
aI188
aS'kernel = 1 degree'
p713
aa(lp714
g4
(g8
S'\x1b\xf5\x9d\x8d\xfa\xce\xee?'
p715
tp716
Rp717
ag4
(g8
S'\x9f\xed\xd9\x9e\xed\xd9\xee?'
p718
tp719
Rp720
aF0.07236909866333008
aI188
aS'kernel = 1 degree'
p721
ag4
(g8
S'<\x1b\xf5\x9d\x8d\xfa\xee?'
p722
tp723
Rp724
ag4
(g8
S'`\\\xfd\xa0\xa3\x02\xef?'
p725
tp726
Rp727
aF0.027369022369384766
aI188
aS'kernel = 1 degree'
p728
ag4
(g8
S'r\x051\xb9\x82\x98\xec?'
p729
tp730
Rp731
ag4
(g8
S'\x1b\xcak(\xaf\xa1\xec?'
p732
tp733
Rp734
aF0.07811284065246582
aI188
aS'kernel = 1 degree'
p735
aa(lp736
g4
(g8
S'm\xd4w6\xea;\xeb?'
p737
tp738
Rp739
ag4
(g8
S'\xb0{\xdd\xeb^\xf7\xea?'
p740
tp741
Rp742
aF0.06656312942504883
aI188
aS'kernel = 1 degree'
p743
ag4
(g8
S'\xd4w6\xea;\x1b\xed?'
p744
tp745
Rp746
ag4
(g8
S'\xf4\xd01\xbc8\x0f\xed?'
p747
tp748
Rp749
aF0.07702898979187012
aI188
aS'kernel = 1 degree'
p750
ag4
(g8
S'<\x1b\xf5\x9d\x8d\xfa\xee?'
p751
tp752
Rp753
ag4
(g8
S'=\x1b\xf5\x9d\x8d\xfa\xee?'
p754
tp755
Rp756
aF0.06413483619689941
aI188
aS'kernel = 1 degree'
p757
aa(lp758
g4
(g8
S'W\x10\x93+\x88\xc9\xed?'
p759
tp760
Rp761
ag4
(g8
S'a\xcd\x12\xe3S\xa6\xed?'
p762
tp763
Rp764
aF0.03936886787414551
aI188
aS'kernel = 1 degree'
p765
ag4
(g8
S'\xfb\xceF}g\xa3\xee?'
p766
tp767
Rp768
ag4
(g8
S'\xc5@\to4u\xee?'
p769
tp770
Rp771
aF0.0603940486907959
aI188
aS'kernel = 1 degree'
p772
ag4
(g8
S'\x93+\x88\xc9\x15\xc4\xec?'
p773
tp774
Rp775
ag4
(g8
S'\xd0. 6\x95\x86\xec?'
p776
tp777
Rp778
aF0.028435945510864258
aI188
aS'kernel = 1 degree'
p779
aa(lp780
g4
(g8
S'\xda\xa8\xefl\xd4w\xee?'
p781
tp782
Rp783
ag4
(g8
S'\x17\xe7\xa1cxq\xee?'
p784
tp785
Rp786
aF0.059777021408081055
aI188
aS'kernel = 1 degree'
p787
ag4
(g8
S'\xf5\x9d\x8d\xfa\xceF\xed?'
p788
tp789
Rp790
ag4
(g8
S'\xd4\x9b\xde\xf4\xa67\xed?'
p791
tp792
Rp793
aF0.0449671745300293
aI188
aS'kernel = 1 degree'
p794
ag4
(g8
S'x6\xea;\x1b\xf5\xed?'
p795
tp796
Rp797
ag4
(g8
S'\xf0\xbd\xf7\xde{\xef\xed?'
p798
tp799
Rp800
aF0.027456045150756836
aI188
aS'kernel = 1 degree'
p801
aa(lp802
g4
(g8
S'\x1b\xf5\x9d\x8d\xfa\xce\xee?'
p803
tp804
Rp805
ag4
(g8
S'GX\xeei\x84\xe5\xee?'
p806
tp807
Rp808
aF0.06670212745666504
aI188
aS'kernel = 1 degree'
p809
ag4
(g8
S'\xfb\xceF}g\xa3\xee?'
p810
tp811
Rp812
ag4
(g8
S'\xb8\x1e\x85\xebQ\xb8\xee?'
p813
tp814
Rp815
aF0.06252002716064453
aI188
aS'kernel = 1 degree'
p816
ag4
(g8
S'\x99\\AL\xae \xee?'
p817
tp818
Rp819
ag4
(g8
S'(\xe0\xd0|\xae?\xee?'
p820
tp821
Rp822
aF0.027379989624023438
aI188
aS'kernel = 1 degree'
p823
aa(lp824
g4
(g8
S'\xda\xa8\xefl\xd4w\xee?'
p825
tp826
Rp827
ag4
(g8
S'\x17\xe7\xa1cxq\xee?'
p828
tp829
Rp830
aF0.027400970458984375
aI188
aS'kernel = 1 degree'
p831
ag4
(g8
S'\xfb\xceF}g\xa3\xee?'
p832
tp833
Rp834
ag4
(g8
S'\xa0~\xfa\xe9\xa7\x9f\xee?'
p835
tp836
Rp837
aF0.03597402572631836
aI188
aS'kernel = 1 degree'
p838
ag4
(g8
S'6\xea;\x1b\xf5\x9d\xed?'
p839
tp840
Rp841
ag4
(g8
S'.\xd8\x82-\xd8\x82\xed?'
p842
tp843
Rp844
aF0.06407594680786133
aI188
aS'kernel = 1 degree'
p845
aa(lp846
g4
(g8
S'\x1b\xf5\x9d\x8d\xfa\xce\xee?'
p847
tp848
Rp849
ag4
(g8
S'\xf3R"x\xa4\xbf\xee?'
p850
tp851
Rp852
aF0.059999942779541016
aI188
aS'kernel = 1 degree'
p853
ag4
(g8
S'\x9e\x8d\xfa\xceF}\xef?'
p854
tp855
Rp856
ag4
(g8
S'\x05\xc4\xa6\xd2\x90s\xef?'
p857
tp858
Rp859
aF0.028389930725097656
aI188
aS'kernel = 1 degree'
p860
ag4
(g8
S'\xb4Q\xdf\xd9\xa8\xef\xec?'
p861
tp862
Rp863
ag4
(g8
S'\xcd\xcc\xcc\xcc\xcc\xcc\xec?'
p864
tp865
Rp866
aF0.02757883071899414
aI188
aS'kernel = 1 degree'
p867
aa(lp868
g4
(g8
S'\x1b\xf5\x9d\x8d\xfa\xce\xee?'
p869
tp870
Rp871
ag4
(g8
S'\x9a8\x8c\xd5\xd6\xdf\xee?'
p872
tp873
Rp874
aF0.027771949768066406
aI188
aS'kernel = 1 degree'
p875
ag4
(g8
S'\xb9\x82\x98\\AL\xee?'
p876
tp877
Rp878
ag4
(g8
S'ffffff\xee?'
p879
tp880
Rp881
aF0.02759099006652832
aI188
aS'kernel = 1 degree'
p882
ag4
(g8
S'\xb9\x82\x98\\AL\xee?'
p883
tp884
Rp885
ag4
(g8
S'\xba\x82\x98\\AL\xee?'
p886
tp887
Rp888
aF0.026859045028686523
aI188
aS'kernel = 1 degree'
p889
aa(lp890
g4
(g8
S'x6\xea;\x1b\xf5\xed?'
p891
tp892
Rp893
ag4
(g8
S'\xa9\xdfsK\x9c\xfa\xed?'
p894
tp895
Rp896
aF0.028645992279052734
aI188
aS'kernel = 1 degree'
p897
ag4
(g8
S'\x16\xc4\xe4\nbr\xed?'
p898
tp899
Rp900
ag4
(g8
S'q\x95)`>\x90\xed?'
p901
tp902
Rp903
aF0.028140783309936523
aI188
aS'kernel = 1 degree'
p904
ag4
(g8
S'\xd4w6\xea;\x1b\xed?'
p905
tp906
Rp907
ag4
(g8
S'\x16]t\xd1E\x17\xed?'
p908
tp909
Rp910
aF0.027478933334350586
aI188
aS'kernel = 1 degree'
p911
aa(lp912
g4
(g8
S'\xfb\xceF}g\xa3\xee?'
p913
tp914
Rp915
ag4
(g8
S'O\xec\xc4N\xec\xc4\xee?'
p916
tp917
Rp918
aF0.07186079025268555
aI188
aS'kernel = 1 degree'
p919
ag4
(g8
S'\x1b\xf5\x9d\x8d\xfa\xce\xee?'
p920
tp921
Rp922
ag4
(g8
S'\xe8^\x84\xeeE\xe8\xee?'
p923
tp924
Rp925
aF0.02656388282775879
aI188
aS'kernel = 1 degree'
p926
ag4
(g8
S'R\xdf\xd9\xa8\xefl\xec?'
p927
tp928
Rp929
ag4
(g8
S'\xf0\xab1\x91\x1e\xa8\xec?'
p930
tp931
Rp932
aF0.06128406524658203
aI188
aS'kernel = 0 degree'
p933
aa(lp934
g4
(g8
S']AL\xae &\xef?'
p935
tp936
Rp937
ag4
(g8
S'\xd0\xdb\xa4\xbb\x8c)\xef?'
p938
tp939
Rp940
aF0.02891993522644043
aI188
aS'kernel = 1 degree'
p941
ag4
(g8
S'\x16\xc4\xe4\nbr\xed?'
p942
tp943
Rp944
ag4
(g8
S'\x95\x0bQ7\x83\x96\xed?'
p945
tp946
Rp947
aF0.027333974838256836
aI188
aS'kernel = 1 degree'
p948
ag4
(g8
S'\xd4w6\xea;\x1b\xed?'
p949
tp950
Rp951
ag4
(g8
S'\xf3\xd01\xbc8\x0f\xed?'
p952
tp953
Rp954
aF0.02727198600769043
aI188
aS'kernel = 1 degree'
p955
aa(lp956
g4
(g8
S'}g\xa3\xbe\xb3Q\xef?'
p957
tp958
Rp959
ag4
(g8
S'\x05j\xfdJ\x81Z\xef?'
p960
tp961
Rp962
aF0.02729511260986328
aI188
aS'kernel = 1 degree'
p963
ag4
(g8
S'\xda\xa8\xefl\xd4w\xee?'
p964
tp965
Rp966
ag4
(g8
S'\xc9\x03W\xd1\xce\x94\xee?'
p967
tp968
Rp969
aF0.02807903289794922
aI188
aS'kernel = 1 degree'
p970
ag4
(g8
S'\xb9\x82\x98\\AL\xee?'
p971
tp972
Rp973
ag4
(g8
S'ffffff\xee?'
p974
tp975
Rp976
aF0.028143882751464844
aI188
aS'kernel = 1 degree'
p977
aa(lp978
g4
(g8
S'\xb9\x82\x98\\AL\xee?'
p979
tp980
Rp981
ag4
(g8
S'e!\x0bY\xc8B\xee?'
p982
tp983
Rp984
aF0.08494114875793457
aI188
aS'kernel = 1 degree'
p985
ag4
(g8
S'\xda\xa8\xefl\xd4w\xee?'
p986
tp987
Rp988
ag4
(g8
S'\xf2!H\xb9\xa9h\xee?'
p989
tp990
Rp991
aF0.027695178985595703
aI188
aS'kernel = 1 degree'
p992
ag4
(g8
S'\x99\\AL\xae \xee?'
p993
tp994
Rp995
ag4
(g8
S'59\xc8\xbc\x94\x08\xee?'
p996
tp997
Rp998
aF0.0282440185546875
aI188
aS'kernel = 1 degree'
p999
aa(lp1000
g4
(g8
S'W\x10\x93+\x88\xc9\xed?'
p1001
tp1002
Rp1003
ag4
(g8
S'\x1d\xd5\xdf\xe7m\xd2\xed?'
p1004
tp1005
Rp1006
aF0.017376184463500977
aI188
aS'kernel = 1 degree'
p1007
ag4
(g8
S'}g\xa3\xbe\xb3Q\xef?'
p1008
tp1009
Rp1010
ag4
(g8
S'8\xf5{n\x89S\xef?'
p1011
tp1012
Rp1013
aF0.028393983840942383
aI188
aS'kernel = 1 degree'
p1014
ag4
(g8
S'\x16\xc4\xe4\nbr\xed?'
p1015
tp1016
Rp1017
ag4
(g8
S'o\x93\xee2\xa6|\xed?'
p1018
tp1019
Rp1020
aF0.04058504104614258
aI188
aS'kernel = 0 degree'
p1021
aa(lp1022
g4
(g8
S'<\x1b\xf5\x9d\x8d\xfa\xee?'
p1023
tp1024
Rp1025
ag4
(g8
S'oz\xd3\x9b\xde\xf4\xee?'
p1026
tp1027
Rp1028
aF0.028776168823242188
aI188
aS'kernel = 1 degree'
p1029
ag4
(g8
S'\xfb\xceF}g\xa3\xee?'
p1030
tp1031
Rp1032
ag4
(g8
S'q\xea\xf7\xdc\x12\xa7\xee?'
p1033
tp1034
Rp1035
aF0.027463197708129883
aI188
aS'kernel = 1 degree'
p1036
ag4
(g8
S'\xda\xa8\xefl\xd4w\xee?'
p1037
tp1038
Rp1039
ag4
(g8
S'\x18\xe7\xa1cxq\xee?'
p1040
tp1041
Rp1042
aF0.07726311683654785
aI188
aS'kernel = 1 degree'
p1043
aa(lp1044
g4
(g8
S'<\x1b\xf5\x9d\x8d\xfa\xee?'
p1045
tp1046
Rp1047
ag4
(g8
S'\x00\x00\x00\x00\x00\x00\xef?'
p1048
tp1049
Rp1050
aF0.027288198471069336
aI188
aS'kernel = 1 degree'
p1051
ag4
(g8
S'\xfb\xceF}g\xa3\xee?'
p1052
tp1053
Rp1054
ag4
(g8
S'\xfc\xceF}g\xa3\xee?'
p1055
tp1056
Rp1057
aF0.031109094619750977
aI188
aS'kernel = 1 degree'
p1058
ag4
(g8
S'\x10\x93+\x88\xc9\x15\xec?'
p1059
tp1060
Rp1061
ag4
(g8
S'\xb3\xc1\xc5\x06\x17\x1b\xec?'
p1062
tp1063
Rp1064
aF0.027354001998901367
aI188
aS'kernel = 1 degree'
p1065
aa(lp1066
g4
(g8
S'<\x1b\xf5\x9d\x8d\xfa\xee?'
p1067
tp1068
Rp1069
ag4
(g8
S'\xe8\xa2\x8b.\xba\xe8\xee?'
p1070
tp1071
Rp1072
aF0.02796196937561035
aI188
aS'kernel = 1 degree'
p1073
ag4
(g8
S'W\x10\x93+\x88\xc9\xed?'
p1074
tp1075
Rp1076
ag4
(g8
S'\xc4\xa6\xd2\x90s\x9f\xed?'
p1077
tp1078
Rp1079
aF0.017019033432006836
aI188
aS'kernel = 1 degree'
p1080
ag4
(g8
S',\x88\xc9\x15\xc4\xe4\xea?'
p1081
tp1082
Rp1083
ag4
(g8
S'\x92$I\x92$I\xea?'
p1084
tp1085
Rp1086
aF0.0290529727935791
aI188
aS'kernel = 1 degree'
p1087
aa(lp1088
g4
(g8
S'\xfb\xceF}g\xa3\xee?'
p1089
tp1090
Rp1091
ag4
(g8
S'\x7f\xd0Q\x81/\xae\xee?'
p1092
tp1093
Rp1094
aF0.04229307174682617
aI188
aS'kernel = 1 degree'
p1095
ag4
(g8
S'\xfb\xceF}g\xa3\xee?'
p1096
tp1097
Rp1098
ag4
(g8
S'\xab\xaa\xaa\xaa\xaa\xaa\xee?'
p1099
tp1100
Rp1101
aF0.017274141311645508
aI188
aS'kernel = 1 degree'
p1102
ag4
(g8
S'<\x1b\xf5\x9d\x8d\xfa\xee?'
p1103
tp1104
Rp1105
ag4
(g8
S'\x08\x1f|\xf0\xc1\x07\xef?'
p1106
tp1107
Rp1108
aF0.027050018310546875
aI188
aS'kernel = 1 degree'
p1109
aas.