(dp0
S'austra'
p1
(lp2
(lp3
cnumpy.core.multiarray
scalar
p4
(cnumpy
dtype
p5
(S'f8'
p6
I0
I1
tp7
Rp8
(I3
S'<'
p9
NNNI-1
I-1
I0
tp10
bS'\xf6\x02\xb69]\xe5\xe9?'
p11
tp12
Rp13
ag4
(g8
S'Zd;\xdfO\x8d\xe7?'
p14
tp15
Rp16
aF0.05085897445678711
aI173
aS'kernel = 0 degree'
p17
ag4
(g8
S'\x84#\x88\xb4^\xc0\xe6?'
p18
tp19
Rp20
ag4
(g8
S'F\x89\x9fQ\xe2g\xe4?'
p21
tp22
Rp23
aF0.04902291297912598
aI173
aS'kernel = 0 degree'
p24
ag4
(g8
S'7\xa7\xab<\x13\x1f\xe7?'
p25
tp26
Rp27
ag4
(g8
S'uP\x07uP\x07\xe5?'
p28
tp29
Rp30
aF0.05843496322631836
aI173
aS'kernel = 0 degree'
p31
aa(lp32
g4
(g8
S'\x84#\x88\xb4^\xc0\xe6?'
p33
tp34
Rp35
ag4
(g8
S'%I\x92$I\x92\xe4?'
p36
tp37
Rp38
aF0.03304576873779297
aI173
aS'kernel = 0 degree'
p39
ag4
(g8
S'\xaaavp\x04\x91\xe6?'
p40
tp41
Rp42
ag4
(g8
S'd\x9e>ZMB\xe4?'
p43
tp44
Rp45
aF0.03483390808105469
aI173
aS'kernel = 0 degree'
p46
ag4
(g8
S'\x03\xb69]\xe5\x99\xe8?'
p47
tp48
Rp49
ag4
(g8
S'\\t\xd1E\x17]\xe4?'
p50
tp51
Rp52
aF0.04065895080566406
aI173
aS'kernel = 0 degree'
p53
aa(lp54
g4
(g8
S'\x9d\xae\xf2L|\xdc\xe7?'
p55
tp56
Rp57
ag4
(g8
S'];0\xd7\x0e\xcc\xe5?'
p58
tp59
Rp60
aF0.041758060455322266
aI173
aS'kernel = 0 degree'
p61
ag4
(g8
S'DZ/`\x9b\xd3\xe5?'
p62
tp63
Rp64
ag4
(g8
S'\xd4)\x7f\xd4)\x7f\xe4?'
p65
tp66
Rp67
aF0.012256860733032227
aI173
aS'kernel = 0 degree'
p68
ag4
(g8
S'7\xa7\xab<\x13\x1f\xe7?'
p69
tp70
Rp71
ag4
(g8
S'tP\x07uP\x07\xe5?'
p72
tp73
Rp74
aF0.04661893844604492
aI173
aS'kernel = 0 degree'
p75
aa(lp76
g4
(g8
S'k\x98\x1d\x1cA\xa4\xe5?'
p77
tp78
Rp79
ag4
(g8
S',l\x0e$Za\xe3?'
p80
tp81
Rp82
aF0.014168024063110352
aI173
aS'kernel = 0 degree'
p83
ag4
(g8
S'\xdcwK\xa1?\xc9\xe8?'
p84
tp85
Rp86
ag4
(g8
S'\xbd\xf0^x/\xbc\xe7?'
p87
tp88
Rp89
aF0.012243986129760742
aI173
aS'kernel = 0 degree'
p90
ag4
(g8
S'\xdeR\xe8O2\x16\xe5?'
p91
tp92
Rp93
ag4
(g8
S'\xca\xc4\x95\xee\r(\xe3?'
p94
tp95
Rp96
aF0.03829383850097656
aI173
aS'kernel = 0 degree'
p97
aa(lp98
g4
(g8
S'7\xa7\xab<\x13\x1f\xe7?'
p99
tp100
Rp101
ag4
(g8
S'\xf2Y7\x98"\x9f\xe5?'
p102
tp103
Rp104
aF0.04148697853088379
aI173
aS'kernel = 0 degree'
p105
ag4
(g8
S'\xd1\x9fd,\xaaa\xe6?'
p106
tp107
Rp108
ag4
(g8
S'\x05\x89V\xd8\x1cH\xe4?'
p109
tp110
Rp111
aF0.03584599494934082
aI173
aS'kernel = 0 degree'
p112
ag4
(g8
S'\x10i\xbd\x80mN\xe7?'
p113
tp114
Rp115
ag4
(g8
S'\xb0(X\x14,\n\xe6?'
p116
tp117
Rp118
aF0.036607980728149414
aI173
aS'kernel = 0 degree'
p119
aa(lp120
g4
(g8
S'\xb69]\xe5\x99\xf8\xe8?'
p121
tp122
Rp123
ag4
(g8
S'\x01\x00\x00\x00\x00\x00\xe8?'
p124
tp125
Rp126
aF0.03201484680175781
aI173
aS'kernel = 0 degree'
p127
ag4
(g8
S"\x90\xfbn)\xf4'\xe9?"
p128
tp129
Rp130
ag4
(g8
S'Q\xa6\xe2\xb9fu\xe8?'
p131
tp132
Rp133
aF0.01401209831237793
aI173
aS'kernel = 0 degree'
p134
ag4
(g8
S")\xf4'\x19\x8bj\xe8?"
p135
tp136
Rp137
ag4
(g8
S'n\xc4\xba\xf4\x98\xbf\xe7?'
p138
tp139
Rp140
aF0.024080991744995117
aI173
aS'kernel = 0 degree'
p141
aa(lp142
g4
(g8
S'vp\x04\x91\xd6\x0b\xe8?'
p143
tp144
Rp145
ag4
(g8
S'X\xac\x01W\xac\x01\xe7?'
p146
tp147
Rp148
aF0.014168977737426758
aI173
aS'kernel = 0 degree'
p149
ag4
(g8
S")\xf4'\x19\x8bj\xe8?"
p150
tp151
Rp152
ag4
(g8
S'\xfa\xd3\x16\x1a\xb0\xa4\xe7?'
p153
tp154
Rp155
aF0.0319361686706543
aI173
aS'kernel = 0 degree'
p156
ag4
(g8
S'\x1cA\xa4\xf5\x02\xb6\xe9?'
p157
tp158
Rp159
ag4
(g8
S'\xd2\n\x9b\x03\x89V\xe8?'
p160
tp161
Rp162
aF0.011445999145507812
aI173
aS'kernel = 0 degree'
p163
aa(lp164
g4
(g8
S'P2\x16\xd50;\xe8?'
p165
tp166
Rp167
ag4
(g8
S'\xb7l\xd9\xb2e\xcb\xe6?'
p168
tp169
Rp170
aF0.017765045166015625
aI173
aS'kernel = 0 degree'
p171
ag4
(g8
S'vp\x04\x91\xd6\x0b\xe8?'
p172
tp173
Rp174
ag4
(g8
S'X\xac\x01W\xac\x01\xe7?'
p175
tp176
Rp177
aF0.012642860412597656
aI173
aS'kernel = 0 degree'
p178
ag4
(g8
S'\xf7\xddR\xe8O2\xe6?'
p179
tp180
Rp181
ag4
(g8
S'\xff6\xc5\xa8\xe1o\xe3?'
p182
tp183
Rp184
aF0.01102900505065918
aI173
aS'kernel = 0 degree'
p185
aa(lp186
g4
(g8
S'7\xa7\xab<\x13\x1f\xe7?'
p187
tp188
Rp189
ag4
(g8
S'\x8f\xec\x19\x88JG\xe6?'
p190
tp191
Rp192
aF0.013903141021728516
aI173
aS'kernel = 0 degree'
p193
ag4
(g8
S'\xb7\x14\xfa\x93\x8cE\xe5?'
p194
tp195
Rp196
ag4
(g8
S'\xa4A\x1a\xa4A\x1a\xe4?'
p197
tp198
Rp199
aF0.012288093566894531
aI173
aS'kernel = 0 degree'
p200
ag4
(g8
S']\xe5\x99\xf8\xb8\xef\xe6?'
p201
tp202
Rp203
ag4
(g8
S']z\xcc\xdfk#\xe6?'
p204
tp205
Rp206
aF0.011035919189453125
aI173
aS'kernel = 0 degree'
p207
aa(lp208
g4
(g8
S'\xf7\xddR\xe8O2\xe6?'
p209
tp210
Rp211
ag4
(g8
S'\x1e\xb5\x08\xf9kv\xe4?'
p212
tp213
Rp214
aF0.021635055541992188
aI173
aS'kernel = 0 degree'
p215
ag4
(g8
S'\x91\xd6\x0b\xd8\xe6t\xe5?'
p216
tp217
Rp218
ag4
(g8
S'%\xbb6Q\xb2k\xe3?'
p219
tp220
Rp221
aF0.012713909149169922
aI173
aS'kernel = 0 degree'
p222
ag4
(g8
S'k\x98\x1d\x1cA\xa4\xe5?'
p223
tp224
Rp225
ag4
(g8
S'eMYS\xd6\x94\xe5?'
p226
tp227
Rp228
aF0.007133960723876953
aI173
aS'kernel = 0 degree'
p229
aa(lp230
g4
(g8
S'\x1e\x1cA\xa4\xf5\x02\xe6?'
p231
tp232
Rp233
ag4
(g8
S'\x98z2~\xbb\xd4\xe3?'
p234
tp235
Rp236
aF0.013749837875366211
aI173
aS'kernel = 0 degree'
p237
ag4
(g8
S'\xd1\x9fd,\xaaa\xe6?'
p238
tp239
Rp240
ag4
(g8
S'\x1bL\x91\xcf\xba\xc1\xe4?'
p241
tp242
Rp243
aF0.012296199798583984
aI173
aS'kernel = 0 degree'
p244
ag4
(g8
S'\x91\xd6\x0b\xd8\xe6t\xe5?'
p245
tp246
Rp247
ag4
(g8
S'Q\xfcE\xce\xb0\xe0\xe2?'
p248
tp249
Rp250
aF0.007192134857177734
aI173
aS'kernel = 0 degree'
p251
aa(lp252
g4
(g8
S'vp\x04\x91\xd6\x0b\xe8?'
p253
tp254
Rp255
ag4
(g8
S'\xce\x82j\xcf\xc9\xf4\xe5?'
p256
tp257
Rp258
aF0.009088993072509766
aI173
aS'kernel = 0 degree'
p259
ag4
(g8
S'\x9d\xae\xf2L|\xdc\xe7?'
p260
tp261
Rp262
ag4
(g8
S'\xf4@\xe5\xec\x16~\xe5?'
p263
tp264
Rp265
aF0.007894039154052734
aI173
aS'kernel = 0 degree'
p266
ag4
(g8
S']\xe5\x99\xf8\xb8\xef\xe6?'
p267
tp268
Rp269
ag4
(g8
S'\xacvV;\xab\x9d\xe5?'
p270
tp271
Rp272
aF0.007037162780761719
aI173
aS'kernel = 0 degree'
p273
aa(lp274
g4
(g8
S'7\xa7\xab<\x13\x1f\xe7?'
p275
tp276
Rp277
ag4
(g8
S'\xdb\xa5\x9e\x8c\xdf.\xe5?'
p278
tp279
Rp280
aF0.008457183837890625
aI173
aS'kernel = 0 degree'
p281
ag4
(g8
S']\xe5\x99\xf8\xb8\xef\xe6?'
p282
tp283
Rp284
ag4
(g8
S'\xa7\xad\xf1w\xf3\x08\xe5?'
p285
tp286
Rp287
aF0.0077550411224365234
aI173
aS'kernel = 0 degree'
p288
ag4
(g8
S'\xf7\xddR\xe8O2\xe6?'
p289
tp290
Rp291
ag4
(g8
S'\xa6\x12S\x89\xa9\xc4\xe4?'
p292
tp293
Rp294
aF0.011196136474609375
aI173
aS'kernel = 0 degree'
p295
aa(lp296
g4
(g8
S'k\x98\x1d\x1cA\xa4\xe5?'
p297
tp298
Rp299
ag4
(g8
S'E>\xeb\x06S\xe4\xe3?'
p300
tp301
Rp302
aF0.008714914321899414
aI173
aS'kernel = 0 degree'
p303
ag4
(g8
S'\xd1\x9fd,\xaaa\xe6?'
p304
tp305
Rp306
ag4
(g8
S'VUUUUU\xe5?'
p307
tp308
Rp309
aF0.0126800537109375
aI173
aS'kernel = 0 degree'
p310
ag4
(g8
S'DZ/`\x9b\xd3\xe5?'
p311
tp312
Rp313
ag4
(g8
S'\xd2\xc2\x19\x10J\xee\xe4?'
p314
tp315
Rp316
aF0.007111072540283203
aI173
aS'kernel = 0 degree'
p317
aa(lp318
g4
(g8
S'7\xa7\xab<\x13\x1f\xe7?'
p319
tp320
Rp321
ag4
(g8
S'\xf2Y7\x98"\x9f\xe5?'
p322
tp323
Rp324
aF0.010795831680297852
aI173
aS'kernel = 0 degree'
p325
ag4
(g8
S'\xd1\x9fd,\xaaa\xe6?'
p326
tp327
Rp328
ag4
(g8
S'\xa5I\x93&M\x9a\xe4?'
p329
tp330
Rp331
aF0.012788057327270508
aI173
aS'kernel = 0 degree'
p332
ag4
(g8
S'P2\x16\xd50;\xe8?'
p333
tp334
Rp335
ag4
(g8
S'\xab\xaa\xaa\xaa\xaa\xaa\xe6?'
p336
tp337
Rp338
aF0.00708317756652832
aI173
aS'kernel = 0 degree'
p339
aa(lp340
g4
(g8
S'\x9d\xae\xf2L|\xdc\xe7?'
p341
tp342
Rp343
ag4
(g8
S'\xb5\xc2\xe6@\xa2\x15\xe6?'
p344
tp345
Rp346
aF0.008605003356933594
aI173
aS'kernel = 0 degree'
p347
ag4
(g8
S'\x84#\x88\xb4^\xc0\xe6?'
p348
tp349
Rp350
ag4
(g8
S'p\x97z2~\xbb\xe4?'
p351
tp352
Rp353
aF0.007688045501708984
aI173
aS'kernel = 0 degree'
p354
ag4
(g8
S'\xb69]\xe5\x99\xf8\xe8?'
p355
tp356
Rp357
ag4
(g8
S'\xc9&\x9bl\xb2\xc9\xe6?'
p358
tp359
Rp360
aF0.007956981658935547
aI173
aS'kernel = 0 degree'
p361
aa(lp362
g4
(g8
S'\xf7\xddR\xe8O2\xe6?'
p363
tp364
Rp365
ag4
(g8
S'\x9a\xb6\xc6\xdf\xcd#\xe4?'
p366
tp367
Rp368
aF0.008894920349121094
aI173
aS'kernel = 0 degree'
p369
ag4
(g8
S'\xaaavp\x04\x91\xe6?'
p370
tp371
Rp372
ag4
(g8
S'VUUUUU\xe5?'
p373
tp374
Rp375
aF0.0077419281005859375
aI173
aS'kernel = 0 degree'
p376
ag4
(g8
S'\xd1\x9fd,\xaaa\xe6?'
p377
tp378
Rp379
ag4
(g8
S'\xb0\x8e6\xefS\\\xe2?'
p380
tp381
Rp382
aF0.007277011871337891
aI173
aS'kernel = 0 degree'
p383
aa(lp384
g4
(g8
S'\x10i\xbd\x80mN\xe7?'
p385
tp386
Rp387
ag4
(g8
S'q\xa5{\x03\xca\xc4\xe5?'
p388
tp389
Rp390
aF0.04404807090759277
aI173
aS'kernel = 0 degree'
p391
ag4
(g8
S'\xaaavp\x04\x91\xe6?'
p392
tp393
Rp394
ag4
(g8
S'\x94>\xe9\x93>\xe9\xe3?'
p395
tp396
Rp397
aF0.02036905288696289
aI173
aS'kernel = 0 degree'
p398
ag4
(g8
S'\xc3\xec\xe0\x08"\xad\xe7?'
p399
tp400
Rp401
ag4
(g8
S'\xe0IA\xf2\xe7U\xe6?'
p402
tp403
Rp404
aF0.035301923751831055
aI173
aS'kernel = 0 degree'
p405
aa(lp406
g4
(g8
S'\xd1\x9fd,\xaaa\xe6?'
p407
tp408
Rp409
ag4
(g8
S'\x1cL\x91\xcf\xba\xc1\xe4?'
p410
tp411
Rp412
aF0.03362703323364258
aI173
aS'kernel = 0 degree'
p413
ag4
(g8
S'\xd1\x9fd,\xaaa\xe6?'
p414
tp415
Rp416
ag4
(g8
S'?\xa3\xc4\xcf(\xf1\xe3?'
p417
tp418
Rp419
aF0.02402496337890625
aI173
aS'kernel = 0 degree'
p420
ag4
(g8
S'\x84#\x88\xb4^\xc0\xe6?'
p421
tp422
Rp423
ag4
(g8
S'\xac)k\xca\x9a\xb2\xe6?'
p424
tp425
Rp426
aF0.03233695030212402
aI173
aS'kernel = 0 degree'
p427
aa(lp428
g4
(g8
S'\xf7\xddR\xe8O2\xe6?'
p429
tp430
Rp431
ag4
(g8
S'\xa0\xbbJ1Aw\xe5?'
p432
tp433
Rp434
aF0.05957984924316406
aI173
aS'kernel = 0 degree'
p435
ag4
(g8
S'xK\xa1?\xc9X\xe4?'
p436
tp437
Rp438
ag4
(g8
S';\x7f\x8b\xd3\x9a\xed\xe3?'
p439
tp440
Rp441
aF0.019482851028442383
aI173
aS'kernel = 0 degree'
p442
ag4
(g8
S'\xc3\xec\xe0\x08"\xad\xe7?'
p443
tp444
Rp445
ag4
(g8
S'(\x87\xcb\x80O\x0e\xe7?'
p446
tp447
Rp448
aF0.011207103729248047
aI173
aS'kernel = 0 degree'
p449
aa(lp450
g4
(g8
S'\xaaavp\x04\x91\xe6?'
p451
tp452
Rp453
ag4
(g8
S'\xe3\xc5\x96\xe0\xdb\xfc\xe5?'
p454
tp455
Rp456
aF0.028232097625732422
aI173
aS'kernel = 0 degree'
p457
ag4
(g8
S'\xea*\xcf\xc4\xc7}\xe7?'
p458
tp459
Rp460
ag4
(g8
S'\xc6W|\xc5W|\xe5?'
p461
tp462
Rp463
aF0.012501001358032227
aI173
aS'kernel = 0 degree'
p464
ag4
(g8
S'7\xa7\xab<\x13\x1f\xe7?'
p465
tp466
Rp467
ag4
(g8
S'Q^Cy\r\xe5\xe5?'
p468
tp469
Rp470
aF0.023900985717773438
aI173
aS'kernel = 0 degree'
p471
aa(lp472
g4
(g8
S'\xdcwK\xa1?\xc9\xe8?'
p473
tp474
Rp475
ag4
(g8
S'\xc2_\xc5\t)y\xe6?'
p476
tp477
Rp478
aF0.03230404853820801
aI173
aS'kernel = 0 degree'
p479
ag4
(g8
S'i\xbd\x80mNW\xe9?'
p480
tp481
Rp482
ag4
(g8
S'F\x17]t\xd1E\xe7?'
p483
tp484
Rp485
aF0.032254934310913086
aI173
aS'kernel = 0 degree'
p486
ag4
(g8
S'\xf7\xddR\xe8O2\xe6?'
p487
tp488
Rp489
ag4
(g8
S'\xf1\\\xb3:\x8c2\xe5?'
p490
tp491
Rp492
aF0.022146940231323242
aI173
aS'kernel = 0 degree'
p493
aa(lp494
g4
(g8
S'DZ/`\x9b\xd3\xe5?'
p495
tp496
Rp497
ag4
(g8
S'\x02e\xe2J\xf7\x06\xe4?'
p498
tp499
Rp500
aF0.03022623062133789
aI173
aS'kernel = 0 degree'
p501
ag4
(g8
S']\xe5\x99\xf8\xb8\xef\xe6?'
p502
tp503
Rp504
ag4
(g8
S'\xb4\xfaRA\xab/\xe5?'
p505
tp506
Rp507
aF0.03238797187805176
aI173
aS'kernel = 0 degree'
p508
ag4
(g8
S'\xb7\x14\xfa\x93\x8cE\xe5?'
p509
tp510
Rp511
ag4
(g8
S'Z7\x98"\x9fu\xe3?'
p512
tp513
Rp514
aF0.03232908248901367
aI173
aS'kernel = 0 degree'
p515
aa(lp516
g4
(g8
S'\x9d\xae\xf2L|\xdc\xe7?'
p517
tp518
Rp519
ag4
(g8
S'];0\xd7\x0e\xcc\xe5?'
p520
tp521
Rp522
aF0.036296844482421875
aI173
aS'kernel = 0 degree'
p523
ag4
(g8
S'\x04\x91\xd6\x0b\xd8\xe6\xe4?'
p524
tp525
Rp526
ag4
(g8
S'\xb2g *\x1d\xd9\xe3?'
p527
tp528
Rp529
aF0.048429012298583984
aI173
aS'kernel = 0 degree'
p530
ag4
(g8
S'\xea*\xcf\xc4\xc7}\xe7?'
p531
tp532
Rp533
ag4
(g8
S'TUUUUU\xe5?'
p534
tp535
Rp536
aF0.02415013313293457
aI173
aS'kernel = 0 degree'
p537
aa(lp538
g4
(g8
S'\x1e\x1cA\xa4\xf5\x02\xe6?'
p539
tp540
Rp541
ag4
(g8
S'\x98z2~\xbb\xd4\xe3?'
p542
tp543
Rp544
aF0.02821207046508789
aI173
aS'kernel = 0 degree'
p545
ag4
(g8
S'\x84#\x88\xb4^\xc0\xe6?'
p546
tp547
Rp548
ag4
(g8
S'UUUUUU\xe5?'
p549
tp550
Rp551
aF0.02635812759399414
aI173
aS'kernel = 0 degree'
p552
ag4
(g8
S'P2\x16\xd50;\xe8?'
p553
tp554
Rp555
ag4
(g8
S'\n\xd7\xa3p=\n\xe7?'
p556
tp557
Rp558
aF0.0258939266204834
aI173
aS'kernel = 0 degree'
p559
aa(lp560
g4
(g8
S'\x10i\xbd\x80mN\xe7?'
p561
tp562
Rp563
ag4
(g8
S'\x12\xe1IA\xf2\xe7\xe5?'
p564
tp565
Rp566
aF0.02025294303894043
aI173
aS'kernel = 0 degree'
p567
ag4
(g8
S")\xf4'\x19\x8bj\xe8?"
p568
tp569
Rp570
ag4
(g8
S'\xe7d\xfa*al\xe6?'
p571
tp572
Rp573
aF0.028307199478149414
aI173
aS'kernel = 0 degree'
p574
ag4
(g8
S'\xea*\xcf\xc4\xc7}\xe7?'
p575
tp576
Rp577
ag4
(g8
S'\xaf^\xbdz\xf5\xea\xe5?'
p578
tp579
Rp580
aF0.011397838592529297
aI173
aS'kernel = 0 degree'
p581
aa(lp582
g4
(g8
S'\x1e\x1cA\xa4\xf5\x02\xe6?'
p583
tp584
Rp585
ag4
(g8
S'\x98z2~\xbb\xd4\xe3?'
p586
tp587
Rp588
aF0.020403146743774414
aI173
aS'kernel = 0 degree'
p589
ag4
(g8
S"\x90\xfbn)\xf4'\xe9?"
p590
tp591
Rp592
ag4
(g8
S'\x1b)\x1a\xe2\x8f[\xe7?'
p593
tp594
Rp595
aF0.03647279739379883
aI173
aS'kernel = 0 degree'
p596
ag4
(g8
S'7\xa7\xab<\x13\x1f\xe7?'
p597
tp598
Rp599
ag4
(g8
S'\xf4B/\xf4B/\xe4?'
p600
tp601
Rp602
aF0.024473905563354492
aI173
aS'kernel = 0 degree'
p603
aa(lp604
g4
(g8
S'\x84#\x88\xb4^\xc0\xe6?'
p605
tp606
Rp607
ag4
(g8
S'%I\x92$I\x92\xe4?'
p608
tp609
Rp610
aF0.02606487274169922
aI173
aS'kernel = 0 degree'
p611
ag4
(g8
S'\x10i\xbd\x80mN\xe7?'
p612
tp613
Rp614
ag4
(g8
S'\x9a\xbeJ\x18\x9b\x05\xe5?'
p615
tp616
Rp617
aF0.024335861206054688
aI173
aS'kernel = 0 degree'
p618
ag4
(g8
S'7\xa7\xab<\x13\x1f\xe7?'
p619
tp620
Rp621
ag4
(g8
S'\xdc\xa5\x9e\x8c\xdf.\xe5?'
p622
tp623
Rp624
aF0.023231029510498047
aI173
aS'kernel = 0 degree'
p625
aa(lp626
g4
(g8
S'\xf7\xddR\xe8O2\xe6?'
p627
tp628
Rp629
ag4
(g8
S'\xff6\xc5\xa8\xe1o\xe3?'
p630
tp631
Rp632
aF0.019757986068725586
aI173
aS'kernel = 0 degree'
p633
ag4
(g8
S'\xd1\x9fd,\xaaa\xe6?'
p634
tp635
Rp636
ag4
(g8
S'\x00\x00\x00\x00\x00\x00\xe3?'
p637
tp638
Rp639
aF0.023866891860961914
aI173
aS'kernel = 0 degree'
p640
ag4
(g8
S'\xdeR\xe8O2\x16\xe5?'
p641
tp642
Rp643
ag4
(g8
S'\xde\x1c}s\xf4\xcd\xe1?'
p644
tp645
Rp646
aF0.0162198543548584
aI173
aS'kernel = 0 degree'
p647
aa(lp648
g4
(g8
S'\x9d\xae\xf2L|\xdc\xe7?'
p649
tp650
Rp651
ag4
(g8
S'\x9e6\xd0i\x03\x9d\xe6?'
p652
tp653
Rp654
aF0.027737140655517578
aI173
aS'kernel = 0 degree'
p655
ag4
(g8
S'\xea*\xcf\xc4\xc7}\xe7?'
p656
tp657
Rp658
ag4
(g8
S'(\xc4Y\xf9\tq\xe6?'
p659
tp660
Rp661
aF0.044226884841918945
aI173
aS'kernel = 0 degree'
p662
ag4
(g8
S'\x84#\x88\xb4^\xc0\xe6?'
p663
tp664
Rp665
ag4
(g8
S'\x94\xd7P^Cy\xe5?'
p666
tp667
Rp668
aF0.028335094451904297
aI173
aS'kernel = 0 degree'
p669
aa(lp670
g4
(g8
S'DZ/`\x9b\xd3\xe5?'
p671
tp672
Rp673
ag4
(g8
S'\xbf\x88j\x9d}\x11\xe5?'
p674
tp675
Rp676
aF0.014434099197387695
aI173
aS'kernel = 0 degree'
p677
ag4
(g8
S'DZ/`\x9b\xd3\xe5?'
p678
tp679
Rp680
ag4
(g8
S'\xd1\xc2\x19\x10J\xee\xe4?'
p681
tp682
Rp683
aF0.012984037399291992
aI173
aS'kernel = 0 degree'
p684
ag4
(g8
S']\xe5\x99\xf8\xb8\xef\xe6?'
p685
tp686
Rp687
ag4
(g8
S'^z\xcc\xdfk#\xe6?'
p688
tp689
Rp690
aF0.011594057083129883
aI173
aS'kernel = 0 degree'
p691
aa(lp692
g4
(g8
S"\x90\xfbn)\xf4'\xe9?"
p693
tp694
Rp695
ag4
(g8
S'\nZ}\xa9\xa0\xd5\xe7?'
p696
tp697
Rp698
aF0.013386964797973633
aI173
aS'kernel = 0 degree'
p699
ag4
(g8
S'\xb69]\xe5\x99\xf8\xe8?'
p700
tp701
Rp702
ag4
(g8
S's\xed\xc0\\;0\xe7?'
p703
tp704
Rp705
aF0.027871131896972656
aI173
aS'kernel = 0 degree'
p706
ag4
(g8
S'\x04\x91\xd6\x0b\xd8\xe6\xe4?'
p707
tp708
Rp709
ag4
(g8
S'\xe2\xe1\xe1\xe1\xe1\xe1\xe1?'
p710
tp711
Rp712
aF0.0403599739074707
aI173
aS'kernel = 0 degree'
p713
aa(lp714
g4
(g8
S'\xc3\xec\xe0\x08"\xad\xe7?'
p715
tp716
Rp717
ag4
(g8
S'v@7\xe6\xe9\xa3\xe5?'
p718
tp719
Rp720
aF0.02043890953063965
aI173
aS'kernel = 0 degree'
p721
ag4
(g8
S'\xb69]\xe5\x99\xf8\xe8?'
p722
tp723
Rp724
ag4
(g8
S'\x97eY\x96eY\xe6?'
p725
tp726
Rp727
aF0.02832317352294922
aI173
aS'kernel = 0 degree'
p728
ag4
(g8
S'k\x98\x1d\x1cA\xa4\xe5?'
p729
tp730
Rp731
ag4
(g8
S'333333\xe3?'
p732
tp733
Rp734
aF0.0377960205078125
aI173
aS'kernel = 0 degree'
p735
aa(lp736
g4
(g8
S'\xea*\xcf\xc4\xc7}\xe7?'
p737
tp738
Rp739
ag4
(g8
S'\xaf^\xbdz\xf5\xea\xe5?'
p740
tp741
Rp742
aF0.03578305244445801
aI173
aS'kernel = 0 degree'
p743
ag4
(g8
S'\x1cA\xa4\xf5\x02\xb6\xe9?'
p744
tp745
Rp746
ag4
(g8
S'I\x0fT\xcen\xe1\xe7?'
p747
tp748
Rp749
aF0.04016399383544922
aI173
aS'kernel = 0 degree'
p750
ag4
(g8
S'\xd1\x9fd,\xaaa\xe6?'
p751
tp752
Rp753
ag4
(g8
S'~5&\xd2\x03\x95\xe3?'
p754
tp755
Rp756
aF0.011698007583618164
aI173
aS'kernel = 0 degree'
p757
aa(lp758
g4
(g8
S'C\x7f\x92\xb1\xa8\x86\xe9?'
p759
tp760
Rp761
ag4
(g8
S'\xd5\xb1\xb76Ls\xe7?'
p762
tp763
Rp764
aF0.013314962387084961
aI173
aS'kernel = 0 degree'
p765
ag4
(g8
S'\x1cA\xa4\xf5\x02\xb6\xe9?'
p766
tp767
Rp768
ag4
(g8
S'\x83\xb9v`\xae\x1d\xe8?'
p769
tp770
Rp771
aF0.03237795829772949
aI173
aS'kernel = 0 degree'
p772
ag4
(g8
S'\xc3\xec\xe0\x08"\xad\xe7?'
p773
tp774
Rp775
ag4
(g8
S'W\x10\x93+\x88\xc9\xe5?'
p776
tp777
Rp778
aF0.011662960052490234
aI173
aS'kernel = 0 degree'
p779
aa(lp780
g4
(g8
S'\xf7\xddR\xe8O2\xe6?'
p781
tp782
Rp783
ag4
(g8
S'\x9a\xb6\xc6\xdf\xcd#\xe4?'
p784
tp785
Rp786
aF0.02034592628479004
aI173
aS'kernel = 0 degree'
p787
ag4
(g8
S'P2\x16\xd50;\xe8?'
p788
tp789
Rp790
ag4
(g8
S'UUUUUU\xe5?'
p791
tp792
Rp793
aF0.040390968322753906
aI173
aS'kernel = 0 degree'
p794
ag4
(g8
S'k\x98\x1d\x1cA\xa4\xe5?'
p795
tp796
Rp797
ag4
(g8
S'r#7r#7\xe2?'
p798
tp799
Rp800
aF0.011523962020874023
aI173
aS'kernel = 0 degree'
p801
aa(lp802
g4
(g8
S'7\xa7\xab<\x13\x1f\xe7?'
p803
tp804
Rp805
ag4
(g8
S'\xf4<\xcf\xf3<\xcf\xe3?'
p806
tp807
Rp808
aF0.02642202377319336
aI173
aS'kernel = 0 degree'
p809
ag4
(g8
S'\x04\x91\xd6\x0b\xd8\xe6\xe4?'
p810
tp811
Rp812
ag4
(g8
S'n0E>\xeb\x06\xe3?'
p813
tp814
Rp815
aF0.013029813766479492
aI173
aS'kernel = 0 degree'
p816
ag4
(g8
S'\x91\xd6\x0b\xd8\xe6t\xe5?'
p817
tp818
Rp819
ag4
(g8
S'\xa0\xaeO\xd7\xa7\xeb\xe3?'
p820
tp821
Rp822
aF0.011337041854858398
aI173
aS'kernel = 0 degree'
p823
aa(lp824
g4
(g8
S")\xf4'\x19\x8bj\xe8?"
p825
tp826
Rp827
ag4
(g8
S'D:o1\xa4\xf3\xe6?'
p828
tp829
Rp830
aF0.02846503257751465
aI173
aS'kernel = 0 degree'
p831
ag4
(g8
S'\x03\xb69]\xe5\x99\xe8?'
p832
tp833
Rp834
ag4
(g8
S'\xc6q\x1c\xc7q\x1c\xe7?'
p835
tp836
Rp837
aF0.028403043746948242
aI173
aS'kernel = 0 degree'
p838
ag4
(g8
S'\xc3\xec\xe0\x08"\xad\xe7?'
p839
tp840
Rp841
ag4
(g8
S'/\x1b4\xf9\xb2A\xe3?'
p842
tp843
Rp844
aF0.015557050704956055
aI173
aS'kernel = 0 degree'
p845
aa(lp846
g4
(g8
S'\x9d\xae\xf2L|\xdc\xe7?'
p847
tp848
Rp849
ag4
(g8
S'\xb5\xc2\xe6@\xa2\x15\xe6?'
p850
tp851
Rp852
aF0.028383970260620117
aI173
aS'kernel = 0 degree'
p853
ag4
(g8
S'\x9d\xae\xf2L|\xdc\xe7?'
p854
tp855
Rp856
ag4
(g8
S'\xb3e\xcb\x96-[\xe6?'
p857
tp858
Rp859
aF0.0283510684967041
aI173
aS'kernel = 0 degree'
p860
ag4
(g8
S'\x84#\x88\xb4^\xc0\xe6?'
p861
tp862
Rp863
ag4
(g8
S'\xa8P\xa1B\x85\n\xe5?'
p864
tp865
Rp866
aF0.028311967849731445
aI173
aS'kernel = 0 degree'
p867
aa(lp868
g4
(g8
S"\x90\xfbn)\xf4'\xe9?"
p869
tp870
Rp871
ag4
(g8
S'\nZ}\xa9\xa0\xd5\xe7?'
p872
tp873
Rp874
aF0.024466991424560547
aI173
aS'kernel = 0 degree'
p875
ag4
(g8
S'Q\r\xb3\x83#\x88\xe4?'
p876
tp877
Rp878
ag4
(g8
S'iiiiii\xe1?'
p879
tp880
Rp881
aF0.028338909149169922
aI173
aS'kernel = 0 degree'
p882
ag4
(g8
S'+\xcf\xc4\xc7}\xb7\xe4?'
p883
tp884
Rp885
ag4
(g8
S'i\xd3\x806\rh\xe3?'
p886
tp887
Rp888
aF0.011666059494018555
aI173
aS'kernel = 0 degree'
p889
aa(lp890
g4
(g8
S'k\x98\x1d\x1cA\xa4\xe5?'
p891
tp892
Rp893
ag4
(g8
S',l\x0e$Za\xe3?'
p894
tp895
Rp896
aF0.02837395668029785
aI173
aS'kernel = 0 degree'
p897
ag4
(g8
S'\x1e\x1cA\xa4\xf5\x02\xe6?'
p898
tp899
Rp900
ag4
(g8
S'\x00\x00\x00\x00\x00\x00\xe4?'
p901
tp902
Rp903
aF0.02332901954650879
aI173
aS'kernel = 0 degree'
p904
ag4
(g8
S'\x91\xd6\x0b\xd8\xe6t\xe5?'
p905
tp906
Rp907
ag4
(g8
S'\xa0\xaeO\xd7\xa7\xeb\xe3?'
p908
tp909
Rp910
aF0.027273178100585938
aI173
aS'kernel = 0 degree'
p911
aa(lp912
g4
(g8
S'\x9d\xae\xf2L|\xdc\xe7?'
p913
tp914
Rp915
ag4
(g8
S'UUUUUU\xe5?'
p916
tp917
Rp918
aF0.01616501808166504
aI173
aS'kernel = 0 degree'
p919
ag4
(g8
S'7\xa7\xab<\x13\x1f\xe7?'
p920
tp921
Rp922
ag4
(g8
S']t\xd1E\x17]\xe4?'
p923
tp924
Rp925
aF0.03053116798400879
aI173
aS'kernel = 0 degree'
p926
ag4
(g8
S'_\xc06\xa7\xab<\xe3?'
p927
tp928
Rp929
ag4
(g8
S'\x93\xf3\xb2\x88O \xd5?'
p930
tp931
Rp932
aF0.011584997177124023
aI173
aS'kernel = 1 degree'
p933
aa(lp934
g4
(g8
S'\xf7\xddR\xe8O2\xe6?'
p935
tp936
Rp937
ag4
(g8
S'\xb8\x15\x8a[\xa1\xb8\xe5?'
p938
tp939
Rp940
aF0.015013933181762695
aI173
aS'kernel = 0 degree'
p941
ag4
(g8
S'\x9d\xae\xf2L|\xdc\xe7?'
p942
tp943
Rp944
ag4
(g8
S'\xb2e\xcb\x96-[\xe6?'
p945
tp946
Rp947
aF0.012930154800415039
aI173
aS'kernel = 0 degree'
p948
ag4
(g8
S'\xaaavp\x04\x91\xe6?'
p949
tp950
Rp951
ag4
(g8
S'\x1c\xd6\xbea\xed\x1b\xe6?'
p952
tp953
Rp954
aF0.019976139068603516
aI173
aS'kernel = 0 degree'
p955
aa(lp956
g4
(g8
S'\xf7\xddR\xe8O2\xe6?'
p957
tp958
Rp959
ag4
(g8
S'\xb8\x15\x8a[\xa1\xb8\xe5?'
p960
tp961
Rp962
aF0.028342008590698242
aI173
aS'kernel = 0 degree'
p963
ag4
(g8
S'\xdcwK\xa1?\xc9\xe8?'
p964
tp965
Rp966
ag4
(g8
S'\xf2V\xf69\xa4&\xe8?'
p967
tp968
Rp969
aF0.016376972198486328
aI173
aS'kernel = 0 degree'
p970
ag4
(g8
S'\xc3\xec\xe0\x08"\xad\xe7?'
p971
tp972
Rp973
ag4
(g8
S'\xc4\xec\xe0\x08"\xad\xe7?'
p974
tp975
Rp976
aF0.02580404281616211
aI173
aS'kernel = 0 degree'
p977
aa(lp978
g4
(g8
S'\x84#\x88\xb4^\xc0\xe6?'
p979
tp980
Rp981
ag4
(g8
S'\xa8P\xa1B\x85\n\xe5?'
p982
tp983
Rp984
aF0.022103071212768555
aI173
aS'kernel = 0 degree'
p985
ag4
(g8
S'\x03\xb69]\xe5\x99\xe8?'
p986
tp987
Rp988
ag4
(g8
S'u]\xd7u]\xd7\xe5?'
p989
tp990
Rp991
aF0.028523921966552734
aI173
aS'kernel = 0 degree'
p992
ag4
(g8
S'\xd1\x9fd,\xaaa\xe6?'
p993
tp994
Rp995
ag4
(g8
S'\xf0jq\x13\xe6w\xe5?'
p996
tp997
Rp998
aF0.020092010498046875
aI173
aS'kernel = 0 degree'
p999
aa(lp1000
g4
(g8
S']\xe5\x99\xf8\xb8\xef\xe6?'
p1001
tp1002
Rp1003
ag4
(g8
S'\x16k\xc0\x15k\xc0\xe5?'
p1004
tp1005
Rp1006
aF0.02032184600830078
aI173
aS'kernel = 0 degree'
p1007
ag4
(g8
S"\x90\xfbn)\xf4'\xe9?"
p1008
tp1009
Rp1010
ag4
(g8
S'\x90qA\xc6\x05\x19\xe7?'
p1011
tp1012
Rp1013
aF0.012094974517822266
aI173
aS'kernel = 0 degree'
p1014
ag4
(g8
S")\xf4'\x19\x8bj\xe8?"
p1015
tp1016
Rp1017
ag4
(g8
S'\xb76Ls\x17\xfc\xe5?'
p1018
tp1019
Rp1020
aF0.016638994216918945
aI173
aS'kernel = 0 degree'
p1021
aa(lp1022
g4
(g8
S'\xea*\xcf\xc4\xc7}\xe7?'
p1023
tp1024
Rp1025
ag4
(g8
S'------\xe5?'
p1026
tp1027
Rp1028
aF0.025171995162963867
aI173
aS'kernel = 0 degree'
p1029
ag4
(g8
S'\xaaavp\x04\x91\xe6?'
p1030
tp1031
Rp1032
ag4
(g8
S'\xab;\xad\xee\xb4\xba\xe3?'
p1033
tp1034
Rp1035
aF0.023792028427124023
aI173
aS'kernel = 0 degree'
p1036
ag4
(g8
S'\x10i\xbd\x80mN\xe7?'
p1037
tp1038
Rp1039
ag4
(g8
S'\n\x85B\xa1P(\xe4?'
p1040
tp1041
Rp1042
aF0.020180940628051758
aI173
aS'kernel = 0 degree'
p1043
aa(lp1044
g4
(g8
S'\x10i\xbd\x80mN\xe7?'
p1045
tp1046
Rp1047
ag4
(g8
S'\x99\xbeJ\x18\x9b\x05\xe5?'
p1048
tp1049
Rp1050
aF0.009036064147949219
aI173
aS'kernel = 0 degree'
p1051
ag4
(g8
S'\x91\xd6\x0b\xd8\xe6t\xe5?'
p1052
tp1053
Rp1054
ag4
(g8
S'<T\xb7Cu;\xe4?'
p1055
tp1056
Rp1057
aF0.024418115615844727
aI173
aS'kernel = 0 degree'
p1058
ag4
(g8
S'k\x98\x1d\x1cA\xa4\xe5?'
p1059
tp1060
Rp1061
ag4
(g8
S']t\xd1E\x17]\xe4?'
p1062
tp1063
Rp1064
aF0.025878190994262695
aI173
aS'kernel = 0 degree'
p1065
aa(lp1066
g4
(g8
S'\xd1\x9fd,\xaaa\xe6?'
p1067
tp1068
Rp1069
ag4
(g8
S'?\xa3\xc4\xcf(\xf1\xe3?'
p1070
tp1071
Rp1072
aF0.009020090103149414
aI173
aS'kernel = 0 degree'
p1073
ag4
(g8
S'\xdeR\xe8O2\x16\xe5?'
p1074
tp1075
Rp1076
ag4
(g8
S'\x07D\x86{\x15\xcc\xe2?'
p1077
tp1078
Rp1079
aF0.01271200180053711
aI173
aS'kernel = 0 degree'
p1080
ag4
(g8
S'\x1e\x1cA\xa4\xf5\x02\xe6?'
p1081
tp1082
Rp1083
ag4
(g8
S'\x92$I\x92$I\xe2?'
p1084
tp1085
Rp1086
aF0.020457029342651367
aI173
aS'kernel = 0 degree'
p1087
aa(lp1088
g4
(g8
S'\xea*\xcf\xc4\xc7}\xe7?'
p1089
tp1090
Rp1091
ag4
(g8
S'------\xe5?'
p1092
tp1093
Rp1094
aF0.037796974182128906
aI173
aS'kernel = 0 degree'
p1095
ag4
(g8
S']\xe5\x99\xf8\xb8\xef\xe6?'
p1096
tp1097
Rp1098
ag4
(g8
S'\xeat:\x9dN\xa7\xe3?'
p1099
tp1100
Rp1101
aF0.00861501693725586
aI173
aS'kernel = 0 degree'
p1102
ag4
(g8
S'\x10i\xbd\x80mN\xe7?'
p1103
tp1104
Rp1105
ag4
(g8
S'p\xa5{\x03\xca\xc4\xe5?'
p1106
tp1107
Rp1108
aF0.01172018051147461
aI173
aS'kernel = 0 degree'
p1109
aas.