(dp0
S'heart'
p1
(lp2
(lp3
cnumpy.core.multiarray
scalar
p4
(cnumpy
dtype
p5
(S'f8'
p6
I0
I1
tp7
Rp8
(I3
S'<'
p9
NNNI-1
I-1
I0
tp10
bS'\xba\xe8\xa2\x8b.\xba\xe8?'
p11
tp12
Rp13
ag4
(g8
S'Cy\r\xe55\x94\xe7?'
p14
tp15
Rp16
aF0.02990412712097168
aI66
aS'kernel = 0 degree'
p17
ag4
(g8
S'\xb2\xc9&\x9bl\xb2\xe9?'
p18
tp19
Rp20
ag4
(g8
S';\x8b\xe9,\xa6\xb3\xe8?'
p21
tp22
Rp23
aF0.05258607864379883
aI66
aS'kernel = 0 degree'
p24
ag4
(g8
S'F\x17]t\xd1E\xe7?'
p25
tp26
Rp27
ag4
(g8
S'\xc4N\xec\xc4N\xec\xe4?'
p28
tp29
Rp30
aF0.038056135177612305
aI66
aS'kernel = 0 degree'
p31
aa(lp32
g4
(g8
S'\xca&\x9bl\xb2\xc9\xe6?'
p33
tp34
Rp35
ag4
(g8
S'\x96eY\x96eY\xe6?'
p36
tp37
Rp38
aF0.04636812210083008
aI66
aS'kernel = 0 degree'
p39
ag4
(g8
S'N6\xd9d\x93M\xe6?'
p40
tp41
Rp42
ag4
(g8
S'\x01\x00\x00\x00\x00\x00\xe6?'
p43
tp44
Rp45
aF0.024898052215576172
aI66
aS'kernel = 0 degree'
p46
ag4
(g8
S'\x17]t\xd1E\x17\xdd?'
p47
tp48
Rp49
ag4
(g8
S'\x00\x00\x00\x00\x00\x00\x00\x00'
p50
tp51
Rp52
aF0.040292978286743164
aI66
aS'kernel = 0 degree'
p53
aa(lp54
g4
(g8
S'\xba\xe8\xa2\x8b.\xba\xe8?'
p55
tp56
Rp57
ag4
(g8
S'Cy\r\xe55\x94\xe7?'
p58
tp59
Rp60
aF0.0500948429107666
aI66
aS'kernel = 0 degree'
p61
ag4
(g8
S'>\xf8\xe0\x83\x0f>\xe8?'
p62
tp63
Rp64
ag4
(g8
S'Lh/\xa1\xbd\x84\xe6?'
p65
tp66
Rp67
aF0.04996991157531738
aI66
aS'kernel = 0 degree'
p68
ag4
(g8
S'\xf8\xe0\x83\x0f>\xf8\xe0?'
p69
tp70
Rp71
ag4
(g8
S'\x00\x00\x00\x00\x00\x00\x00\x00'
p72
tp73
Rp74
aF0.03462505340576172
aI66
aS'kernel = 0 degree'
p75
aa(lp76
g4
(g8
S'\xba\xe8\xa2\x8b.\xba\xe8?'
p77
tp78
Rp79
ag4
(g8
S'\xb2\x15A\xc3I\xdd\xe7?'
p80
tp81
Rp82
aF0.03785395622253418
aI66
aS'kernel = 0 degree'
p83
ag4
(g8
S'\xca&\x9bl\xb2\xc9\xe6?'
p84
tp85
Rp86
ag4
(g8
S'\xd1pR\xf7\xe5\xb1\xe5?'
p87
tp88
Rp89
aF0.06289196014404297
aI66
aS'kernel = 0 degree'
p90
ag4
(g8
S'N6\xd9d\x93M\xe6?'
p91
tp92
Rp93
ag4
(g8
S'\x13;\xb1\x13;\xb1\xe3?'
p94
tp95
Rp96
aF0.02994990348815918
aI66
aS'kernel = 0 degree'
p97
aa(lp98
g4
(g8
S'\xb2\xc9&\x9bl\xb2\xe9?'
p99
tp100
Rp101
ag4
(g8
S'$h8\xa9\xfb\xf2\xe8?'
p102
tp103
Rp104
aF0.03637218475341797
aI66
aS'kernel = 0 degree'
p105
ag4
(g8
S'\xb2\xc9&\x9bl\xb2\xe9?'
p106
tp107
Rp108
ag4
(g8
S'YG\x9b\xf7).\xe9?'
p109
tp110
Rp111
aF0.0425419807434082
aI66
aS'kernel = 0 degree'
p112
ag4
(g8
S"'\x9bl\xb2\xc9&\xeb?"
p113
tp114
Rp115
ag4
(g8
S'a\xb9\xa7\x11\x96{\xea?'
p116
tp117
Rp118
aF0.025795936584472656
aI66
aS'kernel = 0 degree'
p119
aa(lp120
g4
(g8
S"'\x9bl\xb2\xc9&\xeb?"
p121
tp122
Rp123
ag4
(g8
S'\x00\x00\x00\x00\x00\x00\xeb?'
p124
tp125
Rp126
aF0.05415606498718262
aI66
aS'kernel = 0 degree'
p127
ag4
(g8
S'6\xd9d\x93M6\xe9?'
p128
tp129
Rp130
ag4
(g8
S'7\xd9d\x93M6\xe9?'
p131
tp132
Rp133
aF0.03409695625305176
aI66
aS'kernel = 0 degree'
p134
ag4
(g8
S"'\x9bl\xb2\xc9&\xeb?"
p135
tp136
Rp137
ag4
(g8
S'\xab\xaa\xaa\xaa\xaa\xaa\xea?'
p138
tp139
Rp140
aF0.030000925064086914
aI66
aS'kernel = 0 degree'
p141
aa(lp142
g4
(g8
S'\xc2\x07\x1f|\xf0\xc1\xe7?'
p143
tp144
Rp145
ag4
(g8
S'\xd8u]\xd7u]\xe7?'
p146
tp147
Rp148
aF0.007080078125
aI66
aS'kernel = 0 degree'
p149
ag4
(g8
S'UUUUUU\xe5?'
p150
tp151
Rp152
ag4
(g8
S'\t\xcb=\x8d\xb0\xdc\xe3?'
p153
tp154
Rp155
aF0.05008888244628906
aI66
aS'kernel = 0 degree'
p156
ag4
(g8
S't\xd1E\x17]t\xe1?'
p157
tp158
Rp159
ag4
(g8
S'\x00\x00\x00\x00\x00\x00\x00\x00'
p160
tp161
Rp162
aF0.036309003829956055
aI66
aS'kernel = 0 degree'
p163
aa(lp164
g4
(g8
S'/\xba\xe8\xa2\x8b.\xea?'
p165
tp166
Rp167
ag4
(g8
S'H\x92$I\x92$\xe9?'
p168
tp169
Rp170
aF0.05443596839904785
aI66
aS'kernel = 0 degree'
p171
ag4
(g8
S'>\xf8\xe0\x83\x0f>\xe8?'
p172
tp173
Rp174
ag4
(g8
S"vb'vb'\xe6?"
p175
tp176
Rp177
aF0.04161810874938965
aI66
aS'kernel = 0 degree'
p178
ag4
(g8
S'\xd9d\x93M6\xd9\xe4?'
p179
tp180
Rp181
ag4
(g8
S'\x00\x00\x00\x00\x00\x00\x00\x00'
p182
tp183
Rp184
aF0.04046821594238281
aI66
aS'kernel = 0 degree'
p185
aa(lp186
g4
(g8
S'\xba\xe8\xa2\x8b.\xba\xe8?'
p187
tp188
Rp189
ag4
(g8
S'E\x17]t\xd1E\xe7?'
p190
tp191
Rp192
aF0.053954124450683594
aI66
aS'kernel = 0 degree'
p193
ag4
(g8
S']t\xd1E\x17]\xe4?'
p194
tp195
Rp196
ag4
(g8
S'O#,\xf74\xc2\xe2?'
p197
tp198
Rp199
aF0.048204898834228516
aI66
aS'kernel = 0 degree'
p200
ag4
(g8
S't\xd1E\x17]t\xe1?'
p201
tp202
Rp203
ag4
(g8
S'\x00\x00\x00\x00\x00\x00\x00\x00'
p204
tp205
Rp206
aF0.05515694618225098
aI66
aS'kernel = 0 degree'
p207
aa(lp208
g4
(g8
S'>\xf8\xe0\x83\x0f>\xe8?'
p209
tp210
Rp211
ag4
(g8
S'\xbe\xf7\xde{\xef\xbd\xe7?'
p212
tp213
Rp214
aF0.03048419952392578
aI66
aS'kernel = 0 degree'
p215
ag4
(g8
S'\xca&\x9bl\xb2\xc9\xe6?'
p216
tp217
Rp218
ag4
(g8
S'\x96eY\x96eY\xe6?'
p219
tp220
Rp221
aF0.03973698616027832
aI66
aS'kernel = 0 degree'
p222
ag4
(g8
S'\xc2\x07\x1f|\xf0\xc1\xe7?'
p223
tp224
Rp225
ag4
(g8
S'\x17z\xa1\x17z\xa1\xe7?'
p226
tp227
Rp228
aF0.006502866744995117
aI66
aS'kernel = 0 degree'
p229
aa(lp230
g4
(g8
S'\xd1E\x17]t\xd1\xe5?'
p231
tp232
Rp233
ag4
(g8
S'^Cy\r\xe55\xe4?'
p234
tp235
Rp236
aF0.03789401054382324
aI66
aS'kernel = 1 degree'
p237
ag4
(g8
S'/\xba\xe8\xa2\x8b.\xea?'
p238
tp239
Rp240
ag4
(g8
S'\x00\x00\x00\x00\x00\x00\xea?'
p241
tp242
Rp243
aF0.0343019962310791
aI66
aS'kernel = 0 degree'
p244
ag4
(g8
S'\x00\x00\x00\x00\x00\x00\xe0?'
p245
tp246
Rp247
ag4
(g8
S'\x00\x00\x00\x00\x00\x00\x00\x00'
p248
tp249
Rp250
aF0.03656792640686035
aI66
aS'kernel = 0 degree'
p251
aa(lp252
g4
(g8
S'F\x17]t\xd1E\xe7?'
p253
tp254
Rp255
ag4
(g8
S'ffffff\xe6?'
p256
tp257
Rp258
aF0.03506016731262207
aI66
aS'kernel = 0 degree'
p259
ag4
(g8
S'>\xf8\xe0\x83\x0f>\xe8?'
p260
tp261
Rp262
ag4
(g8
S'6\xc2rO#,\xe7?'
p263
tp264
Rp265
aF0.03621792793273926
aI66
aS'kernel = 0 degree'
p266
ag4
(g8
S'\x08\x1f|\xf0\xc1\x07\xdf?'
p267
tp268
Rp269
ag4
(g8
S'\x00\x00\x00\x00\x00\x00\x00\x00'
p270
tp271
Rp272
aF0.036524057388305664
aI66
aS'kernel = 0 degree'
p273
aa(lp274
g4
(g8
S'6\xd9d\x93M6\xe9?'
p275
tp276
Rp277
ag4
(g8
S'\x00\x00\x00\x00\x00\x00\xe8?'
p278
tp279
Rp280
aF0.024137020111083984
aI66
aS'kernel = 0 degree'
p281
ag4
(g8
S'\xd9d\x93M6\xd9\xe4?'
p282
tp283
Rp284
ag4
(g8
S'5\xc1x+\xfb\x1c\xe2?'
p285
tp286
Rp287
aF0.05980992317199707
aI66
aS'kernel = 1 degree'
p288
ag4
(g8
S'\xba\xe8\xa2\x8b.\xba\xe8?'
p289
tp290
Rp291
ag4
(g8
S'f\x9fCj\x82\xf1\xe6?'
p292
tp293
Rp294
aF0.006417036056518555
aI66
aS'kernel = 0 degree'
p295
aa(lp296
g4
(g8
S'\xba\xe8\xa2\x8b.\xba\xe8?'
p297
tp298
Rp299
ag4
(g8
S'\x90\x85,d!\x0b\xe9?'
p300
tp301
Rp302
aF0.04146099090576172
aI66
aS'kernel = 0 degree'
p303
ag4
(g8
S']t\xd1E\x17]\xe4?'
p304
tp305
Rp306
ag4
(g8
S'gfffff\xe6?'
p307
tp308
Rp309
aF0.032430171966552734
aI66
aS'kernel = 0 degree'
p310
ag4
(g8
S'\x17]t\xd1E\x17\xdd?'
p311
tp312
Rp313
ag4
(g8
S'\x00\x00\x00\x00\x00\x00\x00\x00'
p314
tp315
Rp316
aF0.04428696632385254
aI66
aS'kernel = 0 degree'
p317
aa(lp318
g4
(g8
S'\xc2\x07\x1f|\xf0\xc1\xe7?'
p319
tp320
Rp321
ag4
(g8
S'\xd8u]\xd7u]\xe7?'
p322
tp323
Rp324
aF0.035826921463012695
aI66
aS'kernel = 0 degree'
p325
ag4
(g8
S'UUUUUU\xe5?'
p326
tp327
Rp328
ag4
(g8
S'\t\xcb=\x8d\xb0\xdc\xe3?'
p329
tp330
Rp331
aF0.03830718994140625
aI66
aS'kernel = 0 degree'
p332
ag4
(g8
S'6\xd9d\x93M6\xe9?'
p333
tp334
Rp335
ag4
(g8
S'5\xd9d\x93M6\xe9?'
p336
tp337
Rp338
aF0.039422035217285156
aI66
aS'kernel = 0 degree'
p339
aa(lp340
g4
(g8
S'\xc2\x07\x1f|\xf0\xc1\xe7?'
p341
tp342
Rp343
ag4
(g8
S'R\xdf\xd9\xa8\xefl\xe4?'
p344
tp345
Rp346
aF0.04758501052856445
aI66
aS'kernel = 0 degree'
p347
ag4
(g8
S'UUUUUU\xe5?'
p348
tp349
Rp350
ag4
(g8
S'h/\xa1\xbd\x84\xf6\xe2?'
p351
tp352
Rp353
aF0.02852797508239746
aI66
aS'kernel = 1 degree'
p354
ag4
(g8
S'>\xf8\xe0\x83\x0f>\xe8?'
p355
tp356
Rp357
ag4
(g8
S'VUUUUU\xe5?'
p358
tp359
Rp360
aF0.040557861328125
aI66
aS'kernel = 0 degree'
p361
aa(lp362
g4
(g8
S'>\xf8\xe0\x83\x0f>\xe8?'
p363
tp364
Rp365
ag4
(g8
S"wb'vb'\xe6?"
p366
tp367
Rp368
aF0.0266420841217041
aI66
aS'kernel = 0 degree'
p369
ag4
(g8
S'\xd1E\x17]t\xd1\xe5?'
p370
tp371
Rp372
ag4
(g8
S'_\x1e[\x114\x9c\xe4?'
p373
tp374
Rp375
aF0.027039051055908203
aI66
aS'kernel = 0 degree'
p376
ag4
(g8
S'6\xd9d\x93M6\xe9?'
p377
tp378
Rp379
ag4
(g8
S'\x0b\xd7\xa3p=\n\xe7?'
p380
tp381
Rp382
aF0.04222893714904785
aI66
aS'kernel = 0 degree'
p383
aa(lp384
g4
(g8
S'\xca&\x9bl\xb2\xc9\xe6?'
p385
tp386
Rp387
ag4
(g8
S'\x14\x14\x14\x14\x14\x14\xe4?'
p388
tp389
Rp390
aF0.033757925033569336
aI66
aS'kernel = 1 degree'
p391
ag4
(g8
S'\xc2\x07\x1f|\xf0\xc1\xe7?'
p392
tp393
Rp394
ag4
(g8
S'9\x05/\xa7\xe0\xe5\xe4?'
p395
tp396
Rp397
aF0.006715059280395508
aI66
aS'kernel = 0 degree'
p398
ag4
(g8
S'm\xb2\xc9&\x9bl\xe2?'
p399
tp400
Rp401
ag4
(g8
S'\x00\x00\x00\x00\x00\x00\x00\x00'
p402
tp403
Rp404
aF0.033592939376831055
aI66
aS'kernel = 0 degree'
p405
aa(lp406
g4
(g8
S"'\x9bl\xb2\xc9&\xeb?"
p407
tp408
Rp409
ag4
(g8
S'\x00\x00\x00\x00\x00\x00\xe8?'
p410
tp411
Rp412
aF0.03224301338195801
aI66
aS'kernel = 0 degree'
p413
ag4
(g8
S'>\xf8\xe0\x83\x0f>\xe8?'
p414
tp415
Rp416
ag4
(g8
S'\xf4<\xcf\xf3<\xcf\xe3?'
p417
tp418
Rp419
aF0.00686192512512207
aI66
aS'kernel = 0 degree'
p420
ag4
(g8
S'N6\xd9d\x93M\xe6?'
p421
tp422
Rp423
ag4
(g8
S'\x00\x00\x00\x00\x00\x00\x00\x00'
p424
tp425
Rp426
aF0.03715085983276367
aI66
aS'kernel = 0 degree'
p427
aa(lp428
g4
(g8
S'>\xf8\xe0\x83\x0f>\xe8?'
p429
tp430
Rp431
ag4
(g8
S'\xbe\xf7\xde{\xef\xbd\xe7?'
p432
tp433
Rp434
aF0.04010510444641113
aI66
aS'kernel = 0 degree'
p435
ag4
(g8
S'\xd1E\x17]t\xd1\xe5?'
p436
tp437
Rp438
ag4
(g8
S'\xca\x10\xac\xa3\xcd\xfb\xe4?'
p439
tp440
Rp441
aF0.035928964614868164
aI66
aS'kernel = 0 degree'
p442
ag4
(g8
S'\xe9\xa2\x8b.\xba\xe8\xe2?'
p443
tp444
Rp445
ag4
(g8
S'\x00\x00\x00\x00\x00\x00\x00\x00'
p446
tp447
Rp448
aF0.03233981132507324
aI66
aS'kernel = 0 degree'
p449
aa(lp450
g4
(g8
S'\xb2\xc9&\x9bl\xb2\xe9?'
p451
tp452
Rp453
ag4
(g8
S'$h8\xa9\xfb\xf2\xe8?'
p454
tp455
Rp456
aF0.030198097229003906
aI66
aS'kernel = 0 degree'
p457
ag4
(g8
S'\xab\xaa\xaa\xaa\xaa\xaa\xea?'
p458
tp459
Rp460
ag4
(g8
S'2\x9d\xc5t\x16\xd3\xe9?'
p461
tp462
Rp463
aF0.043865203857421875
aI66
aS'kernel = 0 degree'
p464
ag4
(g8
S']t\xd1E\x17]\xe4?'
p465
tp466
Rp467
ag4
(g8
S'^t\xd1E\x17]\xe4?'
p468
tp469
Rp470
aF0.006299018859863281
aI66
aS'kernel = 0 degree'
p471
aa(lp472
g4
(g8
S'\xab\xaa\xaa\xaa\xaa\xaa\xea?'
p473
tp474
Rp475
ag4
(g8
S'~\x0e\xa9\t\xc6[\xe9?'
p476
tp477
Rp478
aF0.0070629119873046875
aI66
aS'kernel = 0 degree'
p479
ag4
(g8
S'>\xf8\xe0\x83\x0f>\xe8?'
p480
tp481
Rp482
ag4
(g8
S"vb'vb'\xe6?"
p483
tp484
Rp485
aF0.006907939910888672
aI66
aS'kernel = 0 degree'
p486
ag4
(g8
S'/\xba\xe8\xa2\x8b.\xea?'
p487
tp488
Rp489
ag4
(g8
S'8\x8e\xe38\x8e\xe3\xe8?'
p490
tp491
Rp492
aF0.03190112113952637
aI66
aS'kernel = 0 degree'
p493
aa(lp494
g4
(g8
S"'\x9bl\xb2\xc9&\xeb?"
p495
tp496
Rp497
ag4
(g8
S'a\xb9\xa7\x11\x96{\xea?'
p498
tp499
Rp500
aF0.04577183723449707
aI66
aS'kernel = 0 degree'
p501
ag4
(g8
S'>\xf8\xe0\x83\x0f>\xe8?'
p502
tp503
Rp504
ag4
(g8
S'5\xc2rO#,\xe7?'
p505
tp506
Rp507
aF0.04024791717529297
aI66
aS'kernel = 0 degree'
p508
ag4
(g8
S'\xe9\xa2\x8b.\xba\xe8\xe2?'
p509
tp510
Rp511
ag4
(g8
S'\x00\x00\x00\x00\x00\x00\x00\x00'
p512
tp513
Rp514
aF0.040444135665893555
aI66
aS'kernel = 0 degree'
p515
aa(lp516
g4
(g8
S'>\xf8\xe0\x83\x0f>\xe8?'
p517
tp518
Rp519
ag4
(g8
S'\xbe\xf7\xde{\xef\xbd\xe7?'
p520
tp521
Rp522
aF0.03551197052001953
aI66
aS'kernel = 0 degree'
p523
ag4
(g8
S'\xc2\x07\x1f|\xf0\xc1\xe7?'
p524
tp525
Rp526
ag4
(g8
S'Lg1\x9d\xc5t\xe6?'
p527
tp528
Rp529
aF0.03525495529174805
aI66
aS'kernel = 0 degree'
p530
ag4
(g8
S'\xe9\xa2\x8b.\xba\xe8\xe2?'
p531
tp532
Rp533
ag4
(g8
S'\x00\x00\x00\x00\x00\x00\x00\x00'
p534
tp535
Rp536
aF0.03335309028625488
aI66
aS'kernel = 0 degree'
p537
aa(lp538
g4
(g8
S'\xba\xe8\xa2\x8b.\xba\xe8?'
p539
tp540
Rp541
ag4
(g8
S'\xb4y\x9f\xe2\x92!\xe8?'
p542
tp543
Rp544
aF0.006605863571166992
aI66
aS'kernel = 0 degree'
p545
ag4
(g8
S'\xba\xe8\xa2\x8b.\xba\xe8?'
p546
tp547
Rp548
ag4
(g8
S'Cy\r\xe55\x94\xe7?'
p549
tp550
Rp551
aF0.0256960391998291
aI66
aS'kernel = 0 degree'
p552
ag4
(g8
S'\xf8\xe0\x83\x0f>\xf8\xe0?'
p553
tp554
Rp555
ag4
(g8
S'\x00\x00\x00\x00\x00\x00\x00\x00'
p556
tp557
Rp558
aF0.028367042541503906
aI66
aS'kernel = 0 degree'
p559
aa(lp560
g4
(g8
S'>\xf8\xe0\x83\x0f>\xe8?'
p561
tp562
Rp563
ag4
(g8
S'5\xc2rO#,\xe7?'
p564
tp565
Rp566
aF0.02511286735534668
aI66
aS'kernel = 0 degree'
p567
ag4
(g8
S'\xca&\x9bl\xb2\xc9\xe6?'
p568
tp569
Rp570
ag4
(g8
S'n\xde\xa7\xb8d\x08\xe6?'
p571
tp572
Rp573
aF0.030742883682250977
aI66
aS'kernel = 0 degree'
p574
ag4
(g8
S'\xe9\xa2\x8b.\xba\xe8\xe2?'
p575
tp576
Rp577
ag4
(g8
S'\x00\x00\x00\x00\x00\x00\x00\x00'
p578
tp579
Rp580
aF0.005609035491943359
aI66
aS'kernel = 0 degree'
p581
aa(lp582
g4
(g8
S'\xb2\xc9&\x9bl\xb2\xe9?'
p583
tp584
Rp585
ag4
(g8
S';\x8b\xe9,\xa6\xb3\xe8?'
p586
tp587
Rp588
aF0.034327030181884766
aI66
aS'kernel = 0 degree'
p589
ag4
(g8
S'/\xba\xe8\xa2\x8b.\xea?'
p590
tp591
Rp592
ag4
(g8
S'H\x92$I\x92$\xe9?'
p593
tp594
Rp595
aF0.03244590759277344
aI66
aS'kernel = 0 degree'
p596
ag4
(g8
S'6\xd9d\x93M6\xe9?'
p597
tp598
Rp599
ag4
(g8
S'7\xd9d\x93M6\xe9?'
p600
tp601
Rp602
aF0.031794071197509766
aI66
aS'kernel = 0 degree'
p603
aa(lp604
g4
(g8
S'\xba\xe8\xa2\x8b.\xba\xe8?'
p605
tp606
Rp607
ag4
(g8
S'\x03\x95\xb3[\xf8\xd5\xe8?'
p608
tp609
Rp610
aF0.03595089912414551
aI66
aS'kernel = 0 degree'
p611
ag4
(g8
S'\xca&\x9bl\xb2\xc9\xe6?'
p612
tp613
Rp614
ag4
(g8
S'\xf2\x94 O\t\xf2\xe4?'
p615
tp616
Rp617
aF0.016574859619140625
aI66
aS'kernel = 0 degree'
p618
ag4
(g8
S'\x08\x1f|\xf0\xc1\x07\xdf?'
p619
tp620
Rp621
ag4
(g8
S'\x00\x00\x00\x00\x00\x00\x00\x00'
p622
tp623
Rp624
aF0.04366588592529297
aI66
aS'kernel = 0 degree'
p625
aa(lp626
g4
(g8
S'F\x17]t\xd1E\xe7?'
p627
tp628
Rp629
ag4
(g8
S'UUUUUU\xe5?'
p630
tp631
Rp632
aF0.0343470573425293
aI66
aS'kernel = 0 degree'
p633
ag4
(g8
S'\xca&\x9bl\xb2\xc9\xe6?'
p634
tp635
Rp636
ag4
(g8
S'\x15\x14\x14\x14\x14\x14\xe4?'
p637
tp638
Rp639
aF0.03434014320373535
aI66
aS'kernel = 0 degree'
p640
ag4
(g8
S'\xe1\x83\x0f>\xf8\xe0\xe3?'
p641
tp642
Rp643
ag4
(g8
S'\xd6\x87\xc6\xfa\xd0X\xdf?'
p644
tp645
Rp646
aF0.011513948440551758
aI66
aS'kernel = 0 degree'
p647
aa(lp648
g4
(g8
S'F\x17]t\xd1E\xe7?'
p649
tp650
Rp651
ag4
(g8
S'7\xbd\xe9Moz\xe3?'
p652
tp653
Rp654
aF0.07493805885314941
aI66
aS'kernel = 0 degree'
p655
ag4
(g8
S'\xc2\x07\x1f|\xf0\xc1\xe7?'
p656
tp657
Rp658
ag4
(g8
S'\xd8u]\xd7u]\xe7?'
p659
tp660
Rp661
aF0.006447792053222656
aI66
aS'kernel = 0 degree'
p662
ag4
(g8
S'e\x93M6\xd9d\xe3?'
p663
tp664
Rp665
ag4
(g8
S'\x00\x00\x00\x00\x00\x00\x00\x00'
p666
tp667
Rp668
aF0.033239126205444336
aI66
aS'kernel = 0 degree'
p669
aa(lp670
g4
(g8
S'/\xba\xe8\xa2\x8b.\xea?'
p671
tp672
Rp673
ag4
(g8
S'\x00\x00\x00\x00\x00\x00\xea?'
p674
tp675
Rp676
aF0.006950855255126953
aI66
aS'kernel = 0 degree'
p677
ag4
(g8
S'F\x17]t\xd1E\xe7?'
p678
tp679
Rp680
ag4
(g8
S'|\x1aa\xb9\xa7\x11\xe6?'
p681
tp682
Rp683
aF0.006319999694824219
aI66
aS'kernel = 0 degree'
p684
ag4
(g8
S'\x08\x1f|\xf0\xc1\x07\xdf?'
p685
tp686
Rp687
ag4
(g8
S'\x00\x00\x00\x00\x00\x00\x00\x00'
p688
tp689
Rp690
aF0.005793094635009766
aI66
aS'kernel = 0 degree'
p691
aa(lp692
g4
(g8
S'UUUUUU\xe5?'
p693
tp694
Rp695
ag4
(g8
S'EDDDDD\xe4?'
p696
tp697
Rp698
aF0.0067501068115234375
aI66
aS'kernel = 0 degree'
p699
ag4
(g8
S'\xc2\x07\x1f|\xf0\xc1\xe7?'
p700
tp701
Rp702
ag4
(g8
S'\xd6u]\xd7u]\xe7?'
p703
tp704
Rp705
aF0.006543874740600586
aI66
aS'kernel = 0 degree'
p706
ag4
(g8
S'm\xb2\xc9&\x9bl\xe2?'
p707
tp708
Rp709
ag4
(g8
S'\x00\x00\x00\x00\x00\x00\x00\x00'
p710
tp711
Rp712
aF0.005777120590209961
aI66
aS'kernel = 0 degree'
p713
aa(lp714
g4
(g8
S'\xba\xe8\xa2\x8b.\xba\xe8?'
p715
tp716
Rp717
ag4
(g8
S'\xb4y\x9f\xe2\x92!\xe8?'
p718
tp719
Rp720
aF0.029947996139526367
aI66
aS'kernel = 0 degree'
p721
ag4
(g8
S'\xc2\x07\x1f|\xf0\xc1\xe7?'
p722
tp723
Rp724
ag4
(g8
S'I\x0fT\xcen\xe1\xe7?'
p725
tp726
Rp727
aF0.0063631534576416016
aI66
aS'kernel = 0 degree'
p728
ag4
(g8
S'\xf8\xe0\x83\x0f>\xf8\xe0?'
p729
tp730
Rp731
ag4
(g8
S'\x00\x00\x00\x00\x00\x00\x00\x00'
p732
tp733
Rp734
aF0.0057179927825927734
aI66
aS'kernel = 0 degree'
p735
aa(lp736
g4
(g8
S'\xca&\x9bl\xb2\xc9\xe6?'
p737
tp738
Rp739
ag4
(g8
S'\x14\x14\x14\x14\x14\x14\xe4?'
p740
tp741
Rp742
aF0.00648808479309082
aI66
aS'kernel = 1 degree'
p743
ag4
(g8
S'>\xf8\xe0\x83\x0f>\xe8?'
p744
tp745
Rp746
ag4
(g8
S'\xc3\xf5(\\\x8f\xc2\xe5?'
p747
tp748
Rp749
aF0.006557941436767578
aI66
aS'kernel = 0 degree'
p750
ag4
(g8
S'F\x17]t\xd1E\xe7?'
p751
tp752
Rp753
ag4
(g8
S'\x01\x00\x00\x00\x00\x00\xe4?'
p754
tp755
Rp756
aF0.0067331790924072266
aI66
aS'kernel = 0 degree'
p757
aa(lp758
g4
(g8
S'>\xf8\xe0\x83\x0f>\xe8?'
p759
tp760
Rp761
ag4
(g8
S"vb'vb'\xe6?"
p762
tp763
Rp764
aF0.006666898727416992
aI66
aS'kernel = 0 degree'
p765
ag4
(g8
S'>\xf8\xe0\x83\x0f>\xe8?'
p766
tp767
Rp768
ag4
(g8
S'xwwwww\xe7?'
p769
tp770
Rp771
aF0.006777048110961914
aI66
aS'kernel = 1 degree'
p772
ag4
(g8
S'\xab\xaa\xaa\xaa\xaa\xaa\xea?'
p773
tp774
Rp775
ag4
(g8
S'\x9a\x99\x99\x99\x99\x99\xe9?'
p776
tp777
Rp778
aF0.025774002075195312
aI66
aS'kernel = 0 degree'
p779
aa(lp780
g4
(g8
S'\xc2\x07\x1f|\xf0\xc1\xe7?'
p781
tp782
Rp783
ag4
(g8
S'\xd9\xe7\x90\x9a`\xbc\xe5?'
p784
tp785
Rp786
aF0.006644010543823242
aI66
aS'kernel = 1 degree'
p787
ag4
(g8
S'6\xd9d\x93M6\xe9?'
p788
tp789
Rp790
ag4
(g8
S'C{\t\xed%\xb4\xe7?'
p791
tp792
Rp793
aF0.00651097297668457
aI66
aS'kernel = 0 degree'
p794
ag4
(g8
S'>\xf8\xe0\x83\x0f>\xe8?'
p795
tp796
Rp797
ag4
(g8
S'4\xc2rO#,\xe7?'
p798
tp799
Rp800
aF0.006609916687011719
aI66
aS'kernel = 0 degree'
p801
aa(lp802
g4
(g8
S'\xd1E\x17]t\xd1\xe5?'
p803
tp804
Rp805
ag4
(g8
S'^Cy\r\xe55\xe4?'
p806
tp807
Rp808
aF0.007048845291137695
aI66
aS'kernel = 1 degree'
p809
ag4
(g8
S'F\x17]t\xd1E\xe7?'
p810
tp811
Rp812
ag4
(g8
S'gfffff\xe6?'
p813
tp814
Rp815
aF0.043473005294799805
aI66
aS'kernel = 0 degree'
p816
ag4
(g8
S'>\xf8\xe0\x83\x0f>\xe8?'
p817
tp818
Rp819
ag4
(g8
S"vb'vb'\xe6?"
p820
tp821
Rp822
aF0.006493091583251953
aI66
aS'kernel = 0 degree'
p823
aa(lp824
g4
(g8
S'>\xf8\xe0\x83\x0f>\xe8?'
p825
tp826
Rp827
ag4
(g8
S'\xbe\xf7\xde{\xef\xbd\xe7?'
p828
tp829
Rp830
aF0.006716012954711914
aI66
aS'kernel = 0 degree'
p831
ag4
(g8
S'\xba\xe8\xa2\x8b.\xba\xe8?'
p832
tp833
Rp834
ag4
(g8
S'F\x17]t\xd1E\xe7?'
p835
tp836
Rp837
aF0.017409086227416992
aI66
aS'kernel = 1 degree'
p838
ag4
(g8
S'\xba\xe8\xa2\x8b.\xba\xe8?'
p839
tp840
Rp841
ag4
(g8
S'\x97\x96\x96\x96\x96\x96\xe6?'
p842
tp843
Rp844
aF0.006442070007324219
aI66
aS'kernel = 0 degree'
p845
aa(lp846
g4
(g8
S'6\xd9d\x93M6\xe9?'
p847
tp848
Rp849
ag4
(g8
S'\x89\x88\x88\x88\x88\x88\xe8?'
p850
tp851
Rp852
aF0.006552934646606445
aI66
aS'kernel = 0 degree'
p853
ag4
(g8
S'\xd9d\x93M6\xd9\xe4?'
p854
tp855
Rp856
ag4
(g8
S'h1\x9d\xc5t\x16\xe3?'
p857
tp858
Rp859
aF0.011543035507202148
aI66
aS'kernel = 0 degree'
p860
ag4
(g8
S't\xd1E\x17]t\xe1?'
p861
tp862
Rp863
ag4
(g8
S'\x00\x00\x00\x00\x00\x00\x00\x00'
p864
tp865
Rp866
aF0.00554203987121582
aI66
aS'kernel = 0 degree'
p867
aa(lp868
g4
(g8
S'6\xd9d\x93M6\xe9?'
p869
tp870
Rp871
ag4
(g8
S'\xeei\x84\xe5\x9eF\xe8?'
p872
tp873
Rp874
aF0.006833076477050781
aI66
aS'kernel = 0 degree'
p875
ag4
(g8
S'\xb2\xc9&\x9bl\xb2\xe9?'
p876
tp877
Rp878
ag4
(g8
S'XG\x9b\xf7).\xe9?'
p879
tp880
Rp881
aF0.004406929016113281
aI66
aS'kernel = 0 degree'
p882
ag4
(g8
S'\x08\x1f|\xf0\xc1\x07\xdf?'
p883
tp884
Rp885
ag4
(g8
S'\x00\x00\x00\x00\x00\x00\x00\x00'
p886
tp887
Rp888
aF0.0056591033935546875
aI66
aS'kernel = 0 degree'
p889
aa(lp890
g4
(g8
S'>\xf8\xe0\x83\x0f>\xe8?'
p891
tp892
Rp893
ag4
(g8
S"vb'vb'\xe6?"
p894
tp895
Rp896
aF0.006720066070556641
aI66
aS'kernel = 0 degree'
p897
ag4
(g8
S'>\xf8\xe0\x83\x0f>\xe8?'
p898
tp899
Rp900
ag4
(g8
S']t\xd1E\x17]\xe4?'
p901
tp902
Rp903
aF0.00964498519897461
aI66
aS'kernel = 0 degree'
p904
ag4
(g8
S'/\xba\xe8\xa2\x8b.\xea?'
p905
tp906
Rp907
ag4
(g8
S'\xce9\xe7\x9cs\xce\xe9?'
p908
tp909
Rp910
aF0.006349086761474609
aI66
aS'kernel = 0 degree'
p911
aa(lp912
g4
(g8
S'\xc2\x07\x1f|\xf0\xc1\xe7?'
p913
tp914
Rp915
ag4
(g8
S'\xd8u]\xd7u]\xe7?'
p916
tp917
Rp918
aF0.0066449642181396484
aI66
aS'kernel = 0 degree'
p919
ag4
(g8
S'N6\xd9d\x93M\xe6?'
p920
tp921
Rp922
ag4
(g8
S'UUUUUU\xe5?'
p923
tp924
Rp925
aF0.004467010498046875
aI66
aS'kernel = 0 degree'
p926
ag4
(g8
S't\xd1E\x17]t\xe1?'
p927
tp928
Rp929
ag4
(g8
S'\x00\x00\x00\x00\x00\x00\x00\x00'
p930
tp931
Rp932
aF0.005151987075805664
aI66
aS'kernel = 0 degree'
p933
aa(lp934
g4
(g8
S"'\x9bl\xb2\xc9&\xeb?"
p935
tp936
Rp937
ag4
(g8
S'a\xb9\xa7\x11\x96{\xea?'
p938
tp939
Rp940
aF0.0065729618072509766
aI66
aS'kernel = 0 degree'
p941
ag4
(g8
S'F\x17]t\xd1E\xe7?'
p942
tp943
Rp944
ag4
(g8
S'n\xdb\xb6m\xdb\xb6\xe5?'
p945
tp946
Rp947
aF0.004436969757080078
aI66
aS'kernel = 1 degree'
p948
ag4
(g8
S'\x1f|\xf0\xc1\x07\x1f\xec?'
p949
tp950
Rp951
ag4
(g8
S'\x01\x00\x00\x00\x00\x00\xec?'
p952
tp953
Rp954
aF0.005744218826293945
aI66
aS'kernel = 0 degree'
p955
aa(lp956
g4
(g8
S'\xba\xe8\xa2\x8b.\xba\xe8?'
p957
tp958
Rp959
ag4
(g8
S'\x03\x95\xb3[\xf8\xd5\xe8?'
p960
tp961
Rp962
aF0.004438161849975586
aI66
aS'kernel = 0 degree'
p963
ag4
(g8
S'/\xba\xe8\xa2\x8b.\xea?'
p964
tp965
Rp966
ag4
(g8
S'\xfa\xac\x1bL\x91\xcf\xea?'
p967
tp968
Rp969
aF0.0065898895263671875
aI66
aS'kernel = 0 degree'
p970
ag4
(g8
S'6\xd9d\x93M6\xe9?'
p971
tp972
Rp973
ag4
(g8
S'iiiiii\xe9?'
p974
tp975
Rp976
aF0.0065898895263671875
aI66
aS'kernel = 0 degree'
p977
aa(lp978
g4
(g8
S'6\xd9d\x93M6\xe9?'
p979
tp980
Rp981
ag4
(g8
S'B{\t\xed%\xb4\xe7?'
p982
tp983
Rp984
aF0.005483150482177734
aI66
aS'kernel = 0 degree'
p985
ag4
(g8
S'\xd1E\x17]t\xd1\xe5?'
p986
tp987
Rp988
ag4
(g8
S'^Cy\r\xe55\xe4?'
p989
tp990
Rp991
aF0.004297971725463867
aI66
aS'kernel = 0 degree'
p992
ag4
(g8
S'\xf8\xe0\x83\x0f>\xf8\xe0?'
p993
tp994
Rp995
ag4
(g8
S'\x00\x00\x00\x00\x00\x00\x00\x00'
p996
tp997
Rp998
aF0.0036640167236328125
aI66
aS'kernel = 0 degree'
p999
aa(lp1000
g4
(g8
S'\xca&\x9bl\xb2\xc9\xe6?'
p1001
tp1002
Rp1003
ag4
(g8
S'\x14\x14\x14\x14\x14\x14\xe4?'
p1004
tp1005
Rp1006
aF0.006613969802856445
aI66
aS'kernel = 1 degree'
p1007
ag4
(g8
S'\xb2\xc9&\x9bl\xb2\xe9?'
p1008
tp1009
Rp1010
ag4
(g8
S'\xd9\xd7\xd7\xd7\xd7\xd7\xe7?'
p1011
tp1012
Rp1013
aF0.0064771175384521484
aI66
aS'kernel = 0 degree'
p1014
ag4
(g8
S'm\xb2\xc9&\x9bl\xe2?'
p1015
tp1016
Rp1017
ag4
(g8
S'\x00\x00\x00\x00\x00\x00\x00\x00'
p1018
tp1019
Rp1020
aF0.0057489871978759766
aI66
aS'kernel = 0 degree'
p1021
aa(lp1022
g4
(g8
S'F\x17]t\xd1E\xe7?'
p1023
tp1024
Rp1025
ag4
(g8
S'\xe9\xa2\x8b.\xba\xe8\xe2?'
p1026
tp1027
Rp1028
aF0.004456996917724609
aI66
aS'kernel = 0 degree'
p1029
ag4
(g8
S'F\x17]t\xd1E\xe7?'
p1030
tp1031
Rp1032
ag4
(g8
S'\x99\x99\x99\x99\x99\x99\xe1?'
p1033
tp1034
Rp1035
aF0.005851030349731445
aI66
aS'kernel = 0 degree'
p1036
ag4
(g8
S'\xe1\x83\x0f>\xf8\xe0\xe3?'
p1037
tp1038
Rp1039
ag4
(g8
S'\x00\x00\x00\x00\x00\x00\x00\x00'
p1040
tp1041
Rp1042
aF0.00560307502746582
aI66
aS'kernel = 0 degree'
p1043
aa(lp1044
g4
(g8
S'>\xf8\xe0\x83\x0f>\xe8?'
p1045
tp1046
Rp1047
ag4
(g8
S"vb'vb'\xe6?"
p1048
tp1049
Rp1050
aF0.004450798034667969
aI66
aS'kernel = 0 degree'
p1051
ag4
(g8
S'\xba\xe8\xa2\x8b.\xba\xe8?'
p1052
tp1053
Rp1054
ag4
(g8
S'e\x9fCj\x82\xf1\xe6?'
p1055
tp1056
Rp1057
aF0.006551980972290039
aI66
aS'kernel = 1 degree'
p1058
ag4
(g8
S'\xb2\xc9&\x9bl\xb2\xe9?'
p1059
tp1060
Rp1061
ag4
(g8
S'\x17l\xc1\x16l\xc1\xe6?'
p1062
tp1063
Rp1064
aF0.006510019302368164
aI66
aS'kernel = 0 degree'
p1065
aa(lp1066
g4
(g8
S'F\x17]t\xd1E\xe7?'
p1067
tp1068
Rp1069
ag4
(g8
S'ffffff\xe6?'
p1070
tp1071
Rp1072
aF0.004547119140625
aI66
aS'kernel = 0 degree'
p1073
ag4
(g8
S'\xc2\x07\x1f|\xf0\xc1\xe7?'
p1074
tp1075
Rp1076
ag4
(g8
S'\x1c\xd6\xbea\xed\x1b\xe6?'
p1077
tp1078
Rp1079
aF0.004568815231323242
aI66
aS'kernel = 0 degree'
p1080
ag4
(g8
S'\xf8\xe0\x83\x0f>\xf8\xe0?'
p1081
tp1082
Rp1083
ag4
(g8
S'\x00\x00\x00\x00\x00\x00\x00\x00'
p1084
tp1085
Rp1086
aF0.0036759376525878906
aI66
aS'kernel = 0 degree'
p1087
aa(lp1088
g4
(g8
S'\xca&\x9bl\xb2\xc9\xe6?'
p1089
tp1090
Rp1091
ag4
(g8
S'l\xde\xa7\xb8d\x08\xe6?'
p1092
tp1093
Rp1094
aF0.006767988204956055
aI66
aS'kernel = 0 degree'
p1095
ag4
(g8
S'N6\xd9d\x93M\xe6?'
p1096
tp1097
Rp1098
ag4
(g8
S'\x00\x00\x00\x00\x00\x00\xe6?'
p1099
tp1100
Rp1101
aF0.004420042037963867
aI66
aS'kernel = 0 degree'
p1102
ag4
(g8
S'\xf8\xe0\x83\x0f>\xf8\xe0?'
p1103
tp1104
Rp1105
ag4
(g8
S'\x00\x00\x00\x00\x00\x00\x00\x00'
p1106
tp1107
Rp1108
aF0.003729104995727539
aI66
aS'kernel = 0 degree'
p1109
aas.