(dp0
S'sat'
p1
(lp2
(lp3
cnumpy.core.multiarray
scalar
p4
(cnumpy
dtype
p5
(S'f8'
p6
I0
I1
tp7
Rp8
(I3
S'<'
p9
NNNI-1
I-1
I0
tp10
bS'\xfe\x96\xf3\xdd%\x82\xee?'
p11
tp12
Rp13
ag4
(g8
S'\x00\x87\x17&\xdc?\xee?'
p14
tp15
Rp16
aF0.8261299133300781
aI1609
aI6
ag4
(g8
S'\xfd\x8f\xbf\xec\xb0h\xee?'
p17
tp18
Rp19
ag4
(g8
S'\xe2\xef\x80\xf8; \xee?'
p20
tp21
Rp22
aF0.5204999446868896
aI1609
aI4
ag4
(g8
S'\x97\xe5uC\x98+\xee?'
p23
tp24
Rp25
ag4
(g8
S't7\x87\xee\xe6\xd0\xed?'
p26
tp27
Rp28
aF0.3095731735229492
aI1609
aI4
aa(lp29
g4
(g8
S'd3\xd5\xa4T\x8c\xee?'
p30
tp31
Rp32
ag4
(g8
S'\xfe\xedj@WN\xee?'
p33
tp34
Rp35
aF0.8553979396820068
aI1609
aI6
ag4
(g8
S'\x97\xfa\x11\x17\xf7w\xee?'
p36
tp37
Rp38
ag4
(g8
S'\x9a\x8b$\xf8\xc2=\xee?'
p39
tp40
Rp41
aF0.5073709487915039
aI1609
aI5
ag4
(g8
S'\x97\xf3\xdd%\x82^\xee?'
p42
tp43
Rp44
ag4
(g8
S'\xb9e\xb7\xbf\xe1\x0f\xee?'
p45
tp46
Rp47
aF0.33589887619018555
aI1609
aI4
aa(lp48
g4
(g8
S'1^0P\xc8m\xee?'
p49
tp50
Rp51
ag4
(g8
S'm8\xc3DW5\xee?'
p52
tp53
Rp54
aF0.6805200576782227
aI1609
aI6
ag4
(g8
S'1W\xfc^ST\xee?'
p55
tp56
Rp57
ag4
(g8
S'9\xcf&\xfdw!\xee?'
p58
tp59
Rp60
aF0.43731093406677246
aI1609
aI3
ag4
(g8
S'\xfd\x8f\xbf\xec\xb0h\xee?'
p61
tp62
Rp63
ag4
(g8
S'\xec\xe9a\x83A8\xee?'
p64
tp65
Rp66
aF0.18192791938781738
aI1609
aI3
aa(lp67
g4
(g8
S'1^0P\xc8m\xee?'
p68
tp69
Rp70
ag4
(g8
S'\xd2\xaen\x94\xbe0\xee?'
p71
tp72
Rp73
aF0.7138791084289551
aI1609
aI9
ag4
(g8
S'\x97\xf3\xdd%\x82^\xee?'
p74
tp75
Rp76
ag4
(g8
S'\r\xf4J\xfb\xee$\xee?'
p77
tp78
Rp79
aF0.495790958404541
aI1609
aI3
ag4
(g8
S'1W\xfc^ST\xee?'
p80
tp81
Rp82
ag4
(g8
S'|\x1aa\xb9\xa7\x11\xee?'
p83
tp84
Rp85
aF0.21854805946350098
aI1609
aI5
aa(lp86
g4
(g8
S"\xfe\x9d'\xcf\x9a\x9b\xee?"
p87
tp88
Rp89
ag4
(g8
S'\x97S\xf0r\n^\xee?'
p90
tp91
Rp92
aF0.607219934463501
aI1609
aI8
ag4
(g8
S'\xfe\xa4[\xc0\x0f\xb5\xee?'
p93
tp94
Rp95
ag4
(g8
S'\x86s7\xb4\x89\x7f\xee?'
p96
tp97
Rp98
aF0.38119983673095703
aI1609
aI5
ag4
(g8
S'd3\xd5\xa4T\x8c\xee?'
p99
tp100
Rp101
ag4
(g8
S'\xd6\x1fys\xf5G\xee?'
p102
tp103
Rp104
aF0.1911330223083496
aI1609
aI4
aa(lp105
g4
(g8
S'\x97\x01F\x08l\x91\xee?'
p106
tp107
Rp108
ag4
(g8
S'\xa1k`\xb6xQ\xee?'
p109
tp110
Rp111
aF0.5825099945068359
aI1609
aI10
ag4
(g8
S'\xfe\xa4[\xc0\x0f\xb5\xee?'
p112
tp113
Rp114
ag4
(g8
S'Xp\xf0)Gu\xee?'
p115
tp116
Rp117
aF0.25454187393188477
aI1609
aI4
ag4
(g8
S'1W\xfc^ST\xee?'
p118
tp119
Rp120
ag4
(g8
S'\xbe\xb8\xfaAG\x05\xee?'
p121
tp122
Rp123
aF0.24745702743530273
aI1609
aI6
aa(lp124
g4
(g8
S'\xcb\xe4R?\xe2\xe2\xee?'
p125
tp126
Rp127
ag4
(g8
S'\x16l\xc1\x16l\xc1\xee?'
p128
tp129
Rp130
aF0.6559510231018066
aI1609
aI9
ag4
(g8
S'd:\t\x96\xc9\xa5\xee?'
p131
tp132
Rp133
ag4
(g8
S'$\xea\x1cEZ\x80\xee?'
p134
tp135
Rp136
aF0.27532410621643066
aI1609
aI3
ag4
(g8
S"1s\xcc#'\xba\xee?"
p137
tp138
Rp139
ag4
(g8
S'@8&y\xc8\x8e\xee?'
p140
tp141
Rp142
aF0.15408110618591309
aI1609
aI6
aa(lp143
g4
(g8
S'1edA=\x87\xee?'
p144
tp145
Rp146
ag4
(g8
S'\x0e|W\x0e|W\xee?'
p147
tp148
Rp149
aF0.41874098777770996
aI1609
aI8
ag4
(g8
S'1^0P\xc8m\xee?'
p150
tp151
Rp152
ag4
(g8
S'1d\xabv\xfd5\xee?'
p153
tp154
Rp155
aF0.2564809322357178
aI1609
aI6
ag4
(g8
S'\x97\x01F\x08l\x91\xee?'
p156
tp157
Rp158
ag4
(g8
S'\xe9\xdfJQBe\xee?'
p159
tp160
Rp161
aF0.14965415000915527
aI1609
aI3
aa(lp162
g4
(g8
S'1l\x982\xb2\xa0\xee?'
p163
tp164
Rp165
ag4
(g8
S'\xd4k\xa4\xac\xdbY\xee?'
p166
tp167
Rp168
aF0.3937549591064453
aI1609
aI4
ag4
(g8
S"\xfe\x9d'\xcf\x9a\x9b\xee?"
p169
tp170
Rp171
ag4
(g8
S'\x0e\xe55\x94\xd7P\xee?'
p172
tp173
Rp174
aF0.24567103385925293
aI1609
aI4
ag4
(g8
S'0I\x94|i!\xee?'
p175
tp176
Rp177
ag4
(g8
S'\xcc-\xb7\xdcr\xcb\xed?'
p178
tp179
Rp180
aF0.14822077751159668
aI1609
aI3
aa(lp181
g4
(g8
S'\x98\x0f\xae\xeaU\xc4\xee?'
p182
tp183
Rp184
ag4
(g8
S'\xeaMoz\xd3\x9b\xee?'
p185
tp186
Rp187
aF0.2310178279876709
aI1609
aI5
ag4
(g8
S'\xcb\xd6\xea\\\xf8\xaf\xee?'
p188
tp189
Rp190
ag4
(g8
S'\xdb\xfd\x1d\\\xf6\x86\xee?'
p191
tp192
Rp193
aF0.16536998748779297
aI1609
aI7
ag4
(g8
S'd3\xd5\xa4T\x8c\xee?'
p194
tp195
Rp196
ag4
(g8
S'\x92\xb2>\xf3V\\\xee?'
p197
tp198
Rp199
aF0.08435392379760742
aI1609
aI3
aas.