(dp0
S'letter'
p1
(lp2
(lp3
cnumpy.core.multiarray
scalar
p4
(cnumpy
dtype
p5
(S'f8'
p6
I0
I1
tp7
Rp8
(I3
S'<'
p9
NNNI-1
I-1
I0
tp10
bS'$\x97\xff\x90~\xfb\xee?'
p11
tp12
Rp13
ag4
(g8
S'\xcb\xcd\xbb\xde\x8b\xff\xee?'
p14
tp15
Rp16
aF4.998549938201904
aI5000
aS'kernel = 2 degree'
p17
ag4
(g8
S's\xd7\x12\xf2A\xcf\xee?'
p18
tp19
Rp20
ag4
(g8
S'\xe8@m\x83\x0e\xd4\xee?'
p21
tp22
Rp23
aF4.253756046295166
aI5000
aS'kernel = 2 degree'
p24
ag4
(g8
S'\xd74\xef8EG\xee?'
p25
tp26
Rp27
ag4
(g8
S'\x1e\x95L\x1e\x95L\xee?'
p28
tp29
Rp30
aF5.1223859786987305
aI5000
aS'kernel = 2 degree'
p31
aa(lp32
g4
(g8
S'\xb4\xc8v\xbe\x9f\x1a\xef?'
p33
tp34
Rp35
ag4
(g8
S'\xc6\x1f\xf2\xac\xc4\x1e\xef?'
p36
tp37
Rp38
aF6.893417119979858
aI5000
aS'kernel = 2 degree'
p39
ag4
(g8
S'?W[\xb1\xbf\xec\xee?'
p40
tp41
Rp42
ag4
(g8
S'\x03)\xf8\xf9\xd3\xf1\xee?'
p43
tp44
Rp45
aF6.378922939300537
aI5000
aS'kernel = 2 degree'
p46
ag4
(g8
S'\xef\xc9\xc3B\xadi\xee?'
p47
tp48
Rp49
ag4
(g8
S';N\x13\xa0\x04q\xee?'
p50
tp51
Rp52
aF4.155402898788452
aI5000
aS'kernel = 2 degree'
p53
aa(lp54
g4
(g8
S'\n\xd7\xa3p=\n\xef?'
p55
tp56
Rp57
ag4
(g8
S'#\xeb\xd3\xd8\x88\n\xef?'
p58
tp59
Rp60
aF8.017415046691895
aI5000
aS'kernel = 2 degree'
p61
ag4
(g8
S'\x0c\x02+\x87\x16\xd9\xee?'
p62
tp63
Rp64
ag4
(g8
S'-\x9b\x04\xb74\xd9\xee?'
p65
tp66
Rp67
aF6.397427082061768
aI5000
aS'kernel = 2 degree'
p68
ag4
(g8
S'-C\x1c\xeb\xe26\xee?'
p69
tp70
Rp71
ag4
(g8
S'9\xe1#\xc0\xfa8\xee?'
p72
tp73
Rp74
aF4.348762035369873
aI5000
aS'kernel = 2 degree'
p75
aa(lp76
g4
(g8
S'\xab\xcf\xd5V\xec/\xef?'
p77
tp78
Rp79
ag4
(g8
S'\x9f\x94\x18\xa7\xb1-\xef?'
p80
tp81
Rp82
aF6.159495830535889
aI5000
aS'kernel = 2 degree'
p83
ag4
(g8
S'5^\xbaI\x0c\x02\xef?'
p84
tp85
Rp86
ag4
(g8
S'\xd3\x82\xfd\xaf\xce\xfe\xee?'
p87
tp88
Rp89
aF4.839566946029663
aI5000
aS'kernel = 2 degree'
p90
ag4
(g8
S'!\x1f\xf4lV}\xee?'
p91
tp92
Rp93
ag4
(g8
S'\x05o\xd2:\xf5x\xee?'
p94
tp95
Rp96
aF3.847522020339966
aI5000
aS'kernel = 2 degree'
p97
aa(lp98
g4
(g8
S'333333\xef?'
p99
tp100
Rp101
ag4
(g8
S'h\xe6\xe95k2\xef?'
p102
tp103
Rp104
aF5.80094313621521
aI5000
aS'kernel = 2 degree'
p105
ag4
(g8
S'`\xe5\xd0"\xdb\xf9\xee?'
p106
tp107
Rp108
ag4
(g8
S'\x97o\xf9\x96o\xf9\xee?'
p109
tp110
Rp111
aF4.567000865936279
aI5000
aS'kernel = 2 degree'
p112
ag4
(g8
S'\xfee\xf7\xe4a\xa1\xee?'
p113
tp114
Rp115
ag4
(g8
S'dr\xbb\xa4\xa9\xa1\xee?'
p116
tp117
Rp118
aF3.5141210556030273
aI5000
aS'kernel = 2 degree'
p119
aa(lp120
g4
(g8
S'\x89A`\xe5\xd0"\xef?'
p121
tp122
Rp123
ag4
(g8
S'\xa7\xe7\x9cx\x9d!\xef?'
p124
tp125
Rp126
aF5.613255023956299
aI5000
aS'kernel = 2 degree'
p127
ag4
(g8
S'z\xa5,C\x1c\xeb\xee?'
p128
tp129
Rp130
ag4
(g8
S'\xd1\xc1\xd4\x05\xef\xe8\xee?'
p131
tp132
Rp133
aF4.136033058166504
aI5000
aS'kernel = 2 degree'
p134
ag4
(g8
S'\xf6\x97\xdd\x93\x87\x85\xee?'
p135
tp136
Rp137
ag4
(g8
S'\xb52#/\xf0\x81\xee?'
p138
tp139
Rp140
aF3.26865291595459
aI5000
aS'kernel = 2 degree'
p141
aa(lp142
g4
(g8
S'\xab\xcf\xd5V\xec/\xef?'
p143
tp144
Rp145
ag4
(g8
S'\x07\xf9N\x9041\xef?'
p146
tp147
Rp148
aF4.466444969177246
aI5000
aS'kernel = 2 degree'
p149
ag4
(g8
S'?W[\xb1\xbf\xec\xee?'
p150
tp151
Rp152
ag4
(g8
S'\xfe\xba\x01\xf5c\xee\xee?'
p153
tp154
Rp155
aF4.130697011947632
aI5000
aS'kernel = 2 degree'
p156
ag4
(g8
S'[B>\xe8\xd9\xac\xee?'
p157
tp158
Rp159
ag4
(g8
S'\x13\xee\x1d\x8f\x8a\xb0\xee?'
p160
tp161
Rp162
aF2.8952910900115967
aI5000
aS'kernel = 2 degree'
p163
aa(lp164
g4
(g8
S'\x89A`\xe5\xd0"\xef?'
p165
tp166
Rp167
ag4
(g8
S'\x91,\xe0\xc2*!\xef?'
p168
tp169
Rp170
aF4.460973024368286
aI5000
aS'kernel = 2 degree'
p171
ag4
(g8
S'\n\xd7\xa3p=\n\xef?'
p172
tp173
Rp174
ag4
(g8
S'\x07\x1f|\xf0\xc1\x07\xef?'
p175
tp176
Rp177
aF4.097157001495361
aI5000
aS'kernel = 2 degree'
p178
ag4
(g8
S'+\x18\x95\xd4\th\xee?'
p179
tp180
Rp181
ag4
(g8
S'vS\xf6\x03\xfde\xee?'
p182
tp183
Rp184
aF3.0005319118499756
aI5000
aS'kernel = 2 degree'
p185
aa(lp186
g4
(g8
S'\xab\xcf\xd5V\xec/\xef?'
p187
tp188
Rp189
ag4
(g8
S'\x07J\xf0\x9e^1\xef?'
p190
tp191
Rp192
aF5.194350957870483
aI5000
aS'kernel = 2 degree'
p193
ag4
(g8
S'`\xe5\xd0"\xdb\xf9\xee?'
p194
tp195
Rp196
ag4
(g8
S'\x07/h\xe2\x8d\xfc\xee?'
p197
tp198
Rp199
aF4.25794792175293
aI5000
aS'kernel = 2 degree'
p200
ag4
(g8
S'n4\x80\xb7@\x82\xee?'
p201
tp202
Rp203
ag4
(g8
S'\x9f\xda\x86\x9e\xda\x86\xee?'
p204
tp205
Rp206
aF3.0905981063842773
aI5000
aS'kernel = 2 degree'
p207
aa(lp208
g4
(g8
S'\xab\xcf\xd5V\xec/\xef?'
p209
tp210
Rp211
ag4
(g8
S'\x9f\x94\x18\xa7\xb1-\xef?'
p212
tp213
Rp214
aF4.506974935531616
aI5000
aS'kernel = 2 degree'
p215
ag4
(g8
S'\x9c3\xa2\xb47\xf8\xee?'
p216
tp217
Rp218
ag4
(g8
S'H\xe5\x8c\xea\xb6\xf5\xee?'
p219
tp220
Rp221
aF3.681643009185791
aI5000
aS'kernel = 2 degree'
p222
ag4
(g8
S'\xa2\xb47\xf8\xc2d\xee?'
p223
tp224
Rp225
ag4
(g8
S'\xe2O~\x80\xd6^\xee?'
p226
tp227
Rp228
aF2.0997698307037354
aI5000
aS'kernel = 2 degree'
p229
aas.