(dp0
S'sat'
p1
(lp2
(lp3
cnumpy.core.multiarray
scalar
p4
(cnumpy
dtype
p5
(S'f8'
p6
I0
I1
tp7
Rp8
(I3
S'<'
p9
NNNI-1
I-1
I0
tp10
bS'/\x11\xf4\xf2\xc1U\xed?'
p11
tp12
Rp13
ag4
(g8
S'Q\xc8\x88\x1a\xbd\xde\xec?'
p14
tp15
Rp16
aF2.1622748374938965
aI1609
aS'kernel = 0 degree'
p17
ag4
(g8
S'\xc8m\xde:\x1e2\xed?'
p18
tp19
Rp20
ag4
(g8
S'\xd0\xb2\xb6\x93\xce\xbc\xec?'
p21
tp22
Rp23
aF1.6229848861694336
aI1609
aS'kernel = 0 degree'
p24
ag4
(g8
S'\xfb-\xe7\xbbK\x04\xed?'
p25
tp26
Rp27
ag4
(g8
S'yxxxxx\xec?'
p28
tp29
Rp30
aF1.549058198928833
aI1609
aS'kernel = 0 degree'
p31
aa(lp32
g4
(g8
S'\xc9\x90\xe2\xf0f\xb1\xed?'
p33
tp34
Rp35
ag4
(g8
S'\x0b\xc5\xc8\xc5aK\xed?'
p36
tp37
Rp38
aF1.8197898864746094
aI1609
aS'kernel = 0 degree'
p39
ag4
(g8
S'c\xfb4\x1b\xad\xc0\xed?'
p40
tp41
Rp42
ag4
(g8
S'j\xaa\xde\x9d\xd3Z\xed?'
p43
tp44
Rp45
aF1.7220501899719238
aI1609
aS'kernel = 0 degree'
p46
ag4
(g8
S'\xc9\x89\xae\xff\xf1\x97\xed?'
p47
tp48
Rp49
ag4
(g8
S'\xbb\x19\xcd\xd4\xc1(\xed?'
p50
tp51
Rp52
aF1.3194139003753662
aI1609
aS'kernel = 0 degree'
p53
aa(lp54
g4
(g8
S'b\xe6\x98GNt\xed?'
p55
tp56
Rp57
ag4
(g8
S'\x7fpL\xf2\x90\x1d\xed?'
p58
tp59
Rp60
aF1.6372320652008057
aI1609
aS'kernel = 0 degree'
p61
ag4
(g8
S'\x95\xad\xd5\xb9\xf0_\xed?'
p62
tp63
Rp64
ag4
(g8
S'\xeb\xfe&\x84j\x05\xed?'
p65
tp66
Rp67
aF1.6612470149993896
aI1609
aS'kernel = 0 degree'
p68
ag4
(g8
S'b\xdfdV\xd9Z\xed?'
p69
tp70
Rp71
ag4
(g8
S'-]9V\xcc\t\xed?'
p72
tp73
Rp74
aF0.6271250247955322
aI1609
aS'kernel = 0 degree'
p75
aa(lp76
g4
(g8
S'\xc9\x90\xe2\xf0f\xb1\xed?'
p77
tp78
Rp79
ag4
(g8
S'\xe5\x11{\xdb3Z\xed?'
p80
tp81
Rp82
aF1.8521320819854736
aI1609
aS'kernel = 0 degree'
p83
ag4
(g8
S'\xfce\x87E\xf3\xcf\xed?'
p84
tp85
Rp86
ag4
(g8
S'\xe3\xd7(8-~\xed?'
p87
tp88
Rp89
aF1.5375919342041016
aI1609
aS'kernel = 0 degree'
p90
ag4
(g8
S'b\xed\xcc8\xc3\x8d\xed?'
p91
tp92
Rp93
ag4
(g8
S'\x8a\xdel\xbbz(\xed?'
p94
tp95
Rp96
aF1.049807071685791
aI1609
aS'kernel = 0 degree'
p97
aa(lp98
g4
(g8
S'/\x11\xf4\xf2\xc1U\xed?'
p99
tp100
Rp101
ag4
(g8
S'p\xb6\x0e\xfdf\xeb\xec?'
p102
tp103
Rp104
aF1.463432788848877
aI1609
aS'kernel = 0 degree'
p105
ag4
(g8
S'\xfcB\x83\x8f\xaaP\xed?'
p106
tp107
Rp108
ag4
(g8
S'\x8b\xc8Kv\x80\xe1\xec?'
p109
tp110
Rp111
aF1.2941100597381592
aI1609
aS'kernel = 0 degree'
p112
ag4
(g8
S'b\xdfdV\xd9Z\xed?'
p113
tp114
Rp115
ag4
(g8
S'\x0fQ\xcc\xd5\xc2\xe8\xec?'
p116
tp117
Rp118
aF1.1279969215393066
aI1609
aS'kernel = 0 degree'
p119
aa(lp120
g4
(g8
S'\x96\xc2q\x8dO\xac\xed?'
p121
tp122
Rp123
ag4
(g8
S'z\x90\x08n\xefF\xed?'
p124
tp125
Rp126
aF1.7702500820159912
aI1609
aS'kernel = 0 degree'
p127
ag4
(g8
S'\xc9\x90\xe2\xf0f\xb1\xed?'
p128
tp129
Rp130
ag4
(g8
S'\x96\xd4VR[I\xed?'
p131
tp132
Rp133
aF0.9530961513519287
aI1609
aS'kernel = 0 degree'
p134
ag4
(g8
S'/\x18(\xe46o\xed?'
p135
tp136
Rp137
ag4
(g8
S'#\x9eQ\xf0\x18\xf4\xec?'
p138
tp139
Rp140
aF1.2056248188018799
aI1609
aS'kernel = 0 degree'
p141
aa(lp142
g4
(g8
S'\xca\xa5~\xc4\xc5\xfd\xed?'
p143
tp144
Rp145
ag4
(g8
S'2\xae\x17\x140\xbc\xed?'
p146
tp147
Rp148
aF1.3456928730010986
aI1609
aS'kernel = 0 degree'
p149
ag4
(g8
S'0I\x94|i!\xee?'
p150
tp151
Rp152
ag4
(g8
S'o\xed\x03\xc9\x01\xe7\xed?'
p153
tp154
Rp155
aF1.0306708812713623
aI1609
aS'kernel = 0 degree'
p156
ag4
(g8
S'c\t\x9d\xfd\x96\xf3\xed?'
p157
tp158
Rp159
ag4
(g8
S'\xff\xe597\xd2\xb4\xed?'
p160
tp161
Rp162
aF1.0498461723327637
aI1609
aS'kernel = 0 degree'
p163
aa(lp164
g4
(g8
S'c\xfb4\x1b\xad\xc0\xed?'
p165
tp166
Rp167
ag4
(g8
S'\xe2\x8c:g\x8ft\xed?'
p168
tp169
Rp170
aF1.3923380374908447
aI1609
aS'kernel = 0 degree'
p171
ag4
(g8
S'\x96\xc9\xa5~\xc4\xc5\xed?'
p172
tp173
Rp174
ag4
(g8
S'(\xd7\xc7\xd2\x81r\xed?'
p175
tp176
Rp177
aF1.2047958374023438
aI1609
aS'kernel = 0 degree'
p178
ag4
(g8
S'\x96\xbb=\x9c\xda\x92\xed?'
p179
tp180
Rp181
ag4
(g8
S'\x93\xd3\x05\x10,9\xed?'
p182
tp183
Rp184
aF0.9535000324249268
aI1609
aS'kernel = 0 degree'
p185
aa(lp186
g4
(g8
S'b\xed\xcc8\xc3\x8d\xed?'
p187
tp188
Rp189
ag4
(g8
S'\xf5\x15\xee\xec\xd2\t\xed?'
p190
tp191
Rp192
aF1.1074578762054443
aI1609
aS'kernel = 0 degree'
p193
ag4
(g8
S'\x96\xbb=\x9c\xda\x92\xed?'
p194
tp195
Rp196
ag4
(g8
S'\x86\x0e\x03D)\x16\xed?'
p197
tp198
Rp199
aF1.2640810012817383
aI1609
aS'kernel = 0 degree'
p200
ag4
(g8
S'\xfcI\xb7\x80\x1fj\xed?'
p201
tp202
Rp203
ag4
(g8
S'`\x8d\x89\xf4@\xe5\xec?'
p204
tp205
Rp206
aF1.161931037902832
aI1609
aS'kernel = 0 degree'
p207
aa(lp208
g4
(g8
S'\x96\xd7\ra\xae\xf8\xed?'
p209
tp210
Rp211
ag4
(g8
S'.\xba\xe8\xa2\x8b\xae\xed?'
p212
tp213
Rp214
aF1.341991901397705
aI1609
aS'kernel = 0 degree'
p215
ag4
(g8
S'\xfce\x87E\xf3\xcf\xed?'
p216
tp217
Rp218
ag4
(g8
S'\x1a\x7f n\x83\x84\xed?'
p219
tp220
Rp221
aF1.091658115386963
aI1609
aS'kernel = 0 degree'
p222
ag4
(g8
S'c\xf4\x00*8\xa7\xed?'
p223
tp224
Rp225
ag4
(g8
S'\xd5\xb2\xa7N\x86C\xed?'
p226
tp227
Rp228
aF1.1308019161224365
aI1609
aS'kernel = 0 degree'
p229
aas.