(dp0
S'letter'
p1
(lp2
(lp3
cnumpy.core.multiarray
scalar
p4
(cnumpy
dtype
p5
(S'f8'
p6
I0
I1
tp7
Rp8
(I3
S'<'
p9
NNNI-1
I-1
I0
tp10
bS'\xb4\xc8v\xbe\x9f\x1a\xef?'
p11
tp12
Rp13
ag4
(g8
S'\xc6\x1f\xf2\xac\xc4\x1e\xef?'
p14
tp15
Rp16
aF7.489794969558716
aI5000
aS'kernel = 2 degree'
p17
ag4
(g8
S'HP\xfc\x18s\xd7\xee?'
p18
tp19
Rp20
ag4
(g8
S'\xe8!\x1e\xc9\xa2\xdc\xee?'
p21
tp22
Rp23
aF5.689069986343384
aI5000
aS'kernel = 2 degree'
p24
ag4
(g8
S'\x1aQ\xda\x1b|a\xee?'
p25
tp26
Rp27
ag4
(g8
S'\x9b\xb0%5\xb1i\xee?'
p28
tp29
Rp30
aF5.345314025878906
aI5000
aS'kernel = 2 degree'
p31
aa(lp32
g4
(g8
S'\x9a\x08\x1b\x9e^)\xef?'
p33
tp34
Rp35
ag4
(g8
S'@\xf8\xa2x\xe5(\xef?'
p36
tp37
Rp38
aF6.806950092315674
aI5000
aS'kernel = 2 degree'
p39
ag4
(g8
S'\xd0\xb3Y\xf5\xb9\xda\xee?'
p40
tp41
Rp42
ag4
(g8
S'\xf6\xec\xd2\x84\x9a\xdb\xee?'
p43
tp44
Rp45
aF5.664000988006592
aI5000
aS'kernel = 2 degree'
p46
ag4
(g8
S'ffffff\xee?'
p47
tp48
Rp49
ag4
(g8
S'\xd9|N\xfaSi\xee?'
p50
tp51
Rp52
aF3.742371082305908
aI5000
aS'kernel = 2 degree'
p53
aa(lp54
g4
(g8
S'xz\xa5,C\x1c\xef?'
p55
tp56
Rp57
ag4
(g8
S'-\xd3\xc1\x8d\xf1\x1c\xef?'
p58
tp59
Rp60
aF7.059168100357056
aI5000
aS'kernel = 2 degree'
p61
ag4
(g8
S'z\xa5,C\x1c\xeb\xee?'
p62
tp63
Rp64
ag4
(g8
S'}\xca\xa5\xd5`\xec\xee?'
p65
tp66
Rp67
aF7.312845945358276
aI5000
aS'kernel = 2 degree'
p68
ag4
(g8
S'4\x116<\xbdR\xee?'
p69
tp70
Rp71
ag4
(g8
S'D\x87\xd9\x13\x15S\xee?'
p72
tp73
Rp74
aF4.518485069274902
aI5000
aS'kernel = 2 degree'
p75
aa(lp76
g4
(g8
S'\xab\xcf\xd5V\xec/\xef?'
p77
tp78
Rp79
ag4
(g8
S'\x07\xf9N\x9041\xef?'
p80
tp81
Rp82
aF5.37458610534668
aI5000
aS'kernel = 2 degree'
p83
ag4
(g8
S'F%u\x02\x9a\x08\xef?'
p84
tp85
Rp86
ag4
(g8
S'Dm\xbd\xa8\x00\x0b\xef?'
p87
tp88
Rp89
aF5.308827877044678
aI5000
aS'kernel = 2 degree'
p90
ag4
(g8
S'\xdc\xd7\x81sF\x94\xee?'
p91
tp92
Rp93
ag4
(g8
S'\x1e,\xf0pJ\x95\xee?'
p94
tp95
Rp96
aF3.6242499351501465
aI5000
aS'kernel = 2 degree'
p97
aa(lp98
g4
(g8
S'o\x81\x04\xc5\x8f1\xef?'
p99
tp100
Rp101
ag4
(g8
S'0Y\xfe\x92\xe5/\xef?'
p102
tp103
Rp104
aF5.837971925735474
aI5000
aS'kernel = 2 degree'
p105
ag4
(g8
S'\x14\xd0D\xd8\xf0\xf4\xee?'
p106
tp107
Rp108
ag4
(g8
S'\x08mb\xa8}\xf3\xee?'
p109
tp110
Rp111
aF4.774619102478027
aI5000
aS'kernel = 2 degree'
p112
ag4
(g8
S'L\xa6\nF%u\xee?'
p113
tp114
Rp115
ag4
(g8
S'N\xdb\xf7\xb1\x85r\xee?'
p116
tp117
Rp118
aF3.2901339530944824
aI5000
aS'kernel = 2 degree'
p119
aa(lp120
g4
(g8
S'5^\xbaI\x0c\x02\xef?'
p121
tp122
Rp123
ag4
(g8
S'(\xd5Y-g\x02\xef?'
p124
tp125
Rp126
aF6.1474769115448
aI5000
aS'kernel = 2 degree'
p127
ag4
(g8
S'\xd0\xb3Y\xf5\xb9\xda\xee?'
p128
tp129
Rp130
ag4
(g8
S'\xec\x9ap\xe2\x8c\xda\xee?'
p131
tp132
Rp133
aF4.508397817611694
aI5000
aS'kernel = 2 degree'
p134
ag4
(g8
S'\xac\xad\xd8_vO\xee?'
p135
tp136
Rp137
ag4
(g8
S'\x15\xff@dSP\xee?'
p138
tp139
Rp140
aF3.0858590602874756
aI5000
aS'kernel = 2 degree'
p141
aa(lp142
g4
(g8
S'\x89A`\xe5\xd0"\xef?'
p143
tp144
Rp145
ag4
(g8
S'\xb9\x08\xcf?\xa7#\xef?'
p146
tp147
Rp148
aF4.488753080368042
aI5000
aS'kernel = 2 degree'
p149
ag4
(g8
S'\x95e\x88c]\xdc\xee?'
p150
tp151
Rp152
ag4
(g8
S'\xdd\x03r\xa3U\xde\xee?'
p153
tp154
Rp155
aF3.4776761531829834
aI5000
aS'kernel = 2 degree'
p156
ag4
(g8
S'p_\x07\xce\x19Q\xee?'
p157
tp158
Rp159
ag4
(g8
S'/B:\x01\x88Q\xee?'
p160
tp161
Rp162
aF3.1654789447784424
aI5000
aS'kernel = 2 degree'
p163
aa(lp164
g4
(g8
S'h\xb3\xeas\xb5\x15\xef?'
p165
tp166
Rp167
ag4
(g8
S'\xafA\xc9\xf9\x00\x15\xef?'
p168
tp169
Rp170
aF4.366643190383911
aI5000
aS'kernel = 2 degree'
p171
ag4
(g8
S'.\x90\xa0\xf81\xe6\xee?'
p172
tp173
Rp174
ag4
(g8
S'\\\xbe\xe5[\xbe\xe5\xee?'
p175
tp176
Rp177
aF3.9523730278015137
aI5000
aS'kernel = 2 degree'
p178
ag4
(g8
S'w-!\x1f\xf4l\xee?'
p179
tp180
Rp181
ag4
(g8
S'RT\x12\xb62o\xee?'
p182
tp183
Rp184
aF2.4172141551971436
aI5000
aS'kernel = 2 degree'
p185
aa(lp186
g4
(g8
S'^\xbaI\x0c\x02+\xef?'
p187
tp188
Rp189
ag4
(g8
S'\x825\\K\x9a+\xef?'
p190
tp191
Rp192
aF4.497129917144775
aI5000
aS'kernel = 2 degree'
p193
ag4
(g8
S'\xda\xac\xfa\\m\xc5\xee?'
p194
tp195
Rp196
ag4
(g8
S'}Sx\xbc\xad\xc5\xee?'
p197
tp198
Rp199
aF3.9190468788146973
aI5000
aS'kernel = 2 degree'
p200
ag4
(g8
S']m\xc5\xfe\xb2{\xee?'
p201
tp202
Rp203
ag4
(g8
S'\x17\x05<\xc4>~\xee?'
p204
tp205
Rp206
aF2.625216007232666
aI5000
aS'kernel = 2 degree'
p207
aa(lp208
g4
(g8
S'o\x81\x04\xc5\x8f1\xef?'
p209
tp210
Rp211
ag4
(g8
S'b\xfd\xb9765\xef?'
p212
tp213
Rp214
aF4.458544969558716
aI5000
aS'kernel = 2 degree'
p215
ag4
(g8
S'\xf2A\xcff\xd5\xe7\xee?'
p216
tp217
Rp218
ag4
(g8
S'.)\x8fk\xd7\xec\xee?'
p219
tp220
Rp221
aF4.147097110748291
aI5000
aS'kernel = 2 degree'
p222
ag4
(g8
S'\x99\xbb\x96\x90\x0fz\xee?'
p223
tp224
Rp225
ag4
(g8
S'F\xe1)\x83\x8e\x81\xee?'
p226
tp227
Rp228
aF2.742790937423706
aI5000
aS'kernel = 2 degree'
p229
aas.