(dp0
S'letter'
p1
(lp2
(lp3
cnumpy.core.multiarray
scalar
p4
(cnumpy
dtype
p5
(S'f8'
p6
I0
I1
tp7
Rp8
(I3
S'<'
p9
NNNI-1
I-1
I0
tp10
bS'xz\xa5,C\x1c\xef?'
p11
tp12
Rp13
ag4
(g8
S'\x9dz\x94\x98"\x16\xef?'
p14
tp15
Rp16
aF9.394860029220581
aI5000
aS'kernel = 2 degree'
p17
ag4
(g8
S'7\x89A`\xe5\xd0\xee?'
p18
tp19
Rp20
ag4
(g8
S';5\x85\x1d$\xca\xee?'
p21
tp22
Rp23
aF6.887465953826904
aI5000
aS'kernel = 2 degree'
p24
ag4
(g8
S';\xdfO\x8d\x97n\xee?'
p25
tp26
Rp27
ag4
(g8
S'"\x14\x80W\xf9d\xee?'
p28
tp29
Rp30
aF4.173816919326782
aI5000
aS'kernel = 2 degree'
p31
aa(lp32
g4
(g8
S'\xf7\xe4a\xa1\xd64\xef?'
p33
tp34
Rp35
ag4
(g8
S'_\xb4\xd2\xefg7\xef?'
p36
tp37
Rp38
aF7.500514984130859
aI5000
aS'kernel = 2 degree'
p39
ag4
(g8
S'\x8bl\xe7\xfb\xa9\xf1\xee?'
p40
tp41
Rp42
ag4
(g8
S'\x1f\xec\xf4\x1e\xec\xf4\xee?'
p43
tp44
Rp45
aF4.678072929382324
aI5000
aS'kernel = 2 degree'
p46
ag4
(g8
S'\x8f\xc2\xf5(\\\x8f\xee?'
p47
tp48
Rp49
ag4
(g8
S'\x86\xc1\x97\x9c<\x95\xee?'
p50
tp51
Rp52
aF2.792003870010376
aI5000
aS'kernel = 2 degree'
p53
aa(lp54
g4
(g8
S'\xf7\xe4a\xa1\xd64\xef?'
p55
tp56
Rp57
ag4
(g8
S'F\x02}r]3\xef?'
p58
tp59
Rp60
aF8.115829944610596
aI5000
aS'kernel = 2 degree'
p61
ag4
(g8
S'\xdfO\x8d\x97n\x12\xef?'
p62
tp63
Rp64
ag4
(g8
S'\x85\xf0\xab|\x90\x10\xef?'
p65
tp66
Rp67
aF5.000492811203003
aI5000
aS'kernel = 2 degree'
p68
ag4
(g8
S'+\x18\x95\xd4\th\xee?'
p69
tp70
Rp71
ag4
(g8
S'/\x15\x0cWQf\xee?'
p72
tp73
Rp74
aF3.6010239124298096
aI5000
aS'kernel = 2 degree'
p75
aa(lp76
g4
(g8
S'\x89A`\xe5\xd0"\xef?'
p77
tp78
Rp79
ag4
(g8
S'.\x1a\\\xb3X!\xef?'
p80
tp81
Rp82
aF5.982842922210693
aI5000
aS'kernel = 2 degree'
p83
ag4
(g8
S'\xf2A\xcff\xd5\xe7\xee?'
p84
tp85
Rp86
ag4
(g8
S'!\xffj\xe5\xa6\xe6\xee?'
p87
tp88
Rp89
aF5.084444046020508
aI5000
aS'kernel = 2 degree'
p90
ag4
(g8
S'\xd5\th"lx\xee?'
p91
tp92
Rp93
ag4
(g8
S'#\xf8\xb1\x17py\xee?'
p94
tp95
Rp96
aF3.2742600440979004
aI5000
aS'kernel = 2 degree'
p97
aa(lp98
g4
(g8
S'=,\xd4\x9a\xe6\x1d\xef?'
p99
tp100
Rp101
ag4
(g8
S'\x1a)\x08\x8b\x8c!\xef?'
p102
tp103
Rp104
aF5.752434015274048
aI5000
aS'kernel = 2 degree'
p105
ag4
(g8
S'\xd8\x81sF\x94\xf6\xee?'
p106
tp107
Rp108
ag4
(g8
S'\xfbn\xaf\xef\xf6\xfa\xee?'
p109
tp110
Rp111
aF4.825500965118408
aI5000
aS'kernel = 2 degree'
p112
ag4
(g8
S'\x10X9\xb4\xc8v\xee?'
p113
tp114
Rp115
ag4
(g8
S'\xb7*\x86v\xf2~\xee?'
p116
tp117
Rp118
aF3.8205089569091797
aI5000
aS'kernel = 2 degree'
p119
aa(lp120
g4
(g8
S'o\x81\x04\xc5\x8f1\xef?'
p121
tp122
Rp123
ag4
(g8
S'r\xed\xc0\\;0\xef?'
p124
tp125
Rp126
aF5.788649797439575
aI5000
aS'kernel = 2 degree'
p127
ag4
(g8
S'\xe9H.\xff!\xfd\xee?'
p128
tp129
Rp130
ag4
(g8
S'\xb5]{\xcb\xac\xfb\xee?'
p131
tp132
Rp133
aF3.6113951206207275
aI5000
aS'kernel = 2 degree'
p134
ag4
(g8
S'\xaa\x82QI\x9d\x80\xee?'
p135
tp136
Rp137
ag4
(g8
S' \x95\x9c\x97E|\xee?'
p138
tp139
Rp140
aF3.0561959743499756
aI5000
aS'kernel = 2 degree'
p141
aa(lp142
g4
(g8
S'\xb4\xc8v\xbe\x9f\x1a\xef?'
p143
tp144
Rp145
ag4
(g8
S'\xe6\x97{x\xbe\x17\xef?'
p146
tp147
Rp148
aF4.539448022842407
aI5000
aS'kernel = 2 degree'
p149
ag4
(g8
S'z\xa5,C\x1c\xeb\xee?'
p150
tp151
Rp152
ag4
(g8
S'\xba\x87\xee\xa1{\xe8\xee?'
p153
tp154
Rp155
aF3.5875699520111084
aI5000
aS'kernel = 2 degree'
p156
ag4
(g8
S'#J{\x83/L\xee?'
p157
tp158
Rp159
ag4
(g8
S'\x94\xbe|\x8d#H\xee?'
p160
tp161
Rp162
aF2.749206066131592
aI5000
aS'kernel = 2 degree'
p163
aa(lp164
g4
(g8
S'\x01\xde\x02\t\x8a\x1f\xef?'
p165
tp166
Rp167
ag4
(g8
S'\xa1\x93\x86\xa5\xdd\x1d\xef?'
p168
tp169
Rp170
aF4.252906084060669
aI5000
aS'kernel = 2 degree'
p171
ag4
(g8
S'$\x97\xff\x90~\xfb\xee?'
p172
tp173
Rp174
ag4
(g8
S'K\x01\xadb\x8d\xf9\xee?'
p175
tp176
Rp177
aF3.395814895629883
aI5000
aS'kernel = 2 degree'
p178
ag4
(g8
S'w-!\x1f\xf4l\xee?'
p179
tp180
Rp181
ag4
(g8
S'>k\xd4\x9c\x8dh\xee?'
p182
tp183
Rp184
aF3.134910821914673
aI5000
aS'kernel = 2 degree'
p185
aa(lp186
g4
(g8
S'\xa3\x01\xbc\x05\x12\x14\xef?'
p187
tp188
Rp189
ag4
(g8
S"''\xd9\xcd7\x13\xef?"
p190
tp191
Rp192
aF4.533046007156372
aI5000
aS'kernel = 2 degree'
p193
ag4
(g8
S'\xb6\xf3\xfd\xd4x\xe9\xee?'
p194
tp195
Rp196
ag4
(g8
S'\xff\x8dW*#\xe9\xee?'
p197
tp198
Rp199
aF4.150489091873169
aI5000
aS'kernel = 2 degree'
p200
ag4
(g8
S'4\x116<\xbdR\xee?'
p201
tp202
Rp203
ag4
(g8
S'L\xc4\x90\xc7lS\xee?'
p204
tp205
Rp206
aF2.7778491973876953
aI5000
aS'kernel = 2 degree'
p207
aa(lp208
g4
(g8
S'333333\xef?'
p209
tp210
Rp211
ag4
(g8
S'h\xe6\xe95k2\xef?'
p212
tp213
Rp214
aF5.4759907722473145
aI5000
aS'kernel = 2 degree'
p215
ag4
(g8
S',e\x19\xe2X\x17\xef?'
p216
tp217
Rp218
ag4
(g8
S'M\x8b\xa3\xae\x99\x16\xef?'
p219
tp220
Rp221
aF4.071272134780884
aI5000
aS'kernel = 2 degree'
p222
ag4
(g8
S'\x10X9\xb4\xc8v\xee?'
p223
tp224
Rp225
ag4
(g8
S'\x91V&O@t\xee?'
p226
tp227
Rp228
aF2.666123151779175
aI5000
aS'kernel = 2 degree'
p229
aas.