(dp0
S'sat'
p1
(lp2
(lp3
cnumpy.core.multiarray
scalar
p4
(cnumpy
dtype
p5
(S'f8'
p6
I0
I1
tp7
Rp8
(I3
S'<'
p9
NNNI-1
I-1
I0
tp10
bS'\xc8t\x12,\x93K\xed?'
p11
tp12
Rp13
ag4
(g8
S'\xe9\xa2\x8b.\xba\xe8\xec?'
p14
tp15
Rp16
aF2.519183874130249
aI1609
aS'kernel = 0 degree'
p17
ag4
(g8
S'\xfc;O\x9e57\xed?'
p18
tp19
Rp20
ag4
(g8
S'\xbdA<\xf7\xf7\xcd\xec?'
p21
tp22
Rp23
aF2.7722811698913574
aI1609
aS'kernel = 0 degree'
p24
ag4
(g8
S'.\xfcW\x1fc\t\xed?'
p25
tp26
Rp27
ag4
(g8
S"\xadeB'a\xa1\xec?"
p28
tp29
Rp30
aF1.9338881969451904
aI1609
aS'kernel = 0 degree'
p31
aa(lp32
g4
(g8
S'c\xf4\x00*8\xa7\xed?'
p33
tp34
Rp35
ag4
(g8
S'L+\x97i\xe52\xed?'
p36
tp37
Rp38
aF1.6560850143432617
aI1609
aS'kernel = 0 degree'
p39
ag4
(g8
S'/\x1f\\\xd5\xab\x88\xed?'
p40
tp41
Rp42
ag4
(g8
S',\x04\x87\xb4\x8c\x0f\xed?'
p43
tp44
Rp45
aF1.7450900077819824
aI1609
aS'kernel = 0 degree'
p46
ag4
(g8
S'\x96\xb4\t\xabey\xed?'
p47
tp48
Rp49
ag4
(g8
S'\xa9\x14\xe6\r\xb2\x04\xed?'
p50
tp51
Rp52
aF0.9537489414215088
aI1609
aS'kernel = 0 degree'
p53
aa(lp54
g4
(g8
S'\x96\xc2q\x8dO\xac\xed?'
p55
tp56
Rp57
ag4
(g8
S'z\x90\x08n\xefF\xed?'
p58
tp59
Rp60
aF0.9567859172821045
aI1609
aS'kernel = 0 degree'
p61
ag4
(g8
S'\x96\xbb=\x9c\xda\x92\xed?'
p62
tp63
Rp64
ag4
(g8
S'\xd3\x84\x15\x9b\xc7+\xed?'
p65
tp66
Rp67
aF0.8040790557861328
aI1609
aS'kernel = 0 degree'
p68
ag4
(g8
S'/&\x90\xc6 \xa2\xed?'
p69
tp70
Rp71
ag4
(g8
S'\xa1\x83\xe3\x06\x05;\xed?'
p72
tp73
Rp74
aF1.3404409885406494
aI1609
aS'kernel = 0 degree'
p75
aa(lp76
g4
(g8
S'\xc9\x82z\x0e}~\xed?'
p77
tp78
Rp79
ag4
(g8
S'\xa2t\xd5\x81\x9b\x1c\xed?'
p80
tp81
Rp82
aF1.777784824371338
aI1609
aS'kernel = 0 degree'
p83
ag4
(g8
S'\xfcP\xebq\x94\x83\xed?'
p84
tp85
Rp86
ag4
(g8
S"\xcc\x87t'\xf3!\xed?"
p87
tp88
Rp89
aF1.4352080821990967
aI1609
aS'kernel = 0 degree'
p90
ag4
(g8
S'\x95\xad\xd5\xb9\xf0_\xed?'
p91
tp92
Rp93
ag4
(g8
S'>hC\xff\r\xf6\xec?'
p94
tp95
Rp96
aF1.4235560894012451
aI1609
aS'kernel = 0 degree'
p97
aa(lp98
g4
(g8
S'\xca\xac\xb2\xb5:\x17\xee?'
p99
tp100
Rp101
ag4
(g8
S'\xf1\xf7t\xb6\x15\xe6\xed?'
p102
tp103
Rp104
aF1.662971019744873
aI1609
aS'kernel = 0 degree'
p105
ag4
(g8
S'0B`\x8b\xf4\x07\xee?'
p106
tp107
Rp108
ag4
(g8
S'\x9b\x16\xe30\xe5\xd4\xed?'
p109
tp110
Rp111
aF1.3968360424041748
aI1609
aS'kernel = 0 degree'
p112
ag4
(g8
S'\xfdl\xbb6h\xe9\xed?'
p113
tp114
Rp115
ag4
(g8
S'\xdd,O"\xd3\xb0\xed?'
p116
tp117
Rp118
aF1.2155470848083496
aI1609
aS'kernel = 0 degree'
p119
aa(lp120
g4
(g8
S'\xc9{F\x1d\x08e\xed?'
p121
tp122
Rp123
ag4
(g8
S'{\xdbH\xef[\x06\xed?'
p124
tp125
Rp126
aF1.468095064163208
aI1609
aS'kernel = 0 degree'
p127
ag4
(g8
S'\xc8t\x12,\x93K\xed?'
p128
tp129
Rp130
ag4
(g8
S'S\x16.\x80\x84\xf0\xec?'
p131
tp132
Rp133
aF0.987217903137207
aI1609
aS'kernel = 0 degree'
p134
ag4
(g8
S'/\n\xc0\x01M<\xed?'
p135
tp136
Rp137
ag4
(g8
S'Pd\xfc\xbb\x8a\xdd\xec?'
p138
tp139
Rp140
aF1.2320120334625244
aI1609
aS'kernel = 0 degree'
p141
aa(lp142
g4
(g8
S'\xc9\x89\xae\xff\xf1\x97\xed?'
p143
tp144
Rp145
ag4
(g8
S'\x9d\xd2)\x9d\xd2)\xed?'
p146
tp147
Rp148
aF1.3691339492797852
aI1609
aS'kernel = 0 degree'
p149
ag4
(g8
S'\x96\xc9\xa5~\xc4\xc5\xed?'
p150
tp151
Rp152
ag4
(g8
S'\xd7O\x81\xf5S`\xed?'
p153
tp154
Rp155
aF1.2809710502624512
aI1609
aS'kernel = 0 degree'
p156
ag4
(g8
S'b\xe6\x98GNt\xed?'
p157
tp158
Rp159
ag4
(g8
S'\xdc5\xe6\xebF\xf7\xec?'
p160
tp161
Rp162
aF1.0667259693145752
aI1609
aS'kernel = 0 degree'
p163
aa(lp164
g4
(g8
S"\xfds\xef'\xdd\x02\xee?"
p165
tp166
Rp167
ag4
(g8
S'\xab\x9cO\x1e\xb1\xb7\xed?'
p168
tp169
Rp170
aF1.1919260025024414
aI1609
aS'kernel = 0 degree'
p171
ag4
(g8
S'c\x02i\x0c"\xda\xed?'
p172
tp173
Rp174
ag4
(g8
S'\x1ar\xee\xb3\x0b\x88\xed?'
p175
tp176
Rp177
aF1.2909748554229736
aI1609
aS'kernel = 0 degree'
p178
ag4
(g8
S'\x96\xc2q\x8dO\xac\xed?'
p179
tp180
Rp181
ag4
(g8
S'Q\t\xf5\x1b\xdfS\xed?'
p182
tp183
Rp184
aF1.1439831256866455
aI1609
aS'kernel = 0 degree'
p185
aa(lp186
g4
(g8
S'0-\xc4\xb7\x95\xbb\xed?'
p187
tp188
Rp189
ag4
(g8
S'\xdc\x1f\xeb\x9a\xfbc\xed?'
p190
tp191
Rp192
aF1.3693149089813232
aI1609
aS'kernel = 0 degree'
p193
ag4
(g8
S'/&\x90\xc6 \xa2\xed?'
p194
tp195
Rp196
ag4
(g8
S'\n\xb9\xe4c*B\xed?'
p197
tp198
Rp199
aF1.2904901504516602
aI1609
aS'kernel = 0 degree'
p200
ag4
(g8
S'c\xf4\x00*8\xa7\xed?'
p201
tp202
Rp203
ag4
(g8
S'\x02\x99\x14/\x90I\xed?'
p204
tp205
Rp206
aF1.0410778522491455
aI1609
aS'kernel = 0 degree'
p207
aa(lp208
g4
(g8
S'b\xe6\x98GNt\xed?'
p209
tp210
Rp211
ag4
(g8
S'\x7fpL\xf2\x90\x1d\xed?'
p212
tp213
Rp214
aF1.3642699718475342
aI1609
aS'kernel = 0 degree'
p215
ag4
(g8
S'\xfcP\xebq\x94\x83\xed?'
p216
tp217
Rp218
ag4
(g8
S'\xcd\x96\xc2Q>)\xed?'
p219
tp220
Rp221
aF1.2934019565582275
aI1609
aS'kernel = 0 degree'
p222
ag4
(g8
S'\x95\xa6\xa1\xc8{F\xed?'
p223
tp224
Rp225
ag4
(g8
S'u\xd3\xc1\xc0\xfe\xf2\xec?'
p226
tp227
Rp228
aF0.8386318683624268
aI1609
aS'kernel = 0 degree'
p229
aas.