(dp0
S'letter'
p1
(lp2
(lp3
cnumpy.core.multiarray
scalar
p4
(cnumpy
dtype
p5
(S'f8'
p6
I0
I1
tp7
Rp8
(I3
S'<'
p9
NNNI-1
I-1
I0
tp10
bS'\xdfO\x8d\x97n\x12\xef?'
p11
tp12
Rp13
ag4
(g8
S'2a\x80\x18\x1c\x15\xef?'
p14
tp15
Rp16
aF10.707441091537476
aI5000
aS'kernel = 2 degree'
p17
ag4
(g8
S'HP\xfc\x18s\xd7\xee?'
p18
tp19
Rp20
ag4
(g8
S'U\x93s\xed\x0f\xdc\xee?'
p21
tp22
Rp23
aF6.354883909225464
aI5000
aS'kernel = 2 degree'
p24
ag4
(g8
S'_\x98L\x15\x8cJ\xee?'
p25
tp26
Rp27
ag4
(g8
S'9\x80p\xf8YQ\xee?'
p28
tp29
Rp30
aF4.7325119972229
aI5000
aS'kernel = 2 degree'
p31
aa(lp32
g4
(g8
S'xz\xa5,C\x1c\xef?'
p33
tp34
Rp35
ag4
(g8
S';\xe8\xeaM\x9d\x16\xef?'
p36
tp37
Rp38
aF6.517469882965088
aI5000
aS'kernel = 2 degree'
p39
ag4
(g8
S'\xf2A\xcff\xd5\xe7\xee?'
p40
tp41
Rp42
ag4
(g8
S'3JQ\\\xa6\xe0\xee?'
p43
tp44
Rp45
aF6.163746118545532
aI5000
aS'kernel = 2 degree'
p46
ag4
(g8
S'\x88\xf4\xdb\xd7\x81s\xee?'
p47
tp48
Rp49
ag4
(g8
S'\xae]\xdd1\x13l\xee?'
p50
tp51
Rp52
aF4.212753057479858
aI5000
aS'kernel = 2 degree'
p53
aa(lp54
g4
(g8
S'D\xfa\xed\xeb\xc09\xef?'
p55
tp56
Rp57
ag4
(g8
S'BI\xe2s\xa29\xef?'
p58
tp59
Rp60
aF7.220103025436401
aI5000
aS'kernel = 2 degree'
p61
ag4
(g8
S'O\x1e\x16jM\xf3\xee?'
p62
tp63
Rp64
ag4
(g8
S'r\xa3`\x1b\xf2\xf3\xee?'
p65
tp66
Rp67
aF4.836220026016235
aI5000
aS'kernel = 2 degree'
p68
ag4
(g8
S']m\xc5\xfe\xb2{\xee?'
p69
tp70
Rp71
ag4
(g8
S'\xcb$o\xd2\xd7z\xee?'
p72
tp73
Rp74
aF5.438131093978882
aI5000
aS'kernel = 2 degree'
p75
aa(lp76
g4
(g8
S'\x9a\x08\x1b\x9e^)\xef?'
p77
tp78
Rp79
ag4
(g8
S'\x10LK\xfao*\xef?'
p80
tp81
Rp82
aF6.331228017807007
aI5000
aS'kernel = 2 degree'
p83
ag4
(g8
S'?W[\xb1\xbf\xec\xee?'
p84
tp85
Rp86
ag4
(g8
S'.\xa7\xa5.\xd3\xee\xee?'
p87
tp88
Rp89
aF5.1124958992004395
aI5000
aS'kernel = 2 degree'
p90
ag4
(g8
S';\xdfO\x8d\x97n\xee?'
p91
tp92
Rp93
ag4
(g8
S'\x0e\xf7>0Po\xee?'
p94
tp95
Rp96
aF3.5549769401550293
aI5000
aS'kernel = 2 degree'
p97
aa(lp98
g4
(g8
S'\x89A`\xe5\xd0"\xef?'
p99
tp100
Rp101
ag4
(g8
S'.\x1a\\\xb3X!\xef?'
p102
tp103
Rp104
aF5.707261085510254
aI5000
aS'kernel = 2 degree'
p105
ag4
(g8
S'.\x90\xa0\xf81\xe6\xee?'
p106
tp107
Rp108
ag4
(g8
S'}\xe6\xb7$\xf3\xe4\xee?'
p109
tp110
Rp111
aF4.828239917755127
aI5000
aS'kernel = 2 degree'
p112
ag4
(g8
S'\xbaI\x0c\x02+\x87\xee?'
p113
tp114
Rp115
ag4
(g8
S'0d\xe8\xecB\x86\xee?'
p116
tp117
Rp118
aF3.5280308723449707
aI5000
aS'kernel = 2 degree'
p119
aa(lp120
g4
(g8
S'D\xfa\xed\xeb\xc09\xef?'
p121
tp122
Rp123
ag4
(g8
S'\x06A\x1c\xe0\xe56\xef?'
p124
tp125
Rp126
aF6.016316175460815
aI5000
aS'kernel = 2 degree'
p127
ag4
(g8
S'\n\xd7\xa3p=\n\xef?'
p128
tp129
Rp130
ag4
(g8
S'N\xb7;!\xc0\x06\xef?'
p131
tp132
Rp133
aF3.2375378608703613
aI5000
aS'kernel = 2 degree'
p134
ag4
(g8
S'2\xe6\xae%\xe4\x83\xee?'
p135
tp136
Rp137
ag4
(g8
S'U?\x96\x82\xe5\x7f\xee?'
p138
tp139
Rp140
aF2.45516300201416
aI5000
aS'kernel = 2 degree'
p141
aa(lp142
g4
(g8
S'h\xb3\xeas\xb5\x15\xef?'
p143
tp144
Rp145
ag4
(g8
S' \xf1\r\x94\xf2\x11\xef?'
p146
tp147
Rp148
aF4.998884201049805
aI5000
aS'kernel = 2 degree'
p149
ag4
(g8
S'\xc0\xec\x9e<,\xd4\xee?'
p150
tp151
Rp152
ag4
(g8
S'0\x9es/\xfa\xcf\xee?'
p153
tp154
Rp155
aF3.734470844268799
aI5000
aS'kernel = 2 degree'
p156
ag4
(g8
S'N\xd1\x91\\\xfeC\xee?'
p157
tp158
Rp159
ag4
(g8
S'p\xe0\x96\x1c\x94;\xee?'
p160
tp161
Rp162
aF2.808516025543213
aI5000
aS'kernel = 2 degree'
p163
aa(lp164
g4
(g8
S'"lxz\xa5,\xef?'
p165
tp166
Rp167
ag4
(g8
S'\xb6Y\xe2\xca\xc7.\xef?'
p168
tp169
Rp170
aF4.705602169036865
aI5000
aS'kernel = 2 degree'
p171
ag4
(g8
S'F%u\x02\x9a\x08\xef?'
p172
tp173
Rp174
ag4
(g8
S'\xf6z|\x1aK\x0b\xef?'
p175
tp176
Rp177
aF4.580657005310059
aI5000
aS'kernel = 2 degree'
p178
ag4
(g8
S'\xdc\xd7\x81sF\x94\xee?'
p179
tp180
Rp181
ag4
(g8
S'\x9b\x8e\xa4\xe9H\x9a\xee?'
p182
tp183
Rp184
aF3.2322890758514404
aI5000
aS'kernel = 2 degree'
p185
aa(lp186
g4
(g8
S'\xf9\x0f\xe9\xb7\xaf\x03\xef?'
p187
tp188
Rp189
ag4
(g8
S'\n\xf0^2\x9f\x00\xef?'
p190
tp191
Rp192
aF4.950068950653076
aI5000
aS'kernel = 2 degree'
p193
ag4
(g8
S'HP\xfc\x18s\xd7\xee?'
p194
tp195
Rp196
ag4
(g8
S'3.<\xaa\x07\xd4\xee?'
p197
tp198
Rp199
aF4.37744402885437
aI5000
aS'kernel = 2 degree'
p200
ag4
(g8
S'\xd74\xef8EG\xee?'
p201
tp202
Rp203
ag4
(g8
S'.\x93\xacT\x03@\xee?'
p204
tp205
Rp206
aF2.9841039180755615
aI5000
aS'kernel = 2 degree'
p207
aa(lp208
g4
(g8
S'\x01\xde\x02\t\x8a\x1f\xef?'
p209
tp210
Rp211
ag4
(g8
S'\xa1\x93\x86\xa5\xdd\x1d\xef?'
p212
tp213
Rp214
aF5.359125137329102
aI5000
aS'kernel = 2 degree'
p215
ag4
(g8
S'O\x1e\x16jM\xf3\xee?'
p216
tp217
Rp218
ag4
(g8
S'\xe73L\n\xca\xf1\xee?'
p219
tp220
Rp221
aF4.905473947525024
aI5000
aS'kernel = 2 degree'
p222
ag4
(g8
S'\x91\xed|?5^\xee?'
p223
tp224
Rp225
ag4
(g8
S'.T\xe0\xe1\x17[\xee?'
p226
tp227
Rp228
aF2.15179705619812
aI5000
aS'kernel = 2 degree'
p229
aas.