(dp0
S'letter'
p1
(lp2
(lp3
cnumpy.core.multiarray
scalar
p4
(cnumpy
dtype
p5
(S'f8'
p6
I0
I1
tp7
Rp8
(I3
S'<'
p9
NNNI-1
I-1
I0
tp10
bS'o\x81\x04\xc5\x8f1\xef?'
p11
tp12
Rp13
ag4
(g8
S'b\xfd\xb9765\xef?'
p14
tp15
Rp16
aF8.968953132629395
aI5000
aS'kernel = 2 degree'
p17
ag4
(g8
S'\x8bl\xe7\xfb\xa9\xf1\xee?'
p18
tp19
Rp20
ag4
(g8
S'\xf95\xa6\xbb\xa8\xf5\xee?'
p21
tp22
Rp23
aF5.722429990768433
aI5000
aS'kernel = 2 degree'
p24
ag4
(g8
S'ffffff\xee?'
p25
tp26
Rp27
ag4
(g8
S'\x14\x19R\x9d\x93k\xee?'
p28
tp29
Rp30
aF4.310611963272095
aI5000
aS'kernel = 2 degree'
p31
aa(lp32
g4
(g8
S'\xb4\xc8v\xbe\x9f\x1a\xef?'
p33
tp34
Rp35
ag4
(g8
S'\xc7q\x1c\xc7q\x1c\xef?'
p36
tp37
Rp38
aF7.339558124542236
aI5000
aS'kernel = 2 degree'
p39
ag4
(g8
S'\x9c3\xa2\xb47\xf8\xee?'
p40
tp41
Rp42
ag4
(g8
S'2\x8a&\x1e\r\xfa\xee?'
p43
tp44
Rp45
aF6.194417953491211
aI5000
aS'kernel = 2 degree'
p46
ag4
(g8
S'ffffff\xee?'
p47
tp48
Rp49
ag4
(g8
S'\r\x02\x128\xbaf\xee?'
p50
tp51
Rp52
aF4.61499810218811
aI5000
aS'kernel = 2 degree'
p53
aa(lp54
g4
(g8
S'\x12\xa5\xbd\xc1\x17&\xef?'
p55
tp56
Rp57
ag4
(g8
S'\x8e\xf9z"\xa5$\xef?'
p58
tp59
Rp60
aF5.666965961456299
aI5000
aS'kernel = 2 degree'
p61
ag4
(g8
S'\xd8\x81sF\x94\xf6\xee?'
p62
tp63
Rp64
ag4
(g8
S'\xf1N\xf3\xea\x8b\xf4\xee?'
p65
tp66
Rp67
aF6.374185085296631
aI5000
aS'kernel = 2 degree'
p68
ag4
(g8
S'\x8f\xc2\xf5(\\\x8f\xee?'
p69
tp70
Rp71
ag4
(g8
S'\xf1\xdf\xb2\xe9O\x8c\xee?'
p72
tp73
Rp74
aF4.199729919433594
aI5000
aS'kernel = 2 degree'
p75
aa(lp76
g4
(g8
S'xz\xa5,C\x1c\xef?'
p77
tp78
Rp79
ag4
(g8
S'\xadBE\xfax\x1e\xef?'
p80
tp81
Rp82
aF5.671059846878052
aI5000
aS'kernel = 2 degree'
p83
ag4
(g8
S'\xe9H.\xff!\xfd\xee?'
p84
tp85
Rp86
ag4
(g8
S'[\xbb\xf8\xbc\xce\x00\xef?'
p87
tp88
Rp89
aF4.778491020202637
aI5000
aS'kernel = 2 degree'
p90
ag4
(g8
S'#J{\x83/L\xee?'
p91
tp92
Rp93
ag4
(g8
S'\x0es\x81\xf1\x90V\xee?'
p94
tp95
Rp96
aF3.4408559799194336
aI5000
aS'kernel = 2 degree'
p97
aa(lp98
g4
(g8
S'\x89A`\xe5\xd0"\xef?'
p99
tp100
Rp101
ag4
(g8
S'.\x1a\\\xb3X!\xef?'
p102
tp103
Rp104
aF6.058230876922607
aI5000
aS'kernel = 2 degree'
p105
ag4
(g8
S'.\x90\xa0\xf81\xe6\xee?'
p106
tp107
Rp108
ag4
(g8
S'!\xc0\x05hg\xe5\xee?'
p109
tp110
Rp111
aF4.568449020385742
aI5000
aS'kernel = 2 degree'
p112
ag4
(g8
S'n4\x80\xb7@\x82\xee?'
p113
tp114
Rp115
ag4
(g8
S'\xf3\xef\x96s@\x7f\xee?'
p116
tp117
Rp118
aF3.6331088542938232
aI5000
aS'kernel = 2 degree'
p119
aa(lp120
g4
(g8
S'\xce\x88\xd2\xde\xe0\x0b\xef?'
p121
tp122
Rp123
ag4
(g8
S'/,|\xa9\x0b\x0b\xef?'
p124
tp125
Rp126
aF5.8500940799713135
aI5000
aS'kernel = 2 degree'
p127
ag4
(g8
S'}\xd0\xb3Y\xf5\xb9\xee?'
p128
tp129
Rp130
ag4
(g8
S'\xc0\x88\xa3Q=\xb9\xee?'
p131
tp132
Rp133
aF4.022719144821167
aI5000
aS'kernel = 2 degree'
p134
ag4
(g8
S'N\xd1\x91\\\xfeC\xee?'
p135
tp136
Rp137
ag4
(g8
S'Z&\x13<\x95A\xee?'
p138
tp139
Rp140
aF2.677394151687622
aI5000
aS'kernel = 2 degree'
p141
aa(lp142
g4
(g8
S'=,\xd4\x9a\xe6\x1d\xef?'
p143
tp144
Rp145
ag4
(g8
S'\x1a)\x08\x8b\x8c!\xef?'
p146
tp147
Rp148
aF4.511090993881226
aI5000
aS'kernel = 2 degree'
p149
ag4
(g8
S'`\xe5\xd0"\xdb\xf9\xee?'
p150
tp151
Rp152
ag4
(g8
S'\r7\x1a\xf4\xe1\xfd\xee?'
p153
tp154
Rp155
aF4.2117791175842285
aI5000
aS'kernel = 2 degree'
p156
ag4
(g8
S'\x02\xbc\x05\x12\x14?\xee?'
p157
tp158
Rp159
ag4
(g8
S'*\xa4B*\xa4B\xee?'
p160
tp161
Rp162
aF2.5541021823883057
aI5000
aS'kernel = 2 degree'
p163
aa(lp164
g4
(g8
S'\xd8\x81sF\x94\xf6\xee?'
p165
tp166
Rp167
ag4
(g8
S'\x9e\xca\xa3\x03\xef\xf9\xee?'
p168
tp169
Rp170
aF4.11229681968689
aI5000
aS'kernel = 2 degree'
p171
ag4
(g8
S"'\xc2\x86\xa7W\xca\xee?"
p172
tp173
Rp174
ag4
(g8
S'M\xca\xa9\x0e2\xce\xee?'
p175
tp176
Rp177
aF3.6230361461639404
aI5000
aS'kernel = 2 degree'
p178
ag4
(g8
S'\xc6m4\x80\xb7@\xee?'
p179
tp180
Rp181
ag4
(g8
S'\xf9aE \x80G\xee?'
p182
tp183
Rp184
aF2.97934889793396
aI5000
aS'kernel = 2 degree'
p185
aa(lp186
g4
(g8
S'\x9a\x08\x1b\x9e^)\xef?'
p187
tp188
Rp189
ag4
(g8
S'@\xf8\xa2x\xe5(\xef?'
p190
tp191
Rp192
aF4.494211912155151
aI5000
aS'kernel = 2 degree'
p193
ag4
(g8
S'\xe9H.\xff!\xfd\xee?'
p194
tp195
Rp196
ag4
(g8
S'\xd4S\xf10\x9d\xfc\xee?'
p197
tp198
Rp199
aF3.705141067504883
aI5000
aS'kernel = 2 degree'
p200
ag4
(g8
S'\x10X9\xb4\xc8v\xee?'
p201
tp202
Rp203
ag4
(g8
S'\x8f\x06\xe0\x1bxv\xee?'
p204
tp205
Rp206
aF3.171422004699707
aI5000
aS'kernel = 2 degree'
p207
aa(lp208
g4
(g8
S'\x12\xa5\xbd\xc1\x17&\xef?'
p209
tp210
Rp211
ag4
(g8
S'\x8e\xf9z"\xa5$\xef?'
p212
tp213
Rp214
aF4.8172900676727295
aI5000
aS'kernel = 2 degree'
p215
ag4
(g8
S'\xf9\x0f\xe9\xb7\xaf\x03\xef?'
p216
tp217
Rp218
ag4
(g8
S'\xacFJ\xd3)\x02\xef?'
p219
tp220
Rp221
aF3.3631391525268555
aI5000
aS'kernel = 2 degree'
p222
ag4
(g8
S'n4\x80\xb7@\x82\xee?'
p223
tp224
Rp225
ag4
(g8
S'\xda\x18W\x879}\xee?'
p226
tp227
Rp228
aF2.395585060119629
aI5000
aS'kernel = 2 degree'
p229
aas.