(dp0
S'sat'
p1
(lp2
(lp3
cnumpy.core.multiarray
scalar
p4
(cnumpy
dtype
p5
(S'f8'
p6
I0
I1
tp7
Rp8
(I3
S'<'
p9
NNNI-1
I-1
I0
tp10
bS'\xc9\x90\xe2\xf0f\xb1\xed?'
p11
tp12
Rp13
ag4
(g8
S'\x96\xd4VR[I\xed?'
p14
tp15
Rp16
aF2.531942129135132
aI1609
aS'kernel = 0 degree'
p17
ag4
(g8
S'/\x1f\\\xd5\xab\x88\xed?'
p18
tp19
Rp20
ag4
(g8
S'\xe3`\xc4_\xb1\x1c\xed?'
p21
tp22
Rp23
aF1.694295883178711
aI1609
aS'kernel = 0 degree'
p24
ag4
(g8
S'b\xed\xcc8\xc3\x8d\xed?'
p25
tp26
Rp27
ag4
(g8
S'\xf2+\x1d\x04\xfa\x1f\xed?'
p28
tp29
Rp30
aF1.6390860080718994
aI1609
aS'kernel = 0 degree'
p31
aa(lp32
g4
(g8
S'\xc9\x82z\x0e}~\xed?'
p33
tp34
Rp35
ag4
(g8
S'\x1b\xdd\xd6\xef\x8b\x1b\xed?'
p36
tp37
Rp38
aF1.4740519523620605
aI1609
aS'kernel = 0 degree'
p39
ag4
(g8
S'\xc9\x89\xae\xff\xf1\x97\xed?'
p40
tp41
Rp42
ag4
(g8
S'I#@Sk8\xed?'
p43
tp44
Rp45
aF0.6936490535736084
aI1609
aS'kernel = 0 degree'
p46
ag4
(g8
S'b\xe6\x98GNt\xed?'
p47
tp48
Rp49
ag4
(g8
S'c\xd1\x7f\x9f6\x16\xed?'
p50
tp51
Rp52
aF1.2163689136505127
aI1609
aS'kernel = 0 degree'
p53
aa(lp54
g4
(g8
S'\xc9{F\x1d\x08e\xed?'
p55
tp56
Rp57
ag4
(g8
S'{\xdbH\xef[\x06\xed?'
p58
tp59
Rp60
aF1.0867059230804443
aI1609
aS'kernel = 0 degree'
p61
ag4
(g8
S'/\x18(\xe46o\xed?'
p62
tp63
Rp64
ag4
(g8
S'\x9b\xa3eC\x1c\x14\xed?'
p65
tp66
Rp67
aF1.3090488910675049
aI1609
aS'kernel = 0 degree'
p68
ag4
(g8
S'\xfcI\xb7\x80\x1fj\xed?'
p69
tp70
Rp71
ag4
(g8
S'5\x96\xe0j\xf8\x10\xed?'
p72
tp73
Rp74
aF1.203111171722412
aI1609
aS'kernel = 0 degree'
p75
aa(lp76
g4
(g8
S'/\x11\xf4\xf2\xc1U\xed?'
p77
tp78
Rp79
ag4
(g8
S'\xdb9X\xb3\xc4\xf8\xec?'
p80
tp81
Rp82
aF0.9819297790527344
aI1609
aS'kernel = 0 degree'
p83
ag4
(g8
S'\xc8t\x12,\x93K\xed?'
p84
tp85
Rp86
ag4
(g8
S'\xe9\xa2\x8b.\xba\xe8\xec?'
p87
tp88
Rp89
aF1.645430088043213
aI1609
aS'kernel = 0 degree'
p90
ag4
(g8
S'\x94n\x01?\xd4z\xec?'
p91
tp92
Rp93
ag4
(g8
S'\xf6l\xa1\xf8-\x1e\xec?'
p94
tp95
Rp96
aF1.2459781169891357
aI1609
aS'kernel = 1 degree'
p97
aa(lp98
g4
(g8
S'c\xfb4\x1b\xad\xc0\xed?'
p99
tp100
Rp101
ag4
(g8
S'\xe2\x8c:g\x8ft\xed?'
p102
tp103
Rp104
aF1.5687110424041748
aI1609
aS'kernel = 0 degree'
p105
ag4
(g8
S'\xfcP\xebq\x94\x83\xed?'
p106
tp107
Rp108
ag4
(g8
S'EI\xfd8S,\xed?'
p109
tp110
Rp111
aF0.8067660331726074
aI1609
aS'kernel = 0 degree'
p112
ag4
(g8
S'\xc9\x82z\x0e}~\xed?'
p113
tp114
Rp115
ag4
(g8
S'\xa1t\xd5\x81\x9b\x1c\xed?'
p116
tp117
Rp118
aF1.608778953552246
aI1609
aS'kernel = 0 degree'
p119
aa(lp120
g4
(g8
S'\xc9\x82z\x0e}~\xed?'
p121
tp122
Rp123
ag4
(g8
S'\x0c-\xb4\xd0B\x0b\xed?'
p124
tp125
Rp126
aF1.410310983657837
aI1609
aS'kernel = 0 degree'
p127
ag4
(g8
S'\xc9\x82z\x0e}~\xed?'
p128
tp129
Rp130
ag4
(g8
S'\xd1y1t^\x0c\xed?'
p131
tp132
Rp133
aF1.103729009628296
aI1609
aS'kernel = 0 degree'
p134
ag4
(g8
S'\xfcI\xb7\x80\x1fj\xed?'
p135
tp136
Rp137
ag4
(g8
S'\x19\xea\xce\x9a\xa1\xee\xec?'
p138
tp139
Rp140
aF1.1144378185272217
aI1609
aS'kernel = 0 degree'
p141
aa(lp142
g4
(g8
S'/\x1f\\\xd5\xab\x88\xed?'
p143
tp144
Rp145
ag4
(g8
S'\x11.\xd1\t\xe1\x12\xed?'
p146
tp147
Rp148
aF1.0684800148010254
aI1609
aS'kernel = 0 degree'
p149
ag4
(g8
S'/\x1f\\\xd5\xab\x88\xed?'
p150
tp151
Rp152
ag4
(g8
S',\x04\x87\xb4\x8c\x0f\xed?'
p153
tp154
Rp155
aF1.224776029586792
aI1609
aS'kernel = 0 degree'
p156
ag4
(g8
S'/\x1f\\\xd5\xab\x88\xed?'
p157
tp158
Rp159
ag4
(g8
S'\xe4Z$\xa8\xa9\x10\xed?'
p160
tp161
Rp162
aF0.8136401176452637
aI1609
aS'kernel = 0 degree'
p163
aa(lp164
g4
(g8
S'\xfcW\x1fc\t\x9d\xed?'
p165
tp166
Rp167
ag4
(g8
S'>\xd4C=\xd4C\xed?'
p168
tp169
Rp170
aF1.4828269481658936
aI1609
aS'kernel = 0 degree'
p171
ag4
(g8
S'b\xe6\x98GNt\xed?'
p172
tp173
Rp174
ag4
(g8
S'\x11\xfdG\x1c\xcb\x0f\xed?'
p175
tp176
Rp177
aF1.2391939163208008
aI1609
aS'kernel = 0 degree'
p178
ag4
(g8
S'/\n\xc0\x01M<\xed?'
p179
tp180
Rp181
ag4
(g8
S'\xf4\x1d\xadr\x90\xce\xec?'
p182
tp183
Rp184
aF0.9948389530181885
aI1609
aS'kernel = 0 degree'
p185
aa(lp186
g4
(g8
S'/&\x90\xc6 \xa2\xed?'
p187
tp188
Rp189
ag4
(g8
S'nZq\xef$K\xed?'
p190
tp191
Rp192
aF1.3429999351501465
aI1609
aS'kernel = 0 degree'
p193
ag4
(g8
S'/&\x90\xc6 \xa2\xed?'
p194
tp195
Rp196
ag4
(g8
S"\xee\x89's(J\xed?"
p197
tp198
Rp199
aF1.198328971862793
aI1609
aS'kernel = 0 degree'
p200
ag4
(g8
S'/\x1f\\\xd5\xab\x88\xed?'
p201
tp202
Rp203
ag4
(g8
S'\x83\xcc\x10:u+\xed?'
p204
tp205
Rp206
aF1.1629748344421387
aI1609
aS'kernel = 0 degree'
p207
aa(lp208
g4
(g8
S'\xc9\x89\xae\xff\xf1\x97\xed?'
p209
tp210
Rp211
ag4
(g8
S'\x9d\xd2)\x9d\xd2)\xed?'
p212
tp213
Rp214
aF1.231774091720581
aI1609
aS'kernel = 0 degree'
p215
ag4
(g8
S'\xc9\x89\xae\xff\xf1\x97\xed?'
p216
tp217
Rp218
ag4
(g8
S'\xf7 0\x99\xe2*\xed?'
p219
tp220
Rp221
aF1.2860820293426514
aI1609
aS'kernel = 0 degree'
p222
ag4
(g8
S'\xc9\x89\xae\xff\xf1\x97\xed?'
p223
tp224
Rp225
ag4
(g8
S'w\x9at\xdb\x9d&\xed?'
p226
tp227
Rp228
aF0.8067657947540283
aI1609
aS'kernel = 0 degree'
p229
aas.