(dp0
S'sat'
p1
(lp2
(lp3
cnumpy.core.multiarray
scalar
p4
(cnumpy
dtype
p5
(S'f8'
p6
I0
I1
tp7
Rp8
(I3
S'<'
p9
NNNI-1
I-1
I0
tp10
bS'\xfcW\x1fc\t\x9d\xed?'
p11
tp12
Rp13
ag4
(g8
S'>\xd4C=\xd4C\xed?'
p14
tp15
Rp16
aF2.6376349925994873
aI1609
aS'kernel = 0 degree'
p17
ag4
(g8
S'\x96\xc2q\x8dO\xac\xed?'
p18
tp19
Rp20
ag4
(g8
S'Q\xdd\x0e\xd5\xedP\xed?'
p21
tp22
Rp23
aF1.795619010925293
aI1609
aS'kernel = 0 degree'
p24
ag4
(g8
S'\xfcB\x83\x8f\xaaP\xed?'
p25
tp26
Rp27
ag4
(g8
S'\x07X\xb1k\x16\xe6\xec?'
p28
tp29
Rp30
aF0.8336260318756104
aI1609
aS'kernel = 0 degree'
p31
aa(lp32
g4
(g8
S'\x96\xc2q\x8dO\xac\xed?'
p33
tp34
Rp35
ag4
(g8
S'<\x9d\xb9\xd3\x99;\xed?'
p36
tp37
Rp38
aF1.3674659729003906
aI1609
aS'kernel = 0 degree'
p39
ag4
(g8
S'0-\xc4\xb7\x95\xbb\xed?'
p40
tp41
Rp42
ag4
(g8
S'\x1d\xd3\xb5\xe2,J\xed?'
p43
tp44
Rp45
aF0.6846609115600586
aI1609
aS'kernel = 0 degree'
p46
ag4
(g8
S'b\xed\xcc8\xc3\x8d\xed?'
p47
tp48
Rp49
ag4
(g8
S'\xba\xe4@w\xa6\x1b\xed?'
p50
tp51
Rp52
aF1.414473056793213
aI1609
aS'kernel = 0 degree'
p53
aa(lp54
g4
(g8
S'04\xf8\xa8\n\xd5\xed?'
p55
tp56
Rp57
ag4
(g8
S'\xe4a\x1a\x11^\x85\xed?'
p58
tp59
Rp60
aF1.7304680347442627
aI1609
aS'kernel = 0 degree'
p61
ag4
(g8
S'04\xf8\xa8\n\xd5\xed?'
p62
tp63
Rp64
ag4
(g8
S'\xa9\xdf\xb1\xadD\x86\xed?'
p65
tp66
Rp67
aF0.7798750400543213
aI1609
aS'kernel = 0 degree'
p68
ag4
(g8
S'\xfcP\xebq\x94\x83\xed?'
p69
tp70
Rp71
ag4
(g8
S'\xb3\xb8\xd5;j3\xed?'
p72
tp73
Rp74
aF1.3155770301818848
aI1609
aS'kernel = 0 degree'
p75
aa(lp76
g4
(g8
S'\x96\xd0\xd9o9\xdf\xed?'
p77
tp78
Rp79
ag4
(g8
S'\xe4\xe9\x00\x13X\x8e\xed?'
p80
tp81
Rp82
aF1.404839038848877
aI1609
aS'kernel = 0 degree'
p83
ag4
(g8
S'\xc9\x97\x16\xe2\xdb\xca\xed?'
p84
tp85
Rp86
ag4
(g8
S';|\xf3\xfbIr\xed?'
p87
tp88
Rp89
aF1.3852360248565674
aI1609
aS'kernel = 0 degree'
p90
ag4
(g8
S'c\xf4\x00*8\xa7\xed?'
p91
tp92
Rp93
ag4
(g8
S'\x02\x99\x14/\x90I\xed?'
p94
tp95
Rp96
aF1.1662890911102295
aI1609
aS'kernel = 0 degree'
p97
aa(lp98
g4
(g8
S'c\xfb4\x1b\xad\xc0\xed?'
p99
tp100
Rp101
ag4
(g8
S'\xe2\x8c:g\x8ft\xed?'
p102
tp103
Rp104
aF0.9191751480102539
aI1609
aS'kernel = 0 degree'
p105
ag4
(g8
S'\x96\xbb=\x9c\xda\x92\xed?'
p106
tp107
Rp108
ag4
(g8
S'9\xdb\xf0&.@\xed?'
p109
tp110
Rp111
aF1.269312858581543
aI1609
aS'kernel = 0 degree'
p112
ag4
(g8
S'\xc9\x82z\x0e}~\xed?'
p113
tp114
Rp115
ag4
(g8
S'X\x19\xbe\x11\x05&\xed?'
p116
tp117
Rp118
aF0.6564168930053711
aI1609
aS'kernel = 0 degree'
p119
aa(lp120
g4
(g8
S'0-\xc4\xb7\x95\xbb\xed?'
p121
tp122
Rp123
ag4
(g8
S'\x89e\xea\xe3Ao\xed?'
p124
tp125
Rp126
aF1.4753689765930176
aI1609
aS'kernel = 0 degree'
p127
ag4
(g8
S'\x96\xc2q\x8dO\xac\xed?'
p128
tp129
Rp130
ag4
(g8
S'\xc0\x9f\xf8\xc6r^\xed?'
p131
tp132
Rp133
aF1.2296547889709473
aI1609
aS'kernel = 0 degree'
p134
ag4
(g8
S'b\xed\xcc8\xc3\x8d\xed?'
p135
tp136
Rp137
ag4
(g8
S'\xa3\xbb\xc3@\xe8;\xed?'
p138
tp139
Rp140
aF1.0882549285888672
aI1609
aS'kernel = 0 degree'
p141
aa(lp142
g4
(g8
S'b\xed\xcc8\xc3\x8d\xed?'
p143
tp144
Rp145
ag4
(g8
S'\xf5\x15\xee\xec\xd2\t\xed?'
p146
tp147
Rp148
aF0.8979260921478271
aI1609
aS'kernel = 0 degree'
p149
ag4
(g8
S'\x96\xbb=\x9c\xda\x92\xed?'
p150
tp151
Rp152
ag4
(g8
S'\xa4\x16\x1f}\xce\x12\xed?'
p153
tp154
Rp155
aF1.233839988708496
aI1609
aS'kernel = 0 degree'
p156
ag4
(g8
S'\xfcI\xb7\x80\x1fj\xed?'
p157
tp158
Rp159
ag4
(g8
S'\xd9d\x93M6\xd9\xec?'
p160
tp161
Rp162
aF1.1699440479278564
aI1609
aS'kernel = 0 degree'
p163
aa(lp164
g4
(g8
S'\xfcP\xebq\x94\x83\xed?'
p165
tp166
Rp167
ag4
(g8
S'\x85\x0fu>\x02\x14\xed?'
p168
tp169
Rp170
aF1.3047740459442139
aI1609
aS'kernel = 0 degree'
p171
ag4
(g8
S'b\xe6\x98GNt\xed?'
p172
tp173
Rp174
ag4
(g8
S'\xd0\x7f\x01\xf4_\x00\xed?'
p175
tp176
Rp177
aF1.064683198928833
aI1609
aS'kernel = 0 degree'
p178
ag4
(g8
S"b\xd1\xfcs\xef'\xed?"
p179
tp180
Rp181
ag4
(g8
S'\x02\x88r`\x00\xa2\xec?'
p182
tp183
Rp184
aF1.149226188659668
aI1609
aS'kernel = 0 degree'
p185
aa(lp186
g4
(g8
S'b\xe6\x98GNt\xed?'
p187
tp188
Rp189
ag4
(g8
S'\x17]t\xd1E\x17\xed?'
p190
tp191
Rp192
aF1.2814009189605713
aI1609
aS'kernel = 0 degree'
p193
ag4
(g8
S'\xc9{F\x1d\x08e\xed?'
p194
tp195
Rp196
ag4
(g8
S'\xaa\xd0U\xbd\xa8\n\xed?'
p197
tp198
Rp199
aF1.2732529640197754
aI1609
aS'kernel = 0 degree'
p200
ag4
(g8
S'\xc8t\x12,\x93K\xed?'
p201
tp202
Rp203
ag4
(g8
S'V\xd0\xb3\xb6N\xee\xec?'
p204
tp205
Rp206
aF0.9330408573150635
aI1609
aS'kernel = 0 degree'
p207
aa(lp208
g4
(g8
S'\x96\xb4\t\xabey\xed?'
p209
tp210
Rp211
ag4
(g8
S'\x02\x9d]\xfb\xa4\x0e\xed?'
p212
tp213
Rp214
aF1.3560559749603271
aI1609
aS'kernel = 0 degree'
p215
ag4
(g8
S'\xc9{F\x1d\x08e\xed?'
p216
tp217
Rp218
ag4
(g8
S'^\xbe\xdf\x90c\xf2\xec?'
p219
tp220
Rp221
aF0.9291901588439941
aI1609
aS'kernel = 0 degree'
p222
ag4
(g8
S'\xc9{F\x1d\x08e\xed?'
p223
tp224
Rp225
ag4
(g8
S'A\xc5\xbb\xce\xa8\xf4\xec?'
p226
tp227
Rp228
aF0.8698959350585938
aI1609
aS'kernel = 0 degree'
p229
aas.