(dp0
S'sat'
p1
(lp2
(lp3
cnumpy.core.multiarray
scalar
p4
(cnumpy
dtype
p5
(S'f8'
p6
I0
I1
tp7
Rp8
(I3
S'<'
p9
NNNI-1
I-1
I0
tp10
bS'\x95\xad\xd5\xb9\xf0_\xed?'
p11
tp12
Rp13
ag4
(g8
S'/~\x92\xf6,\x02\xed?'
p14
tp15
Rp16
aF2.771631956100464
aI1609
aS'kernel = 0 degree'
p17
ag4
(g8
S'b\xd80edA\xed?'
p18
tp19
Rp20
ag4
(g8
S'Ii:E\xe0\xe3\xec?'
p21
tp22
Rp23
aF1.091961145401001
aI1609
aS'kernel = 0 degree'
p24
ag4
(g8
S'b\xca\xc8\x82z\x0e\xed?'
p25
tp26
Rp27
ag4
(g8
S'\xbf17h!\xa4\xec?'
p28
tp29
Rp30
aF1.3716509342193604
aI1609
aS'kernel = 0 degree'
p31
aa(lp32
g4
(g8
S'\xc9\x90\xe2\xf0f\xb1\xed?'
p33
tp34
Rp35
ag4
(g8
S'\x0b\xc5\xc8\xc5aK\xed?'
p36
tp37
Rp38
aF1.1217231750488281
aI1609
aS'kernel = 0 degree'
p39
ag4
(g8
S'c\xf4\x00*8\xa7\xed?'
p40
tp41
Rp42
ag4
(g8
S'\xd4\xb2\xa7N\x86C\xed?'
p43
tp44
Rp45
aF1.5236091613769531
aI1609
aS'kernel = 0 degree'
p46
ag4
(g8
S'\xc9\x89\xae\xff\xf1\x97\xed?'
p47
tp48
Rp49
ag4
(g8
S'\x9d\xd2)\x9d\xd2)\xed?'
p50
tp51
Rp52
aF0.7024800777435303
aI1609
aS'kernel = 0 degree'
p53
aa(lp54
g4
(g8
S'b\xed\xcc8\xc3\x8d\xed?'
p55
tp56
Rp57
ag4
(g8
S'\x90\x8e^\x8c\xba.\xed?'
p58
tp59
Rp60
aF0.9605309963226318
aI1609
aS'kernel = 0 degree'
p61
ag4
(g8
S'\x96\xb4\t\xabey\xed?'
p62
tp63
Rp64
ag4
(g8
S'\xb3\xadD\x86\x9d\x1d\xed?'
p65
tp66
Rp67
aF1.4555671215057373
aI1609
aS'kernel = 0 degree'
p68
ag4
(g8
S'/\x18(\xe46o\xed?'
p69
tp70
Rp71
ag4
(g8
S'Ry\x1fL\xa0\x0c\xed?'
p72
tp73
Rp74
aF1.6542201042175293
aI1609
aS'kernel = 0 degree'
p75
aa(lp76
g4
(g8
S'\x96\xb4\t\xabey\xed?'
p77
tp78
Rp79
ag4
(g8
S'\xac\n\x9au\x0f\x14\xed?'
p80
tp81
Rp82
aF1.483962059020996
aI1609
aS'kernel = 0 degree'
p83
ag4
(g8
S'\xc9\x82z\x0e}~\xed?'
p84
tp85
Rp86
ag4
(g8
S'\xec\x13\xbf\x87X\x18\xed?'
p87
tp88
Rp89
aF0.8828132152557373
aI1609
aS'kernel = 0 degree'
p90
ag4
(g8
S'\x95\xa6\xa1\xc8{F\xed?'
p91
tp92
Rp93
ag4
(g8
S'\xaa\x08uy\x01\xd8\xec?'
p94
tp95
Rp96
aF1.4479520320892334
aI1609
aS'kernel = 0 degree'
p97
aa(lp98
g4
(g8
S'\xc9\x82z\x0e}~\xed?'
p99
tp100
Rp101
ag4
(g8
S'\x0c\x12\xa9sj\x19\xed?'
p102
tp103
Rp104
aF1.6518640518188477
aI1609
aS'kernel = 0 degree'
p105
ag4
(g8
S'\x95\xad\xd5\xb9\xf0_\xed?'
p106
tp107
Rp108
ag4
(g8
S'\x95\x82\x1d\x08\xef\xf4\xec?'
p109
tp110
Rp111
aF0.7965929508209229
aI1609
aS'kernel = 0 degree'
p112
ag4
(g8
S'\xfcB\x83\x8f\xaaP\xed?'
p113
tp114
Rp115
ag4
(g8
S'#\xfa\x9f[\\\xe8\xec?'
p116
tp117
Rp118
aF1.4358110427856445
aI1609
aS'kernel = 0 degree'
p119
aa(lp120
g4
(g8
S'/\x1f\\\xd5\xab\x88\xed?'
p121
tp122
Rp123
ag4
(g8
S'\xd3mLA\xe8\x1f\xed?'
p124
tp125
Rp126
aF1.6704399585723877
aI1609
aS'kernel = 0 degree'
p127
ag4
(g8
S'\xc9\x89\xae\xff\xf1\x97\xed?'
p128
tp129
Rp130
ag4
(g8
S'\x9d\xd2)\x9d\xd2)\xed?'
p131
tp132
Rp133
aF1.3234808444976807
aI1609
aS'kernel = 0 degree'
p134
ag4
(g8
S'b\xed\xcc8\xc3\x8d\xed?'
p135
tp136
Rp137
ag4
(g8
S'|\x8bO\xe2\x0c!\xed?'
p138
tp139
Rp140
aF0.9544100761413574
aI1609
aS'kernel = 0 degree'
p141
aa(lp142
g4
(g8
S'b\xdfdV\xd9Z\xed?'
p143
tp144
Rp145
ag4
(g8
S'FU\x0e\xbb\xd3\xfb\xec?'
p146
tp147
Rp148
aF1.4183411598205566
aI1609
aS'kernel = 0 degree'
p149
ag4
(g8
S'\x96\xb4\t\xabey\xed?'
p150
tp151
Rp152
ag4
(g8
S'(\xf6\xed^\x83\x1b\xed?'
p153
tp154
Rp155
aF0.9879369735717773
aI1609
aS'kernel = 0 degree'
p156
ag4
(g8
S"b\xd1\xfcs\xef'\xed?"
p157
tp158
Rp159
ag4
(g8
S'\xebm\x13,\xc5\xc8\xec?'
p160
tp161
Rp162
aF1.0069820880889893
aI1609
aS'kernel = 0 degree'
p163
aa(lp164
g4
(g8
S'\xc9\x82z\x0e}~\xed?'
p165
tp166
Rp167
ag4
(g8
S'\x0c-\xb4\xd0B\x0b\xed?'
p168
tp169
Rp170
aF1.4028890132904053
aI1609
aS'kernel = 0 degree'
p171
ag4
(g8
S'\xfcI\xb7\x80\x1fj\xed?'
p172
tp173
Rp174
ag4
(g8
S'\x19\xea\xce\x9a\xa1\xee\xec?'
p175
tp176
Rp177
aF1.0560340881347656
aI1609
aS'kernel = 0 degree'
p178
ag4
(g8
S'/\x11\xf4\xf2\xc1U\xed?'
p179
tp180
Rp181
ag4
(g8
S'\x85z\x0c3E\xd5\xec?'
p182
tp183
Rp184
aF1.0181119441986084
aI1609
aS'kernel = 0 degree'
p185
aa(lp186
g4
(g8
S'/\x11\xf4\xf2\xc1U\xed?'
p187
tp188
Rp189
ag4
(g8
S'p\xb6\x0e\xfdf\xeb\xec?'
p190
tp191
Rp192
aF1.0462088584899902
aI1609
aS'kernel = 0 degree'
p193
ag4
(g8
S'/\x11\xf4\xf2\xc1U\xed?'
p194
tp195
Rp196
ag4
(g8
S'\xcf\xfa^\x80\x8b\xe4\xec?'
p197
tp198
Rp199
aF1.3110461235046387
aI1609
aS'kernel = 0 degree'
p200
ag4
(g8
S'/\x11\xf4\xf2\xc1U\xed?'
p201
tp202
Rp203
ag4
(g8
S'\xa6\xae\xda\x1d\xe8\xdf\xec?'
p204
tp205
Rp206
aF1.2118709087371826
aI1609
aS'kernel = 0 degree'
p207
aa(lp208
g4
(g8
S'\xfc^ST~\xb6\xed?'
p209
tp210
Rp211
ag4
(g8
S'+\xca\xbd\xd6\xfd,\xed?'
p212
tp213
Rp214
aF1.5371849536895752
aI1609
aS'kernel = 0 degree'
p215
ag4
(g8
S'\x96\xc9\xa5~\xc4\xc5\xed?'
p216
tp217
Rp218
ag4
(g8
S'\xcb\xd8\xf3ZxA\xed?'
p219
tp220
Rp221
aF1.2769899368286133
aI1609
aS'kernel = 0 degree'
p222
ag4
(g8
S'\x95\xad\xd5\xb9\xf0_\xed?'
p223
tp224
Rp225
ag4
(g8
S'\xd9Kh/\xa1\xbd\xec?'
p226
tp227
Rp228
aF0.9302599430084229
aI1609
aS'kernel = 0 degree'
p229
aas.