(dp0
S'vehicle'
p1
(lp2
(lp3
cnumpy.core.multiarray
scalar
p4
(cnumpy
dtype
p5
(S'f8'
p6
I0
I1
tp7
Rp8
(I3
S'<'
p9
NNNI-1
I-1
I0
tp10
bS'\xfb\xceF}g\xa3\xee?'
p11
tp12
Rp13
ag4
(g8
S'\xac\x0f\x8d\xf5\xa1\xb1\xee?'
p14
tp15
Rp16
aF0.10886812210083008
aI188
aS'kernel = 1 degree'
p17
ag4
(g8
S'<\x1b\xf5\x9d\x8d\xfa\xee?'
p18
tp19
Rp20
ag4
(g8
S'\xc1\xcb)x9\x05\xef?'
p21
tp22
Rp23
aF0.11987495422363281
aI188
aS'kernel = 1 degree'
p24
ag4
(g8
S'\xda\xa8\xefl\xd4w\xee?'
p25
tp26
Rp27
ag4
(g8
S'\xabY\x7f\x06\xbf\x89\xee?'
p28
tp29
Rp30
aF0.12960314750671387
aI188
aS'kernel = 1 degree'
p31
aa(lp32
g4
(g8
S'\xbf\xb3Q\xdf\xd9\xa8\xef?'
p33
tp34
Rp35
ag4
(g8
S'\x9d\xfa=\xb7\xc4\xa9\xef?'
p36
tp37
Rp38
aF0.10193395614624023
aI188
aS'kernel = 1 degree'
p39
ag4
(g8
S']AL\xae &\xef?'
p40
tp41
Rp42
ag4
(g8
S"t\xf2\xd1\xc9G'\xef?"
p43
tp44
Rp45
aF0.11779284477233887
aI188
aS'kernel = 1 degree'
p46
ag4
(g8
S'W\x10\x93+\x88\xc9\xed?'
p47
tp48
Rp49
ag4
(g8
S'\x1c\xd5\xdf\xe7m\xd2\xed?'
p50
tp51
Rp52
aF0.09681391716003418
aI188
aS'kernel = 1 degree'
p53
aa(lp54
g4
(g8
S'<\x1b\xf5\x9d\x8d\xfa\xee?'
p55
tp56
Rp57
ag4
(g8
S'FX\xeei\x84\xe5\xee?'
p58
tp59
Rp60
aF0.1373732089996338
aI188
aS'kernel = 1 degree'
p61
ag4
(g8
S'}g\xa3\xbe\xb3Q\xef?'
p62
tp63
Rp64
ag4
(g8
S'\xda:\xf4\x9b\xadC\xef?'
p65
tp66
Rp67
aF0.13346385955810547
aI188
aS'kernel = 1 degree'
p68
ag4
(g8
S'\x99\\AL\xae \xee?'
p69
tp70
Rp71
ag4
(g8
S'(\xd4\x02\xc6$\x0e\xee?'
p72
tp73
Rp74
aF0.10300922393798828
aI188
aS'kernel = 1 degree'
p75
aa(lp76
g4
(g8
S'\x1b\xf5\x9d\x8d\xfa\xce\xee?'
p77
tp78
Rp79
ag4
(g8
S'\x9a8\x8c\xd5\xd6\xdf\xee?'
p80
tp81
Rp82
aF0.13785004615783691
aI188
aS'kernel = 1 degree'
p83
ag4
(g8
S'\xda\xa8\xefl\xd4w\xee?'
p84
tp85
Rp86
ag4
(g8
S'\xabY\x7f\x06\xbf\x89\xee?'
p87
tp88
Rp89
aF0.10202312469482422
aI188
aS'kernel = 1 degree'
p90
ag4
(g8
S'\xda\xa8\xefl\xd4w\xee?'
p91
tp92
Rp93
ag4
(g8
S'\xabY\x7f\x06\xbf\x89\xee?'
p94
tp95
Rp96
aF0.09879899024963379
aI188
aS'kernel = 1 degree'
p97
aa(lp98
g4
(g8
S'}g\xa3\xbe\xb3Q\xef?'
p99
tp100
Rp101
ag4
(g8
S'\x05j\xfdJ\x81Z\xef?'
p102
tp103
Rp104
aF0.11139798164367676
aI188
aS'kernel = 1 degree'
p105
ag4
(g8
S'\x1b\xf5\x9d\x8d\xfa\xce\xee?'
p106
tp107
Rp108
ag4
(g8
S'\x9a8\x8c\xd5\xd6\xdf\xee?'
p109
tp110
Rp111
aF0.14283490180969238
aI188
aS'kernel = 1 degree'
p112
ag4
(g8
S'\xb9\x82\x98\\AL\xee?'
p113
tp114
Rp115
ag4
(g8
S'\x98S\xf0r\n^\xee?'
p116
tp117
Rp118
aF0.13240289688110352
aI188
aS'kernel = 1 degree'
p119
aa(lp120
g4
(g8
S'<\x1b\xf5\x9d\x8d\xfa\xee?'
p121
tp122
Rp123
ag4
(g8
S'pz\xd3\x9b\xde\xf4\xee?'
p124
tp125
Rp126
aF0.12118697166442871
aI188
aS'kernel = 1 degree'
p127
ag4
(g8
S'W\x10\x93+\x88\xc9\xed?'
p128
tp129
Rp130
ag4
(g8
S'U,\x1b\xdf\x0c\xad\xed?'
p131
tp132
Rp133
aF0.12833189964294434
aI188
aS'kernel = 1 degree'
p134
ag4
(g8
S'\x16\xc4\xe4\nbr\xed?'
p135
tp136
Rp137
ag4
(g8
S'\xe6\xb1\x15A\xc3I\xed?'
p138
tp139
Rp140
aF0.12613916397094727
aI188
aS'kernel = 1 degree'
p141
aa(lp142
g4
(g8
S'\xbf\xb3Q\xdf\xd9\xa8\xef?'
p143
tp144
Rp145
ag4
(g8
S'{\xd3\x9b\xde\xf4\xa6\xef?'
p146
tp147
Rp148
aF0.12436604499816895
aI188
aS'kernel = 1 degree'
p149
ag4
(g8
S'}g\xa3\xbe\xb3Q\xef?'
p150
tp151
Rp152
ag4
(g8
S'\xbf\xf4K\xbf\xf4K\xef?'
p153
tp154
Rp155
aF0.12093901634216309
aI188
aS'kernel = 1 degree'
p156
ag4
(g8
S'R\xdf\xd9\xa8\xefl\xec?'
p157
tp158
Rp159
ag4
(g8
S'h\xce\x1a\x14O{\xec?'
p160
tp161
Rp162
aF0.10600399971008301
aI188
aS'kernel = 1 degree'
p163
aa(lp164
g4
(g8
S'\xda\xa8\xefl\xd4w\xee?'
p165
tp166
Rp167
ag4
(g8
S'vX\xc2Q\xfd}\xee?'
p168
tp169
Rp170
aF0.10354781150817871
aI188
aS'kernel = 1 degree'
p171
ag4
(g8
S'\x1b\xf5\x9d\x8d\xfa\xce\xee?'
p172
tp173
Rp174
ag4
(g8
S'\xce\x9e\xe4\xfbX\xcd\xee?'
p175
tp176
Rp177
aF0.13393592834472656
aI188
aS'kernel = 1 degree'
p178
ag4
(g8
S'<\x1b\xf5\x9d\x8d\xfa\xee?'
p179
tp180
Rp181
ag4
(g8
S'<\x1b\xf5\x9d\x8d\xfa\xee?'
p182
tp183
Rp184
aF0.09353303909301758
aI188
aS'kernel = 1 degree'
p185
aa(lp186
g4
(g8
S'\xfb\xceF}g\xa3\xee?'
p187
tp188
Rp189
ag4
(g8
S'~\xe9\x97~\xe9\x97\xee?'
p190
tp191
Rp192
aF0.11234712600708008
aI188
aS'kernel = 1 degree'
p193
ag4
(g8
S'\xda\xa8\xefl\xd4w\xee?'
p194
tp195
Rp196
ag4
(g8
S'\xf2!H\xb9\xa9h\xee?'
p197
tp198
Rp199
aF0.11223483085632324
aI188
aS'kernel = 1 degree'
p200
ag4
(g8
S'x6\xea;\x1b\xf5\xed?'
p201
tp202
Rp203
ag4
(g8
S'\x8d\xb0\xdc\xd3\x08\xcb\xed?'
p204
tp205
Rp206
aF0.10082888603210449
aI188
aS'kernel = 1 degree'
p207
aa(lp208
g4
(g8
S'<\x1b\xf5\x9d\x8d\xfa\xee?'
p209
tp210
Rp211
ag4
(g8
S'\xc1\xcb)x9\x05\xef?'
p212
tp213
Rp214
aF0.12929201126098633
aI188
aS'kernel = 1 degree'
p215
ag4
(g8
S'\xb9\x82\x98\\AL\xee?'
p216
tp217
Rp218
ag4
(g8
S'UUUUUU\xee?'
p219
tp220
Rp221
aF0.1255800724029541
aI188
aS'kernel = 1 degree'
p222
ag4
(g8
S'\xfb\xceF}g\xa3\xee?'
p223
tp224
Rp225
ag4
(g8
S'\x0b\xd4\xfa\x95\x02\xb5\xee?'
p226
tp227
Rp228
aF0.09662890434265137
aI188
aS'kernel = 1 degree'
p229
aa(lp230
g4
(g8
S'\xbf\xb3Q\xdf\xd9\xa8\xef?'
p231
tp232
Rp233
ag4
(g8
S'1P\xc2\x1bM\x9d\xef?'
p234
tp235
Rp236
aF0.09293317794799805
aI188
aS'kernel = 1 degree'
p237
ag4
(g8
S'\xdf\xd9\xa8\xefl\xd4\xef?'
p238
tp239
Rp240
ag4
(g8
S'\xa0\xa8\x1e4\xf2\xce\xef?'
p241
tp242
Rp243
aF0.09310102462768555
aI188
aS'kernel = 1 degree'
p244
ag4
(g8
S'\x1b\xf5\x9d\x8d\xfa\xce\xee?'
p245
tp246
Rp247
ag4
(g8
S'\xa5^G\xeau\xa4\xee?'
p248
tp249
Rp250
aF0.09247684478759766
aI188
aS'kernel = 1 degree'
p251
aa(lp252
g4
(g8
S'\x9e\x8d\xfa\xceF}\xef?'
p253
tp254
Rp255
ag4
(g8
S"\xc7V\x04\r'u\xef?"
p256
tp257
Rp258
aF0.11823511123657227
aI188
aS'kernel = 1 degree'
p259
ag4
(g8
S'\xda\xa8\xefl\xd4w\xee?'
p260
tp261
Rp262
ag4
(g8
S'\xf2!H\xb9\xa9h\xee?'
p263
tp264
Rp265
aF0.1065821647644043
aI188
aS'kernel = 1 degree'
p266
ag4
(g8
S'\xb9\x82\x98\\AL\xee?'
p267
tp268
Rp269
ag4
(g8
S'!\x93\xe2\x052)\xee?'
p270
tp271
Rp272
aF0.14671015739440918
aI188
aS'kernel = 1 degree'
p273
aa(lp274
g4
(g8
S']AL\xae &\xef?'
p275
tp276
Rp277
ag4
(g8
S'\x86\xbd\xd2\x9f\xb3\x1d\xef?'
p278
tp279
Rp280
aF0.12273502349853516
aI188
aS'kernel = 1 degree'
p281
ag4
(g8
S'\x99\\AL\xae \xee?'
p282
tp283
Rp284
ag4
(g8
S'69\xc8\xbc\x94\x08\xee?'
p285
tp286
Rp287
aF0.09597206115722656
aI188
aS'kernel = 1 degree'
p288
ag4
(g8
S']AL\xae &\xef?'
p289
tp290
Rp291
ag4
(g8
S'\xa2\xd4\xd8\xc3, \xef?'
p292
tp293
Rp294
aF0.12320899963378906
aI188
aS'kernel = 1 degree'
p295
aa(lp296
g4
(g8
S'}g\xa3\xbe\xb3Q\xef?'
p297
tp298
Rp299
ag4
(g8
S'F\x17]t\xd1E\xef?'
p300
tp301
Rp302
aF0.08871698379516602
aI188
aS'kernel = 1 degree'
p303
ag4
(g8
S'\xb9\x82\x98\\AL\xee?'
p304
tp305
Rp306
ag4
(g8
S'\x88;\xe2\x8e\xb8#\xee?'
p307
tp308
Rp309
aF0.11772799491882324
aI188
aS'kernel = 1 degree'
p310
ag4
(g8
S']AL\xae &\xef?'
p311
tp312
Rp313
ag4
(g8
S'_\xf1\x15_\xf1\x15\xef?'
p314
tp315
Rp316
aF0.07487702369689941
aI188
aS'kernel = 1 degree'
p317
aa(lp318
g4
(g8
S'<\x1b\xf5\x9d\x8d\xfa\xee?'
p319
tp320
Rp321
ag4
(g8
S'pz\xd3\x9b\xde\xf4\xee?'
p322
tp323
Rp324
aF0.10157895088195801
aI188
aS'kernel = 1 degree'
p325
ag4
(g8
S'\xb9\x82\x98\\AL\xee?'
p326
tp327
Rp328
ag4
(g8
S'.\xba\xe8\xa2\x8b.\xee?'
p329
tp330
Rp331
aF0.09560203552246094
aI188
aS'kernel = 1 degree'
p332
ag4
(g8
S'r\x051\xb9\x82\x98\xec?'
p333
tp334
Rp335
ag4
(g8
S'=\x89L\xc3v\xb3\xec?'
p336
tp337
Rp338
aF0.07885408401489258
aI188
aS'kernel = 1 degree'
p339
aa(lp340
g4
(g8
S'}g\xa3\xbe\xb3Q\xef?'
p341
tp342
Rp343
ag4
(g8
S'P?\xfd\xf4\xd3O\xef?'
p344
tp345
Rp346
aF0.11830496788024902
aI188
aS'kernel = 1 degree'
p347
ag4
(g8
S'\x1b\xf5\x9d\x8d\xfa\xce\xee?'
p348
tp349
Rp350
ag4
(g8
S'\n\xed%\xb4\x97\xd0\xee?'
p351
tp352
Rp353
aF0.08763313293457031
aI188
aS'kernel = 1 degree'
p354
ag4
(g8
S'\xf5\x9d\x8d\xfa\xceF\xed?'
p355
tp356
Rp357
ag4
(g8
S'?\xfd\xf4\xd3O?\xed?'
p358
tp359
Rp360
aF0.09414196014404297
aI188
aS'kernel = 1 degree'
p361
aa(lp362
g4
(g8
S']AL\xae &\xef?'
p363
tp364
Rp365
ag4
(g8
S'\xd0\xdb\xa4\xbb\x8c)\xef?'
p366
tp367
Rp368
aF0.12909698486328125
aI188
aS'kernel = 1 degree'
p369
ag4
(g8
S'<\x1b\xf5\x9d\x8d\xfa\xee?'
p370
tp371
Rp372
ag4
(g8
S'\x00\x00\x00\x00\x00\x00\xef?'
p373
tp374
Rp375
aF0.13164281845092773
aI188
aS'kernel = 1 degree'
p376
ag4
(g8
S'W\x10\x93+\x88\xc9\xed?'
p377
tp378
Rp379
ag4
(g8
S's\xc23\xfd\r\xba\xed?'
p380
tp381
Rp382
aF0.12914299964904785
aI188
aS'kernel = 0 degree'
p383
aa(lp384
g4
(g8
S'\xb9\x82\x98\\AL\xee?'
p385
tp386
Rp387
ag4
(g8
S'\r\x89y;Cb\xee?'
p388
tp389
Rp390
aF0.09743309020996094
aI188
aS'kernel = 1 degree'
p391
ag4
(g8
S'\x9e\x8d\xfa\xceF}\xef?'
p392
tp393
Rp394
ag4
(g8
S'\x1d\xcf\xa9\xa4\x80\x84\xef?'
p395
tp396
Rp397
aF0.08561491966247559
aI188
aS'kernel = 1 degree'
p398
ag4
(g8
S'\x99\\AL\xae \xee?'
p399
tp400
Rp401
ag4
(g8
S'J\xaf\xbf8\x19D\xee?'
p402
tp403
Rp404
aF0.09493589401245117
aI188
aS'kernel = 1 degree'
p405
aa(lp406
g4
(g8
S'\xb9\x82\x98\\AL\xee?'
p407
tp408
Rp409
ag4
(g8
S'\r\x89y;Cb\xee?'
p410
tp411
Rp412
aF0.1218259334564209
aI188
aS'kernel = 1 degree'
p413
ag4
(g8
S'<\x1b\xf5\x9d\x8d\xfa\xee?'
p414
tp415
Rp416
ag4
(g8
S'\x08\x1f|\xf0\xc1\x07\xef?'
p417
tp418
Rp419
aF0.07144498825073242
aI188
aS'kernel = 1 degree'
p420
ag4
(g8
S'\xf5\x9d\x8d\xfa\xceF\xed?'
p421
tp422
Rp423
ag4
(g8
S'q=\n\xd7\xa3p\xed?'
p424
tp425
Rp426
aF0.08260798454284668
aI188
aS'kernel = 1 degree'
p427
aa(lp428
g4
(g8
S']AL\xae &\xef?'
p429
tp430
Rp431
ag4
(g8
S"t\xf2\xd1\xc9G'\xef?"
p432
tp433
Rp434
aF0.0989389419555664
aI188
aS'kernel = 1 degree'
p435
ag4
(g8
S'x6\xea;\x1b\xf5\xed?'
p436
tp437
Rp438
ag4
(g8
S'\xbe\xb8\xfaAG\x05\xee?'
p439
tp440
Rp441
aF0.07909703254699707
aI188
aS'kernel = 1 degree'
p442
ag4
(g8
S'}g\xa3\xbe\xb3Q\xef?'
p443
tp444
Rp445
ag4
(g8
S'UUUUUU\xef?'
p446
tp447
Rp448
aF0.0933830738067627
aI188
aS'kernel = 1 degree'
p449
aa(lp450
g4
(g8
S'<\x1b\xf5\x9d\x8d\xfa\xee?'
p451
tp452
Rp453
ag4
(g8
S'\x1f\xef\xf1\x1e\xef\xf1\xee?'
p454
tp455
Rp456
aF0.0777280330657959
aI188
aS'kernel = 1 degree'
p457
ag4
(g8
S'}g\xa3\xbe\xb3Q\xef?'
p458
tp459
Rp460
ag4
(g8
S'\xf4\xa3\x1f\xfd\xe8G\xef?'
p461
tp462
Rp463
aF0.06385207176208496
aI188
aS'kernel = 1 degree'
p464
ag4
(g8
S'x6\xea;\x1b\xf5\xed?'
p465
tp466
Rp467
ag4
(g8
S'\xdf\xdd\xdd\xdd\xdd\xdd\xed?'
p468
tp469
Rp470
aF0.08589696884155273
aI188
aS'kernel = 1 degree'
p471
aa(lp472
g4
(g8
S'\xbf\xb3Q\xdf\xd9\xa8\xef?'
p473
tp474
Rp475
ag4
(g8
S'{\xd3\x9b\xde\xf4\xa6\xef?'
p476
tp477
Rp478
aF0.09350299835205078
aI188
aS'kernel = 1 degree'
p479
ag4
(g8
S'}g\xa3\xbe\xb3Q\xef?'
p480
tp481
Rp482
ag4
(g8
S'~g\xa3\xbe\xb3Q\xef?'
p483
tp484
Rp485
aF0.07237100601196289
aI188
aS'kernel = 1 degree'
p486
ag4
(g8
S'6\xea;\x1b\xf5\x9d\xed?'
p487
tp488
Rp489
ag4
(g8
S'-\xd8\x82-\xd8\x82\xed?'
p490
tp491
Rp492
aF0.1028740406036377
aI188
aS'kernel = 0 degree'
p493
aa(lp494
g4
(g8
S'\x1b\xf5\x9d\x8d\xfa\xce\xee?'
p495
tp496
Rp497
ag4
(g8
S'\xce\x9e\xe4\xfbX\xcd\xee?'
p498
tp499
Rp500
aF0.12499785423278809
aI188
aS'kernel = 1 degree'
p501
ag4
(g8
S'\x9e\x8d\xfa\xceF}\xef?'
p502
tp503
Rp504
ag4
(g8
S'}\x1f\xab\xd9\x93|\xef?'
p505
tp506
Rp507
aF0.07122111320495605
aI188
aS'kernel = 1 degree'
p508
ag4
(g8
S'\xda\xa8\xefl\xd4w\xee?'
p509
tp510
Rp511
ag4
(g8
S'\xf2!H\xb9\xa9h\xee?'
p512
tp513
Rp514
aF0.10301995277404785
aI188
aS'kernel = 1 degree'
p515
aa(lp516
g4
(g8
S'x6\xea;\x1b\xf5\xed?'
p517
tp518
Rp519
ag4
(g8
S'\x83\x97S\xf0r\n\xee?'
p520
tp521
Rp522
aF0.07801508903503418
aI188
aS'kernel = 1 degree'
p523
ag4
(g8
S'<\x1b\xf5\x9d\x8d\xfa\xee?'
p524
tp525
Rp526
ag4
(g8
S'\x0b\xd7\xa3p=\n\xef?'
p527
tp528
Rp529
aF0.09216594696044922
aI188
aS'kernel = 1 degree'
p530
ag4
(g8
S'\xfb\xceF}g\xa3\xee?'
p531
tp532
Rp533
ag4
(g8
S'\xb8\x1e\x85\xebQ\xb8\xee?'
p534
tp535
Rp536
aF0.07583093643188477
aI188
aS'kernel = 1 degree'
p537
aa(lp538
g4
(g8
S']AL\xae &\xef?'
p539
tp540
Rp541
ag4
(g8
S'\xdb\x03\x1b\xbd+2\xef?'
p542
tp543
Rp544
aF0.0857388973236084
aI188
aS'kernel = 1 degree'
p545
ag4
(g8
S'\xda\xa8\xefl\xd4w\xee?'
p546
tp547
Rp548
ag4
(g8
S'\xc8\x03W\xd1\xce\x94\xee?'
p549
tp550
Rp551
aF0.06857609748840332
aI188
aS'kernel = 1 degree'
p552
ag4
(g8
S'\x99\\AL\xae \xee?'
p553
tp554
Rp555
ag4
(g8
S'\xed\xc2b$\x946\xee?'
p556
tp557
Rp558
aF0.06883883476257324
aI188
aS'kernel = 1 degree'
p559
aa(lp560
g4
(g8
S'x6\xea;\x1b\xf5\xed?'
p561
tp562
Rp563
ag4
(g8
S'\x83\x97S\xf0r\n\xee?'
p564
tp565
Rp566
aF0.07885313034057617
aI188
aS'kernel = 1 degree'
p567
ag4
(g8
S'\x1b\xf5\x9d\x8d\xfa\xce\xee?'
p568
tp569
Rp570
ag4
(g8
S'\xa5\x8e\x10\xdb\xb4\xe2\xee?'
p571
tp572
Rp573
aF0.09313392639160156
aI188
aS'kernel = 1 degree'
p574
ag4
(g8
S'\xfb\xceF}g\xa3\xee?'
p575
tp576
Rp577
ag4
(g8
S'\t\xd4\xfa\x95\x02\xb5\xee?'
p578
tp579
Rp580
aF0.09004878997802734
aI188
aS'kernel = 1 degree'
p581
aa(lp582
g4
(g8
S'}g\xa3\xbe\xb3Q\xef?'
p583
tp584
Rp585
ag4
(g8
S'\xf5\xa67\xbd\xe9M\xef?'
p586
tp587
Rp588
aF0.0999460220336914
aI188
aS'kernel = 1 degree'
p589
ag4
(g8
S'}g\xa3\xbe\xb3Q\xef?'
p590
tp591
Rp592
ag4
(g8
S'\xf5\xa67\xbd\xe9M\xef?'
p593
tp594
Rp595
aF0.08382320404052734
aI188
aS'kernel = 1 degree'
p596
ag4
(g8
S'\xda\xa8\xefl\xd4w\xee?'
p597
tp598
Rp599
ag4
(g8
S'\x8aK\x86`\x1dm\xee?'
p600
tp601
Rp602
aF0.08050203323364258
aI188
aS'kernel = 1 degree'
p603
aa(lp604
g4
(g8
S'}g\xa3\xbe\xb3Q\xef?'
p605
tp606
Rp607
ag4
(g8
S'\xf5\xa67\xbd\xe9M\xef?'
p608
tp609
Rp610
aF0.08112978935241699
aI188
aS'kernel = 1 degree'
p611
ag4
(g8
S'\xb9\x82\x98\\AL\xee?'
p612
tp613
Rp614
ag4
(g8
S'\x8e\xe38\x8e\xe38\xee?'
p615
tp616
Rp617
aF0.07927107810974121
aI188
aS'kernel = 1 degree'
p618
ag4
(g8
S'x6\xea;\x1b\xf5\xed?'
p619
tp620
Rp621
ag4
(g8
S'\xdd\xeb^\xf7\xba\xd7\xed?'
p622
tp623
Rp624
aF0.08366703987121582
aI188
aS'kernel = 1 degree'
p625
aa(lp626
g4
(g8
S'\x1b\xf5\x9d\x8d\xfa\xce\xee?'
p627
tp628
Rp629
ag4
(g8
S'\x9a8\x8c\xd5\xd6\xdf\xee?'
p630
tp631
Rp632
aF0.0754849910736084
aI188
aS'kernel = 1 degree'
p633
ag4
(g8
S'\xfb\xceF}g\xa3\xee?'
p634
tp635
Rp636
ag4
(g8
S'\t\xd4\xfa\x95\x02\xb5\xee?'
p637
tp638
Rp639
aF0.09612202644348145
aI188
aS'kernel = 1 degree'
p640
ag4
(g8
S'\xfb\xceF}g\xa3\xee?'
p641
tp642
Rp643
ag4
(g8
S'\x7f\xd0Q\x81/\xae\xee?'
p644
tp645
Rp646
aF0.06954598426818848
aI188
aS'kernel = 1 degree'
p647
aa(lp648
g4
(g8
S']AL\xae &\xef?'
p649
tp650
Rp651
ag4
(g8
S'\x1eK\x99\x04\xbb\n\xef?'
p652
tp653
Rp654
aF0.08034014701843262
aI188
aS'kernel = 1 degree'
p655
ag4
(g8
S'\x9e\x8d\xfa\xceF}\xef?'
p656
tp657
Rp658
ag4
(g8
S'\xde\xf9[\x9c\xd6l\xef?'
p659
tp660
Rp661
aF0.08831191062927246
aI188
aS'kernel = 1 degree'
p662
ag4
(g8
S'\x93+\x88\xc9\x15\xc4\xec?'
p663
tp664
Rp665
ag4
(g8
S'\xb8\x05\x14Fu\x9a\xec?'
p666
tp667
Rp668
aF0.08037400245666504
aI188
aS'kernel = 1 degree'
p669
aa(lp670
g4
(g8
S'}g\xa3\xbe\xb3Q\xef?'
p671
tp672
Rp673
ag4
(g8
S'@\xe8\xa8\xc0\x17W\xef?'
p674
tp675
Rp676
aF0.0706789493560791
aI188
aS'kernel = 1 degree'
p677
ag4
(g8
S'}g\xa3\xbe\xb3Q\xef?'
p678
tp679
Rp680
ag4
(g8
S'UUUUUU\xef?'
p681
tp682
Rp683
aF0.07352089881896973
aI188
aS'kernel = 1 degree'
p684
ag4
(g8
S'\x16\xc4\xe4\nbr\xed?'
p685
tp686
Rp687
ag4
(g8
S'"fs\xe9P\x83\xed?'
p688
tp689
Rp690
aF0.06781387329101562
aI188
aS'kernel = 1 degree'
p691
aa(lp692
g4
(g8
S'}g\xa3\xbe\xb3Q\xef?'
p693
tp694
Rp695
ag4
(g8
S'F\x17]t\xd1E\xef?'
p696
tp697
Rp698
aF0.09177613258361816
aI188
aS'kernel = 1 degree'
p699
ag4
(g8
S'}g\xa3\xbe\xb3Q\xef?'
p700
tp701
Rp702
ag4
(g8
S'F\x17]t\xd1E\xef?'
p703
tp704
Rp705
aF0.08710694313049316
aI188
aS'kernel = 1 degree'
p706
ag4
(g8
S'\xfb\xceF}g\xa3\xee?'
p707
tp708
Rp709
ag4
(g8
S'\xa1/\xe8\x0b\xfa\x82\xee?'
p710
tp711
Rp712
aF0.0894019603729248
aI188
aS'kernel = 1 degree'
p713
aa(lp714
g4
(g8
S'\xfb\xceF}g\xa3\xee?'
p715
tp716
Rp717
ag4
(g8
S'\xad\x0f\x8d\xf5\xa1\xb1\xee?'
p718
tp719
Rp720
aF0.08720612525939941
aI188
aS'kernel = 1 degree'
p721
ag4
(g8
S'\xb9\x82\x98\\AL\xee?'
p722
tp723
Rp724
ag4
(g8
S'\r\xe55\x94\xd7P\xee?'
p725
tp726
Rp727
aF0.07277297973632812
aI188
aS'kernel = 1 degree'
p728
ag4
(g8
S'\x16\xc4\xe4\nbr\xed?'
p729
tp730
Rp731
ag4
(g8
S'!fs\xe9P\x83\xed?'
p732
tp733
Rp734
aF0.10150790214538574
aI188
aS'kernel = 1 degree'
p735
aa(lp736
g4
(g8
S']AL\xae &\xef?'
p737
tp738
Rp739
ag4
(g8
S'\xdf\xf2-\xdf\xf2-\xef?'
p740
tp741
Rp742
aF0.08608508110046387
aI188
aS'kernel = 1 degree'
p743
ag4
(g8
S'\x1b\xf5\x9d\x8d\xfa\xce\xee?'
p744
tp745
Rp746
ag4
(g8
S'#\x9a\xb3\x06\xc5\xd3\xee?'
p747
tp748
Rp749
aF0.0882101058959961
aI188
aS'kernel = 1 degree'
p750
ag4
(g8
S'\xfb\xceF}g\xa3\xee?'
p751
tp752
Rp753
ag4
(g8
S'\xfb\xceF}g\xa3\xee?'
p754
tp755
Rp756
aF0.06333804130554199
aI188
aS'kernel = 1 degree'
p757
aa(lp758
g4
(g8
S'}g\xa3\xbe\xb3Q\xef?'
p759
tp760
Rp761
ag4
(g8
S'\xcf\xf3<\xcf\xf3<\xef?'
p762
tp763
Rp764
aF0.09814691543579102
aI188
aS'kernel = 1 degree'
p765
ag4
(g8
S']AL\xae &\xef?'
p766
tp767
Rp768
ag4
(g8
S'\x8b\x045\x15\xa2\r\xef?'
p769
tp770
Rp771
aF0.07272195816040039
aI188
aS'kernel = 1 degree'
p772
ag4
(g8
S'\xd4w6\xea;\x1b\xed?'
p773
tp774
Rp775
ag4
(g8
S'w\x01\xb1\xa94\xe4\xec?'
p776
tp777
Rp778
aF0.0903470516204834
aI188
aS'kernel = 1 degree'
p779
aa(lp780
g4
(g8
S'<\x1b\xf5\x9d\x8d\xfa\xee?'
p781
tp782
Rp783
ag4
(g8
S'\x1f\xef\xf1\x1e\xef\xf1\xee?'
p784
tp785
Rp786
aF0.06210613250732422
aI188
aS'kernel = 1 degree'
p787
ag4
(g8
S'\xda\xa8\xefl\xd4w\xee?'
p788
tp789
Rp790
ag4
(g8
S'\xf2!H\xb9\xa9h\xee?'
p791
tp792
Rp793
aF0.03319191932678223
aI188
aS'kernel = 1 degree'
p794
ag4
(g8
S'\x99\\AL\xae \xee?'
p795
tp796
Rp797
ag4
(g8
S'3\xe2\xcd\x887#\xee?'
p798
tp799
Rp800
aF0.08551192283630371
aI188
aS'kernel = 1 degree'
p801
aa(lp802
g4
(g8
S'<\x1b\xf5\x9d\x8d\xfa\xee?'
p803
tp804
Rp805
ag4
(g8
S'\x0f\x0f\x0f\x0f\x0f\x0f\xef?'
p806
tp807
Rp808
aF0.09090280532836914
aI188
aS'kernel = 1 degree'
p809
ag4
(g8
S']AL\xae &\xef?'
p810
tp811
Rp812
ag4
(g8
S'8\x1f\x83\xf318\xef?'
p813
tp814
Rp815
aF0.07184004783630371
aI188
aS'kernel = 1 degree'
p816
ag4
(g8
S'\xb9\x82\x98\\AL\xee?'
p817
tp818
Rp819
ag4
(g8
S'nnnnnn\xee?'
p820
tp821
Rp822
aF0.09476590156555176
aI188
aS'kernel = 1 degree'
p823
aa(lp824
g4
(g8
S'<\x1b\xf5\x9d\x8d\xfa\xee?'
p825
tp826
Rp827
ag4
(g8
S'\x1f\xef\xf1\x1e\xef\xf1\xee?'
p828
tp829
Rp830
aF0.06969594955444336
aI188
aS'kernel = 1 degree'
p831
ag4
(g8
S'\xb9\x82\x98\\AL\xee?'
p832
tp833
Rp834
ag4
(g8
S'd!\x0bY\xc8B\xee?'
p835
tp836
Rp837
aF0.0862419605255127
aI188
aS'kernel = 1 degree'
p838
ag4
(g8
S'W\x10\x93+\x88\xc9\xed?'
p839
tp840
Rp841
ag4
(g8
S'U,\x1b\xdf\x0c\xad\xed?'
p842
tp843
Rp844
aF0.0789949893951416
aI188
aS'kernel = 1 degree'
p845
aa(lp846
g4
(g8
S'}g\xa3\xbe\xb3Q\xef?'
p847
tp848
Rp849
ag4
(g8
S'F\x17]t\xd1E\xef?'
p850
tp851
Rp852
aF0.0989840030670166
aI188
aS'kernel = 1 degree'
p853
ag4
(g8
S'\x1b\xf5\x9d\x8d\xfa\xce\xee?'
p854
tp855
Rp856
ag4
(g8
S'\xb8\x1e\x85\xebQ\xb8\xee?'
p857
tp858
Rp859
aF0.03203892707824707
aI188
aS'kernel = 1 degree'
p860
ag4
(g8
S'\xd4w6\xea;\x1b\xed?'
p861
tp862
Rp863
ag4
(g8
S'\xf3\xd01\xbc8\x0f\xed?'
p864
tp865
Rp866
aF0.07642507553100586
aI188
aS'kernel = 1 degree'
p867
aa(lp868
g4
(g8
S']AL\xae &\xef?'
p869
tp870
Rp871
ag4
(g8
S'&\x87\xb8\xca\x140\xef?'
p872
tp873
Rp874
aF0.0680701732635498
aI188
aS'kernel = 1 degree'
p875
ag4
(g8
S']AL\xae &\xef?'
p876
tp877
Rp878
ag4
(g8
S'aw&\xa3\xc5+\xef?'
p879
tp880
Rp881
aF0.06181502342224121
aI188
aS'kernel = 1 degree'
p882
ag4
(g8
S'\xd4w6\xea;\x1b\xed?'
p883
tp884
Rp885
ag4
(g8
S'\xb3\xfe\x0c~\x13=\xed?'
p886
tp887
Rp888
aF0.0914759635925293
aI188
aS'kernel = 0 degree'
p889
aa(lp890
g4
(g8
S'}g\xa3\xbe\xb3Q\xef?'
p891
tp892
Rp893
ag4
(g8
S'@\xe8\xa8\xc0\x17W\xef?'
p894
tp895
Rp896
aF0.0874028205871582
aI188
aS'kernel = 1 degree'
p897
ag4
(g8
S'\xfb\xceF}g\xa3\xee?'
p898
tp899
Rp900
ag4
(g8
S'\xac\x0f\x8d\xf5\xa1\xb1\xee?'
p901
tp902
Rp903
aF0.06209588050842285
aI188
aS'kernel = 1 degree'
p904
ag4
(g8
S'\x1b\xf5\x9d\x8d\xfa\xce\xee?'
p905
tp906
Rp907
ag4
(g8
S'#\x9a\xb3\x06\xc5\xd3\xee?'
p908
tp909
Rp910
aF0.08235812187194824
aI188
aS'kernel = 1 degree'
p911
aa(lp912
g4
(g8
S'\xfb\xceF}g\xa3\xee?'
p913
tp914
Rp915
ag4
(g8
S'\xbf\xbe\xbe\xbe\xbe\xbe\xee?'
p916
tp917
Rp918
aF0.08264708518981934
aI188
aS'kernel = 1 degree'
p919
ag4
(g8
S'\xb9\x82\x98\\AL\xee?'
p920
tp921
Rp922
ag4
(g8
S'\xf8F\x14\x98tj\xee?'
p923
tp924
Rp925
aF0.07622194290161133
aI188
aS'kernel = 1 degree'
p926
ag4
(g8
S'\xd4w6\xea;\x1b\xed?'
p927
tp928
Rp929
ag4
(g8
S",\x93' :_\xed?"
p930
tp931
Rp932
aF0.08530807495117188
aI188
aS'kernel = 0 degree'
p933
aa(lp934
g4
(g8
S'<\x1b\xf5\x9d\x8d\xfa\xee?'
p935
tp936
Rp937
ag4
(g8
S'pz\xd3\x9b\xde\xf4\xee?'
p938
tp939
Rp940
aF0.06596994400024414
aI188
aS'kernel = 1 degree'
p941
ag4
(g8
S'\x99\\AL\xae \xee?'
p942
tp943
Rp944
ag4
(g8
S'\x1f\x1e\x1e\x1e\x1e\x1e\xee?'
p945
tp946
Rp947
aF0.07692694664001465
aI188
aS'kernel = 1 degree'
p948
ag4
(g8
S'<\x1b\xf5\x9d\x8d\xfa\xee?'
p949
tp950
Rp951
ag4
(g8
S'<\x1b\xf5\x9d\x8d\xfa\xee?'
p952
tp953
Rp954
aF0.07911491394042969
aI188
aS'kernel = 1 degree'
p955
aa(lp956
g4
(g8
S'}g\xa3\xbe\xb3Q\xef?'
p957
tp958
Rp959
ag4
(g8
S'\\\x8f\xc2\xf5(\\\xef?'
p960
tp961
Rp962
aF0.07189607620239258
aI188
aS'kernel = 1 degree'
p963
ag4
(g8
S'\x1b\xf5\x9d\x8d\xfa\xce\xee?'
p964
tp965
Rp966
ag4
(g8
S'GX\xeei\x84\xe5\xee?'
p967
tp968
Rp969
aF0.07886600494384766
aI188
aS'kernel = 1 degree'
p970
ag4
(g8
S'\xfb\xceF}g\xa3\xee?'
p971
tp972
Rp973
ag4
(g8
S'\n\xd4\xfa\x95\x02\xb5\xee?'
p974
tp975
Rp976
aF0.08797812461853027
aI188
aS'kernel = 1 degree'
p977
aa(lp978
g4
(g8
S'<\x1b\xf5\x9d\x8d\xfa\xee?'
p979
tp980
Rp981
ag4
(g8
S'pz\xd3\x9b\xde\xf4\xee?'
p982
tp983
Rp984
aF0.08854317665100098
aI188
aS'kernel = 1 degree'
p985
ag4
(g8
S'\x1b\xf5\x9d\x8d\xfa\xce\xee?'
p986
tp987
Rp988
ag4
(g8
S'\x16\x90/\x12\xa5\xc6\xee?'
p989
tp990
Rp991
aF0.0862128734588623
aI188
aS'kernel = 1 degree'
p992
ag4
(g8
S'\xda\xa8\xefl\xd4w\xee?'
p993
tp994
Rp995
ag4
(g8
S'\x18\xe7\xa1cxq\xee?'
p996
tp997
Rp998
aF0.06450200080871582
aI188
aS'kernel = 1 degree'
p999
aa(lp1000
g4
(g8
S'\xfb\xceF}g\xa3\xee?'
p1001
tp1002
Rp1003
ag4
(g8
S'q\xea\xf7\xdc\x12\xa7\xee?'
p1004
tp1005
Rp1006
aF0.08682894706726074
aI188
aS'kernel = 1 degree'
p1007
ag4
(g8
S'<\x1b\xf5\x9d\x8d\xfa\xee?'
p1008
tp1009
Rp1010
ag4
(g8
S'\xd5\xef\xb9%N\xfd\xee?'
p1011
tp1012
Rp1013
aF0.0732269287109375
aI188
aS'kernel = 1 degree'
p1014
ag4
(g8
S']AL\xae &\xef?'
p1015
tp1016
Rp1017
ag4
(g8
S'\xd0\xdb\xa4\xbb\x8c)\xef?'
p1018
tp1019
Rp1020
aF0.07908511161804199
aI188
aS'kernel = 1 degree'
p1021
aa(lp1022
g4
(g8
S'}g\xa3\xbe\xb3Q\xef?'
p1023
tp1024
Rp1025
ag4
(g8
S'P?\xfd\xf4\xd3O\xef?'
p1026
tp1027
Rp1028
aF0.033306121826171875
aI188
aS'kernel = 1 degree'
p1029
ag4
(g8
S']AL\xae &\xef?'
p1030
tp1031
Rp1032
ag4
(g8
S'\xd0\xdb\xa4\xbb\x8c)\xef?'
p1033
tp1034
Rp1035
aF0.08214998245239258
aI188
aS'kernel = 1 degree'
p1036
ag4
(g8
S'\x99\\AL\xae \xee?'
p1037
tp1038
Rp1039
ag4
(g8
S'\xfe\x06\xdd\xae\x95\x13\xee?'
p1040
tp1041
Rp1042
aF0.0336458683013916
aI188
aS'kernel = 1 degree'
p1043
aa(lp1044
g4
(g8
S'<\x1b\xf5\x9d\x8d\xfa\xee?'
p1045
tp1046
Rp1047
ag4
(g8
S'<\x1b\xf5\x9d\x8d\xfa\xee?'
p1048
tp1049
Rp1050
aF0.08940696716308594
aI188
aS'kernel = 1 degree'
p1051
ag4
(g8
S'\xda\xa8\xefl\xd4w\xee?'
p1052
tp1053
Rp1054
ag4
(g8
S'\x17\xe7\xa1cxq\xee?'
p1055
tp1056
Rp1057
aF0.09547591209411621
aI188
aS'kernel = 1 degree'
p1058
ag4
(g8
S'\xb9\x82\x98\\AL\xee?'
p1059
tp1060
Rp1061
ag4
(g8
S'\r\xe55\x94\xd7P\xee?'
p1062
tp1063
Rp1064
aF0.03762197494506836
aI188
aS'kernel = 1 degree'
p1065
aa(lp1066
g4
(g8
S'\x1b\xf5\x9d\x8d\xfa\xce\xee?'
p1067
tp1068
Rp1069
ag4
(g8
S'\\\x9c\xd6l\x9f\xa8\xee?'
p1070
tp1071
Rp1072
aF0.08214092254638672
aI188
aS'kernel = 1 degree'
p1073
ag4
(g8
S'W\x10\x93+\x88\xc9\xed?'
p1074
tp1075
Rp1076
ag4
(g8
S'{\x1d\xa9\xd7\x91z\xed?'
p1077
tp1078
Rp1079
aF0.06547999382019043
aI188
aS'kernel = 1 degree'
p1080
ag4
(g8
S'6\xea;\x1b\xf5\x9d\xed?'
p1081
tp1082
Rp1083
ag4
(g8
S']]]]]]\xed?'
p1084
tp1085
Rp1086
aF0.06524491310119629
aI188
aS'kernel = 1 degree'
p1087
aa(lp1088
g4
(g8
S'x6\xea;\x1b\xf5\xed?'
p1089
tp1090
Rp1091
ag4
(g8
S'\xaa\xdfsK\x9c\xfa\xed?'
p1092
tp1093
Rp1094
aF0.0658559799194336
aI188
aS'kernel = 1 degree'
p1095
ag4
(g8
S'x6\xea;\x1b\xf5\xed?'
p1096
tp1097
Rp1098
ag4
(g8
S'\x00\x00\x00\x00\x00\x00\xee?'
p1099
tp1100
Rp1101
aF0.06708812713623047
aI188
aS'kernel = 1 degree'
p1102
ag4
(g8
S']AL\xae &\xef?'
p1103
tp1104
Rp1105
ag4
(g8
S'%\x87\xb8\xca\x140\xef?'
p1106
tp1107
Rp1108
aF0.032238006591796875
aI188
aS'kernel = 1 degree'
p1109
aas.