(dp0
S'segment'
p1
(lp2
(lp3
cnumpy.core.multiarray
scalar
p4
(cnumpy
dtype
p5
(S'f8'
p6
I0
I1
tp7
Rp8
(I3
S'<'
p9
NNNI-1
I-1
I0
tp10
bS'\xc0G\xcfV\xdee\xed?'
p11
tp12
Rp13
ag4
(g8
S'\x9e\xe3c\xa5\r\xcb\xec?'
p14
tp15
Rp16
aF0.15064001083374023
aI578
aS'kernel = 1 degree'
p17
ag4
(g8
S'\xc0G\xcfV\xdee\xed?'
p18
tp19
Rp20
ag4
(g8
S'H\x80\x0e\xf2*\xb9\xec?'
p21
tp22
Rp23
aF0.13823413848876953
aI578
aS'kernel = 1 degree'
p24
ag4
(g8
S'N\xa8\x02]\xb7\x11\xec?'
p25
tp26
Rp27
ag4
(g8
S'\xbdk\x9a\xa1gr\xeb?'
p28
tp29
Rp30
aF0.09544706344604492
aI578
aS'kernel = 1 degree'
p31
aa(lp32
g4
(g8
S'\x16\x07\xf8\xe8\xd9\xca\xeb?'
p33
tp34
Rp35
ag4
(g8
S'd\x1f`\x86KW\xeb?'
p36
tp37
Rp38
aF0.06135296821594238
aI578
aS'kernel = 1 degree'
p39
ag4
(g8
S'Sbq\x80\x8f\x9e\xed?'
p40
tp41
Rp42
ag4
(g8
S'\xef\x84\x00\x1b|5\xed?'
p43
tp44
Rp45
aF0.05697298049926758
aI578
aS'kernel = 1 degree'
p46
ag4
(g8
S'w:\xfe\xc1\x85I\xed?'
p47
tp48
Rp49
ag4
(g8
S'\x81\x17JS\xc9\xde\xec?'
p50
tp51
Rp52
aF0.052842140197753906
aI578
aS'kernel = 1 degree'
p53
aa(lp54
g4
(g8
S'\xd5\x10M\x89\xc5\x01\xee?'
p55
tp56
Rp57
ag4
(g8
S')\xe1\x8d\xa6\xce\xaf\xed?'
p58
tp59
Rp60
aF0.061337947845458984
aI578
aS'kernel = 1 degree'
p61
ag4
(g8
S'\xcfV\xdee\xedt\xec?'
p62
tp63
Rp64
ag4
(g8
S'\xfcC\xc0\xfbC\xc0\xeb?'
p65
tp66
Rp67
aF0.05662894248962402
aI578
aS'kernel = 1 degree'
p68
ag4
(g8
S'+\xd0u\x1b\xc1f\xec?'
p69
tp70
Rp71
ag4
(g8
S'\x99@\xef\xd4\xb5\x1c\xec?'
p72
tp73
Rp74
aF0.05173087120056152
aI578
aS'kernel = 1 degree'
p75
aa(lp76
g4
(g8
S'\x9a\x12\x8b\x03|\xf4\xec?'
p77
tp78
Rp79
ag4
(g8
S'\xec\xfca\xfb\x12y\xec?'
p80
tp81
Rp82
aF0.03548789024353027
aI578
aS'kernel = 1 degree'
p83
ag4
(g8
S'------\xed?'
p84
tp85
Rp86
ag4
(g8
S'\x962\tv\x15\xbe\xec?'
p87
tp88
Rp89
aF0.03238081932067871
aI578
aS'kernel = 1 degree'
p90
ag4
(g8
S'\x88\xa6\xc4\xe2\x00\x1f\xed?'
p91
tp92
Rp93
ag4
(g8
S'\xa5\x94RJ)\xa5\xec?'
p94
tp95
Rp96
aF0.030807971954345703
aI578
aS'kernel = 1 degree'
p97
aa(lp98
g4
(g8
S'\x8b\x03|\xf4l\xe5\xed?'
p99
tp100
Rp101
ag4
(g8
S'8QyZ\xe8\x8e\xed?'
p102
tp103
Rp104
aF0.12066102027893066
aI578
aS'kernel = 1 degree'
p105
ag4
(g8
S'\xe4\x1f\\\x98\xd4\x10\xed?'
p106
tp107
Rp108
ag4
(g8
S'\xe8\xb1\xd8s\xe0\x92\xec?'
p109
tp110
Rp111
aF0.09915900230407715
aI578
aS'kernel = 1 degree'
p112
ag4
(g8
S'\x19d\xaf\xfaE\x91\xec?'
p113
tp114
Rp115
ag4
(g8
S'\xbd\xbf1\xb0\xda\xfb\xeb?'
p116
tp117
Rp118
aF0.05175185203552246
aI578
aS'kernel = 1 degree'
p119
aa(lp120
g4
(g8
S'\x16\x07\xf8\xe8\xd9\xca\xeb?'
p121
tp122
Rp123
ag4
(g8
S'\xbcD\xbbD\xbbD\xeb?'
p124
tp125
Rp126
aF0.11211705207824707
aI578
aS'kernel = 1 degree'
p127
ag4
(g8
S'w:\xfe\xc1\x85I\xed?'
p128
tp129
Rp130
ag4
(g8
S'\xe7\xce\x9d;w\xee\xec?'
p131
tp132
Rp133
aF0.1086890697479248
aI578
aS'kernel = 1 degree'
p134
ag4
(g8
S'\x97\xb5\xd3\xf1\x0f.\xec?'
p135
tp136
Rp137
ag4
(g8
S'\x8dKxZn\xb6\xeb?'
p138
tp139
Rp140
aF0.05119204521179199
aI578
aS'kernel = 1 degree'
p141
aa(lp142
g4
(g8
S'Q\x05\xban#\xd8\xec?'
p143
tp144
Rp145
ag4
(g8
S'\x9e\x1c.\x03>9\xec?'
p146
tp147
Rp148
aF0.09666681289672852
aI578
aS'kernel = 1 degree'
p149
ag4
(g8
S'\xe6|\x13\xaa@\xd7\xed?'
p150
tp151
Rp152
ag4
(g8
S'\x1c\x8e)U\xbe\x7f\xed?'
p153
tp154
Rp155
aF0.10485482215881348
aI578
aS'kernel = 1 degree'
p156
ag4
(g8
S'\xac~Q$\xf7\xc9\xec?'
p157
tp158
Rp159
ag4
(g8
S'B\x08!\x84\x10B\xec?'
p160
tp161
Rp162
aF0.11261796951293945
aI578
aS'kernel = 1 degree'
p163
aa(lp164
g4
(g8
S'\x9doB\x15\xe8\xba\xed?'
p165
tp166
Rp167
ag4
(g8
S'\x11 Z\x13\x93*\xed?'
p168
tp169
Rp170
aF0.06037092208862305
aI578
aS'kernel = 1 degree'
p171
ag4
(g8
S'------\xed?'
p172
tp173
Rp174
ag4
(g8
S'\x9e\xa2\x853 \x94\xec?'
p175
tp176
Rp177
aF0.10460686683654785
aI578
aS'kernel = 1 degree'
p178
ag4
(g8
S'\xd2\xb3\x95wY;\xed?'
p179
tp180
Rp181
ag4
(g8
S'\xae%r\x7fk\x89\xec?'
p182
tp183
Rp184
aF0.08619308471679688
aI578
aS'kernel = 1 degree'
p185
aa(lp186
g4
(g8
S'\x19d\xaf\xfaE\x91\xec?'
p187
tp188
Rp189
ag4
(g8
S'\xb2\x96\xa1\x03v{\xec?'
p190
tp191
Rp192
aF0.1325681209564209
aI578
aS'kernel = 1 degree'
p193
ag4
(g8
S'h+\xef\xb2v:\xee?'
p194
tp195
Rp196
ag4
(g8
S'\xfd\xfd\xfd\xfd\xfd\xfd\xed?'
p197
tp198
Rp199
aF0.11852884292602539
aI578
aS'kernel = 1 degree'
p200
ag4
(g8
S'\x9a\x12\x8b\x03|\xf4\xec?'
p201
tp202
Rp203
ag4
(g8
S'\x89\x02\x93N\xcd\x83\xec?'
p204
tp205
Rp206
aF0.07272601127624512
aI578
aS'kernel = 1 degree'
p207
aa(lp208
g4
(g8
S'------\xed?'
p209
tp210
Rp211
ag4
(g8
S'\xb7\xc9%\xd9h\x9b\xec?'
p212
tp213
Rp214
aF0.10866498947143555
aI578
aS'kernel = 1 degree'
p215
ag4
(g8
S'\x02>z\xb6\xf2.\xeb?'
p216
tp217
Rp218
ag4
(g8
S'\x89\xb9\xa2w\xb4|\xea?'
p219
tp220
Rp221
aF0.08152914047241211
aI578
aS'kernel = 1 degree'
p222
ag4
(g8
S'B\xf6\xaa_\x14\xc9\xed?'
p223
tp224
Rp225
ag4
(g8
S'\xd3\x9b\xde\xf4\xa67\xed?'
p226
tp227
Rp228
aF0.05633401870727539
aI578
aS'kernel = 1 degree'
p229
aa(lp230
g4
(g8
S'\x07\xf8\xe8\xd9\xca\xbb\xec?'
p231
tp232
Rp233
ag4
(g8
S'G\xad\x9a\xcc\xdac\xec?'
p234
tp235
Rp236
aF0.0933828353881836
aI578
aS'kernel = 1 degree'
p237
ag4
(g8
S'------\xed?'
p238
tp239
Rp240
ag4
(g8
S'\xe6\xcc\x993g\xce\xec?'
p241
tp242
Rp243
aF0.08145689964294434
aI578
aS'kernel = 1 degree'
p244
ag4
(g8
S'+\xd0u\x1b\xc1f\xec?'
p245
tp246
Rp247
ag4
(g8
S'.BE\xe3\xe7\xd4\xeb?'
p248
tp249
Rp250
aF0.09335494041442871
aI578
aS'kernel = 1 degree'
p251
aa(lp252
g4
(g8
S'+\xd0u\x1b\xc1f\xec?'
p253
tp254
Rp255
ag4
(g8
S'\xd0\xba\xc1\x14\xf9\xac\xeb?'
p256
tp257
Rp258
aF0.035989999771118164
aI578
aS'kernel = 1 degree'
p259
ag4
(g8
S'\x9a\x12\x8b\x03|\xf4\xec?'
p260
tp261
Rp262
ag4
(g8
S'I\xbf\xce)\t\x10\xec?'
p263
tp264
Rp265
aF0.03748297691345215
aI578
aS'kernel = 1 degree'
p266
ag4
(g8
S'\x16\x07\xf8\xe8\xd9\xca\xeb?'
p267
tp268
Rp269
ag4
(g8
S'\\\xa89\t\xc4\x85\xea?'
p270
tp271
Rp272
aF0.05855512619018555
aI578
aS'kernel = 1 degree'
p273
aa(lp274
g4
(g8
S'\x19d\xaf\xfaE\x91\xec?'
p275
tp276
Rp277
ag4
(g8
S'6\xad\xf2\xc5\xf0O\xec?'
p278
tp279
Rp280
aF0.08055996894836426
aI578
aS'kernel = 1 degree'
p281
ag4
(g8
S'\x19d\xaf\xfaE\x91\xec?'
p282
tp283
Rp284
ag4
(g8
S'\xc4y#q\xdeH\xec?'
p285
tp286
Rp287
aF0.04881405830383301
aI578
aS'kernel = 1 degree'
p288
ag4
(g8
S'bq\x80\x8f\x9e\xad\xec?'
p289
tp290
Rp291
ag4
(g8
S'\xe64\xb8\xf3"u\xec?'
p292
tp293
Rp294
aF0.031148195266723633
aI578
aS'kernel = 1 degree'
p295
aa(lp296
g4
(g8
S'\xc0G\xcfV\xdee\xed?'
p297
tp298
Rp299
ag4
(g8
S'\x8bb\tJ\xd6\xef\xec?'
p300
tp301
Rp302
aF0.06273412704467773
aI578
aS'kernel = 1 degree'
p303
ag4
(g8
S'\xd2\xb3\x95wY;\xed?'
p304
tp305
Rp306
ag4
(g8
S'b\x1dm\xde\xa7\xb8\xec?'
p307
tp308
Rp309
aF0.04067587852478027
aI578
aS'kernel = 1 degree'
p310
ag4
(g8
S'\x19d\xaf\xfaE\x91\xec?'
p311
tp312
Rp313
ag4
(g8
S'-\xbc\xc2+\xbc\xc2\xeb?'
p314
tp315
Rp316
aF0.032369136810302734
aI578
aS'kernel = 1 degree'
p317
aa(lp318
g4
(g8
S'e\xce7\xa1\nt\xed?'
p319
tp320
Rp321
ag4
(g8
S'FQ\x14EQ\x14\xed?'
p322
tp323
Rp324
aF0.03665304183959961
aI578
aS'kernel = 1 degree'
p325
ag4
(g8
S'\xf0\xd1\xb3\x95wY\xeb?'
p326
tp327
Rp328
ag4
(g8
S'\x0f\x0f\x0f\x0f\x0f\x0f\xeb?'
p329
tp330
Rp331
aF0.06087493896484375
aI578
aS'kernel = 1 degree'
p332
ag4
(g8
S'\x07\xf8\xe8\xd9\xca\xbb\xec?'
p333
tp334
Rp335
ag4
(g8
S"\xe4\xc4\x89\x13'N\xec?"
p336
tp337
Rp338
aF0.06074714660644531
aI578
aS'kernel = 1 degree'
p339
aa(lp340
g4
(g8
S'\x8dA\xf6\xaa_\x14\xe9?'
p341
tp342
Rp343
ag4
(g8
S'\x18W?\xe8\xa8\xc0\xe7?'
p344
tp345
Rp346
aF0.06684112548828125
aI578
aS'kernel = 1 degree'
p347
ag4
(g8
S'\xe1\xc2\xa4\x86hJ\xec?'
p348
tp349
Rp350
ag4
(g8
S'\x16y\xcbp\x8c^\xeb?'
p351
tp352
Rp353
aF0.07285690307617188
aI578
aS'kernel = 1 degree'
p354
ag4
(g8
S'\xbe\xea\x17Er\x9f\xec?'
p355
tp356
Rp357
ag4
(g8
S'x);[\xb5\xc8\xeb?'
p358
tp359
Rp360
aF0.05519509315490723
aI578
aS'kernel = 1 degree'
p361
aa(lp362
g4
(g8
S'\xc0G\xcfV\xdee\xed?'
p363
tp364
Rp365
ag4
(g8
S'\x8bb\tJ\xd6\xef\xec?'
p366
tp367
Rp368
aF0.06994295120239258
aI578
aS'kernel = 1 degree'
p369
ag4
(g8
S'B\xf6\xaa_\x14\xc9\xed?'
p370
tp371
Rp372
ag4
(g8
S'\x8b\xd6\x17\x1f\xaeh\xed?'
p373
tp374
Rp375
aF0.05909395217895508
aI578
aS'kernel = 1 degree'
p376
ag4
(g8
S'+\xd0u\x1b\xc1f\xec?'
p377
tp378
Rp379
ag4
(g8
S'r\x83X\x93\x8e\xb1\xeb?'
p380
tp381
Rp382
aF0.030586957931518555
aI578
aS'kernel = 1 degree'
p383
aa(lp384
g4
(g8
S'\xf3.k\xa7\xe3\x1f\xec?'
p385
tp386
Rp387
ag4
(g8
S'\xf5\xd1j\x12\xa2\xf8\xeb?'
p388
tp389
Rp390
aF0.05421304702758789
aI578
aS'kernel = 1 degree'
p391
ag4
(g8
S'\xe6|\x13\xaa@\xd7\xed?'
p392
tp393
Rp394
ag4
(g8
S'a\xcd\x12\xe3S\xa6\xed?'
p395
tp396
Rp397
aF0.06117606163024902
aI578
aS'kernel = 1 degree'
p398
ag4
(g8
S'\xe1\xc2\xa4\x86hJ\xec?'
p399
tp400
Rp401
ag4
(g8
S'^;\xb9\x0e\xb3\x05\xec?'
p402
tp403
Rp404
aF0.05367112159729004
aI578
aS'kernel = 1 degree'
p405
aa(lp406
g4
(g8
S'------\xed?'
p407
tp408
Rp409
ag4
(g8
S'\xd8\xa6@\x8c\x19\xad\xec?'
p410
tp411
Rp412
aF0.06299996376037598
aI578
aS'kernel = 1 degree'
p413
ag4
(g8
S'\x8b\x03|\xf4l\xe5\xed?'
p414
tp415
Rp416
ag4
(g8
S'eY\x96eY\x96\xed?'
p417
tp418
Rp419
aF0.06231117248535156
aI578
aS'kernel = 1 degree'
p420
ag4
(g8
S'\x1b\xc1f\x0c\xb2W\xed?'
p421
tp422
Rp423
ag4
(g8
S'\xf6\x86\x9eT_\xc9\xec?'
p424
tp425
Rp426
aF0.05701780319213867
aI578
aS'kernel = 1 degree'
p427
aa(lp428
g4
(g8
S'\xaf\xdb\x086c\x90\xed?'
p429
tp430
Rp431
ag4
(g8
S'\x0f\x03g\xe1\xf91\xed?'
p432
tp433
Rp434
aF0.04401421546936035
aI578
aS'kernel = 1 degree'
p435
ag4
(g8
S'\nU\xa0\xeb6\x82\xed?'
p436
tp437
Rp438
ag4
(g8
S'\xdd\xdc\xdc\xdc\xdc\xdc\xec?'
p439
tp440
Rp441
aF0.040860891342163086
aI578
aS'kernel = 1 degree'
p442
ag4
(g8
S'\xe4\x1f\\\x98\xd4\x10\xed?'
p443
tp444
Rp445
ag4
(g8
S'\x96\xc7\xa9\xe1Xy\xec?'
p446
tp447
Rp448
aF0.05452704429626465
aI578
aS'kernel = 1 degree'
p449
aa(lp450
g4
(g8
S'e\xce7\xa1\nt\xed?'
p451
tp452
Rp453
ag4
(g8
S'u\x93\x18\x04V\x0e\xed?'
p454
tp455
Rp456
aF0.06519508361816406
aI578
aS'kernel = 1 degree'
p457
ag4
(g8
S'e\xce7\xa1\nt\xed?'
p458
tp459
Rp460
ag4
(g8
S'\xa8Tw\xb1V\x11\xed?'
p461
tp462
Rp463
aF0.07007217407226562
aI578
aS'kernel = 1 degree'
p464
ag4
(g8
S'\xac~Q$\xf7\xc9\xec?'
p465
tp466
Rp467
ag4
(g8
S'\xe4Fn\xe4Fn\xec?'
p468
tp469
Rp470
aF0.0373690128326416
aI578
aS'kernel = 1 degree'
p471
aa(lp472
g4
(g8
S'e\xce7\xa1\nt\xed?'
p473
tp474
Rp475
ag4
(g8
S'\xa8Tw\xb1V\x11\xed?'
p476
tp477
Rp478
aF0.06631922721862793
aI578
aS'kernel = 1 degree'
p479
ag4
(g8
S'\x9doB\x15\xe8\xba\xed?'
p480
tp481
Rp482
ag4
(g8
S'\x9e\x1eN\xfczK\xed?'
p483
tp484
Rp485
aF0.060420989990234375
aI578
aS'kernel = 1 degree'
p486
ag4
(g8
S'\xf8\xe8\xd9\xca\xbb\xac\xed?'
p487
tp488
Rp489
ag4
(g8
S'j~X\xa4\x0c<\xed?'
p490
tp491
Rp492
aF0.05534696578979492
aI578
aS'kernel = 1 degree'
p493
aa(lp494
g4
(g8
S'Q\x05\xban#\xd8\xec?'
p495
tp496
Rp497
ag4
(g8
S'\x9e\x1c.\x03>9\xec?'
p498
tp499
Rp500
aF0.06287288665771484
aI578
aS'kernel = 1 degree'
p501
ag4
(g8
S'\x80\x8f\x9e\xad\xbc\xcb\xea?'
p502
tp503
Rp504
ag4
(g8
S'\xda%\xda%\xda%\xea?'
p505
tp506
Rp507
aF0.06045722961425781
aI578
aS'kernel = 1 degree'
p508
ag4
(g8
S'q\x80\x8f\x9e\xad\xbc\xeb?'
p509
tp510
Rp511
ag4
(g8
S'\x03\xaa\xf6:HE\xeb?'
p512
tp513
Rp514
aF0.05346107482910156
aI578
aS'kernel = 1 degree'
p515
aa(lp516
g4
(g8
S'\xd2\xb3\x95wY;\xed?'
p517
tp518
Rp519
ag4
(g8
S'H\xc5\xdc\xea\x8cT\xec?'
p520
tp521
Rp522
aF0.06447386741638184
aI578
aS'kernel = 1 degree'
p523
ag4
(g8
S'Sbq\x80\x8f\x9e\xed?'
p524
tp525
Rp526
ag4
(g8
S'\xf3\x1c/\xcf\xf1\xf2\xec?'
p527
tp528
Rp529
aF0.05890083312988281
aI578
aS'kernel = 1 degree'
p530
ag4
(g8
S'B\xf6\xaa_\x14\xc9\xed?'
p531
tp532
Rp533
ag4
(g8
S"}\xd2'}\xd2'\xed?"
p534
tp535
Rp536
aF0.0398249626159668
aI578
aS'kernel = 1 degree'
p537
aa(lp538
g4
(g8
S'\x07\xf8\xe8\xd9\xca\xbb\xec?'
p539
tp540
Rp541
ag4
(g8
S'\x85\xf1\xa3m\x94/\xec?'
p542
tp543
Rp544
aF0.05723404884338379
aI578
aS'kernel = 1 degree'
p545
ag4
(g8
S'\x9a\x12\x8b\x03|\xf4\xec?'
p546
tp547
Rp548
ag4
(g8
S'$\xebw\xce\\j\xec?'
p549
tp550
Rp551
aF0.05714607238769531
aI578
aS'kernel = 1 degree'
p552
ag4
(g8
S'\x1b\xc1f\x0c\xb2W\xed?'
p553
tp554
Rp555
ag4
(g8
S'\xff\xff\xff\xff\xff\xff\xec?'
p556
tp557
Rp558
aF0.05154705047607422
aI578
aS'kernel = 1 degree'
p559
aa(lp560
g4
(g8
S'0\x8a\xe4>\x99\xf3\xed?'
p561
tp562
Rp563
ag4
(g8
S'\x92\xd2J\x0c7\x87\xed?'
p564
tp565
Rp566
aF0.060975074768066406
aI578
aS'kernel = 1 degree'
p567
ag4
(g8
S'\x19d\xaf\xfaE\x91\xec?'
p568
tp569
Rp570
ag4
(g8
S'6g"\xb6<\x14\xec?'
p571
tp572
Rp573
aF0.04114484786987305
aI578
aS'kernel = 1 degree'
p574
ag4
(g8
S'B\xf6\xaa_\x14\xc9\xed?'
p575
tp576
Rp577
ag4
(g8
S'\xf5\x9d\x8d\xfa\xceF\xed?'
p578
tp579
Rp580
aF0.055647850036621094
aI578
aS'kernel = 1 degree'
p581
aa(lp582
g4
(g8
S'\xcfV\xdee\xedt\xec?'
p583
tp584
Rp585
ag4
(g8
S'<<<<<<\xec?'
p586
tp587
Rp588
aF0.06813597679138184
aI578
aS'kernel = 1 degree'
p589
ag4
(g8
S'e\xce7\xa1\nt\xed?'
p590
tp591
Rp592
ag4
(g8
S'\t!\x84\x10B\x08\xed?'
p593
tp594
Rp595
aF0.04246401786804199
aI578
aS'kernel = 1 degree'
p596
ag4
(g8
S'\x83\xecU\xbf(\x92\xeb?'
p597
tp598
Rp599
ag4
(g8
S';\xb1\x13;\xb1\x13\xeb?'
p600
tp601
Rp602
aF0.05835294723510742
aI578
aS'kernel = 1 degree'
p603
aa(lp604
g4
(g8
S'\xc0G\xcfV\xdee\xed?'
p605
tp606
Rp607
ag4
(g8
S'\x9e\xe3c\xa5\r\xcb\xec?'
p608
tp609
Rp610
aF0.06303095817565918
aI578
aS'kernel = 1 degree'
p611
ag4
(g8
S'\xf3.k\xa7\xe3\x1f\xec?'
p612
tp613
Rp614
ag4
(g8
S't\xb7i\xb60w\xeb?'
p615
tp616
Rp617
aF0.044296979904174805
aI578
aS'kernel = 1 degree'
p618
ag4
(g8
S'\xbe\xea\x17Er\x9f\xec?'
p619
tp620
Rp621
ag4
(g8
S'\xcd\x9b\xd5\xbcY\xcd\xeb?'
p622
tp623
Rp624
aF0.03219199180603027
aI578
aS'kernel = 1 degree'
p625
aa(lp626
g4
(g8
S'\x88\xa6\xc4\xe2\x00\x1f\xed?'
p627
tp628
Rp629
ag4
(g8
S'\xe2\xa05g"\xb6\xec?'
p630
tp631
Rp632
aF0.06318497657775879
aI578
aS'kernel = 1 degree'
p633
ag4
(g8
S'------\xed?'
p634
tp635
Rp636
ag4
(g8
S'\xb7\xc9%\xd9h\x9b\xec?'
p637
tp638
Rp639
aF0.0591731071472168
aI578
aS'kernel = 1 degree'
p640
ag4
(g8
S'\xe4\x1f\\\x98\xd4\x10\xed?'
p641
tp642
Rp643
ag4
(g8
S'\x0f^\xb0\n\x94u\xec?'
p644
tp645
Rp646
aF0.05673789978027344
aI578
aS'kernel = 1 degree'
p647
aa(lp648
g4
(g8
S']\xb7\x11l\xc6 \xeb?'
p649
tp650
Rp651
ag4
(g8
S'zzzzzz\xea?'
p652
tp653
Rp654
aF0.06434202194213867
aI578
aS'kernel = 1 degree'
p655
ag4
(g8
S'\xf8\xe8\xd9\xca\xbb\xac\xed?'
p656
tp657
Rp658
ag4
(g8
S'\x17\xb6\nj30\xed?'
p659
tp660
Rp661
aF0.05834007263183594
aI578
aS'kernel = 1 degree'
p662
ag4
(g8
S'\xd2\xb3\x95wY;\xed?'
p663
tp664
Rp665
ag4
(g8
S'\x96\xcc\xcf\xa2\x18\xa7\xec?'
p666
tp667
Rp668
aF0.05045008659362793
aI578
aS'kernel = 1 degree'
p669
aa(lp670
g4
(g8
S'\xd2\xb3\x95wY;\xed?'
p671
tp672
Rp673
ag4
(g8
S'\xfa\x8dmF\xad\x81\xec?'
p674
tp675
Rp676
aF0.06425094604492188
aI578
aS'kernel = 1 degree'
p677
ag4
(g8
S'\nU\xa0\xeb6\x82\xed?'
p678
tp679
Rp680
ag4
(g8
S'ma,^\xa2\xf4\xec?'
p681
tp682
Rp683
aF0.05897808074951172
aI578
aS'kernel = 1 degree'
p684
ag4
(g8
S'+\xd0u\x1b\xc1f\xec?'
p685
tp686
Rp687
ag4
(g8
S'\x14\xa2\xfa\x91\xb0\xa3\xeb?'
p688
tp689
Rp690
aF0.051325082778930664
aI578
aS'kernel = 1 degree'
p691
aa(lp692
g4
(g8
S'\x83\xecU\xbf(\x92\xeb?'
p693
tp694
Rp695
ag4
(g8
S"'\x9bl\xb2\xc9&\xeb?"
p696
tp697
Rp698
aF0.07373213768005371
aI578
aS'kernel = 1 degree'
p699
ag4
(g8
S'<<<<<<\xec?'
p700
tp701
Rp702
ag4
(g8
S'\xec\xba\xae\xeb\xba\xae\xeb?'
p703
tp704
Rp705
aF0.058441162109375
aI578
aS'kernel = 1 degree'
p706
ag4
(g8
S'\x07\xf8\xe8\xd9\xca\xbb\xec?'
p707
tp708
Rp709
ag4
(g8
S'\xbb\x7f47*\x02\xec?'
p710
tp711
Rp712
aF0.054440975189208984
aI578
aS'kernel = 1 degree'
p713
aa(lp714
g4
(g8
S'\xca\x9coB\x15\xe8\xea?'
p715
tp716
Rp717
ag4
(g8
S'@s\x1a\xdcy\x91\xea?'
p718
tp719
Rp720
aF0.06415891647338867
aI578
aS'kernel = 1 degree'
p721
ag4
(g8
S'\x1b\xc1f\x0c\xb2W\xed?'
p722
tp723
Rp724
ag4
(g8
S'\xae\x08\x1aN\xea\xbe\xec?'
p725
tp726
Rp727
aF0.0821380615234375
aI578
aS'kernel = 1 degree'
p728
ag4
(g8
S'\x9a\x12\x8b\x03|\xf4\xec?'
p729
tp730
Rp731
ag4
(g8
S'\xea\x82#\xdf)[\xec?'
p732
tp733
Rp734
aF0.05226492881774902
aI578
aS'kernel = 1 degree'
p735
aa(lp736
g4
(g8
S'e\xce7\xa1\nt\xed?'
p737
tp738
Rp739
ag4
(g8
S'\xa8Tw\xb1V\x11\xed?'
p740
tp741
Rp742
aF0.06464600563049316
aI578
aS'kernel = 1 degree'
p743
ag4
(g8
S'B\xf6\xaa_\x14\xc9\xed?'
p744
tp745
Rp746
ag4
(g8
S'}*X}*X\xed?'
p747
tp748
Rp749
aF0.06404685974121094
aI578
aS'kernel = 1 degree'
p750
ag4
(g8
S'\xe1\xc2\xa4\x86hJ\xec?'
p751
tp752
Rp753
ag4
(g8
S'\x97\xf7o\x1d\xf8\x98\xeb?'
p754
tp755
Rp756
aF0.05365395545959473
aI578
aS'kernel = 1 degree'
p757
aa(lp758
g4
(g8
S']\xb7\x11l\xc6 \xeb?'
p759
tp760
Rp761
ag4
(g8
S'zzzzzz\xea?'
p762
tp763
Rp764
aF0.06051492691040039
aI578
aS'kernel = 1 degree'
p765
ag4
(g8
S'\x88\xa6\xc4\xe2\x00\x1f\xed?'
p766
tp767
Rp768
ag4
(g8
S'\xf8n\xe3\t\xdfm\xec?'
p769
tp770
Rp771
aF0.055512189865112305
aI578
aS'kernel = 1 degree'
p772
ag4
(g8
S'\x88\xa6\xc4\xe2\x00\x1f\xed?'
p773
tp774
Rp775
ag4
(g8
S'\xaca\xe9E\x9c\xa8\xec?'
p776
tp777
Rp778
aF0.059084177017211914
aI578
aS'kernel = 1 degree'
p779
aa(lp780
g4
(g8
S'\nU\xa0\xeb6\x82\xed?'
p781
tp782
Rp783
ag4
(g8
S'\xcba\x0es\x98\xc3\xec?'
p784
tp785
Rp786
aF0.06285595893859863
aI578
aS'kernel = 1 degree'
p787
ag4
(g8
S'------\xed?'
p788
tp789
Rp790
ag4
(g8
S'\xcfW\xe6l\x81]\xec?'
p791
tp792
Rp793
aF0.06326699256896973
aI578
aS'kernel = 1 degree'
p794
ag4
(g8
S'\x88\xa6\xc4\xe2\x00\x1f\xed?'
p795
tp796
Rp797
ag4
(g8
S'7\xc3\xdb\x0co3\xec?'
p798
tp799
Rp800
aF0.05547690391540527
aI578
aS'kernel = 1 degree'
p801
aa(lp802
g4
(g8
S'?\x99\xf3M\xa8\x02\xed?'
p803
tp804
Rp805
ag4
(g8
S'&\x93\xc9d2\x99\xec?'
p806
tp807
Rp808
aF0.0654439926147461
aI578
aS'kernel = 1 degree'
p809
ag4
(g8
S'\x9doB\x15\xe8\xba\xed?'
p810
tp811
Rp812
ag4
(g8
S'\x08\x96y\xb2@$\xed?'
p813
tp814
Rp815
aF0.06031608581542969
aI578
aS'kernel = 1 degree'
p816
ag4
(g8
S'\xf5\x8b"\xb9O\xe6\xec?'
p817
tp818
Rp819
ag4
(g8
S'|;H|;H\xec?'
p820
tp821
Rp822
aF0.0567779541015625
aI578
aS'kernel = 1 degree'
p823
aa(lp824
g4
(g8
S'\xd5\x10M\x89\xc5\x01\xee?'
p825
tp826
Rp827
ag4
(g8
S')\xe1\x8d\xa6\xce\xaf\xed?'
p828
tp829
Rp830
aF0.050701141357421875
aI578
aS'kernel = 1 degree'
p831
ag4
(g8
S't\xddF\xb0\x19\x83\xec?'
p832
tp833
Rp834
ag4
(g8
S'\xee\x1b\xd6\xbea\xed\xeb?'
p835
tp836
Rp837
aF0.06610894203186035
aI578
aS'kernel = 1 degree'
p838
ag4
(g8
S'Q\x05\xban#\xd8\xec?'
p839
tp840
Rp841
ag4
(g8
S'\xc0\xeb\xe2\x17\xdaL\xec?'
p842
tp843
Rp844
aF0.05115795135498047
aI578
aS'kernel = 1 degree'
p845
aa(lp846
g4
(g8
S'\xa4g+\xef\xb2v\xea?'
p847
tp848
Rp849
ag4
(g8
S'\xd9\xfdF\xd9\xfdF\xe9?'
p850
tp851
Rp852
aF0.05997800827026367
aI578
aS'kernel = 1 degree'
p853
ag4
(g8
S'\x19d\xaf\xfaE\x91\xec?'
p854
tp855
Rp856
ag4
(g8
S'\xb8\xc2i\x87}+\xec?'
p857
tp858
Rp859
aF0.058672189712524414
aI578
aS'kernel = 1 degree'
p860
ag4
(g8
S'\x86I\r\xd1\x94X\xec?'
p861
tp862
Rp863
ag4
(g8
S'\x01\x00\x00\x00\x00\x00\xec?'
p864
tp865
Rp866
aF0.05211210250854492
aI578
aS'kernel = 1 degree'
p867
aa(lp868
g4
(g8
S'\x8dA\xf6\xaa_\x14\xe9?'
p869
tp870
Rp871
ag4
(g8
S'\x18W?\xe8\xa8\xc0\xe7?'
p872
tp873
Rp874
aF0.07994699478149414
aI578
aS'kernel = 1 degree'
p875
ag4
(g8
S'\xf8\xe8\xd9\xca\xbb\xac\xed?'
p876
tp877
Rp878
ag4
(g8
S'\\\xfa\xf6W&\n\xed?'
p879
tp880
Rp881
aF0.05945110321044922
aI578
aS'kernel = 1 degree'
p882
ag4
(g8
S'\xaf\xdb\x086c\x90\xed?'
p883
tp884
Rp885
ag4
(g8
S'\x91\xccC2\x0f\xc9\xec?'
p886
tp887
Rp888
aF0.05954098701477051
aI578
aS'kernel = 1 degree'
p889
aa(lp890
g4
(g8
S'\x8b\x03|\xf4l\xe5\xed?'
p891
tp892
Rp893
ag4
(g8
S'9QyZ\xe8\x8e\xed?'
p894
tp895
Rp896
aF0.06440496444702148
aI578
aS'kernel = 1 degree'
p897
ag4
(g8
S'\x9doB\x15\xe8\xba\xed?'
p898
tp899
Rp900
ag4
(g8
S'm\xf3L3"l\xed?'
p901
tp902
Rp903
aF0.05869102478027344
aI578
aS'kernel = 1 degree'
p904
ag4
(g8
S'\xe4\x1f\\\x98\xd4\x10\xed?'
p905
tp906
Rp907
ag4
(g8
S'_\xb7\\\x0ch\x96\xec?'
p908
tp909
Rp910
aF0.04422593116760254
aI578
aS'kernel = 1 degree'
p911
aa(lp912
g4
(g8
S'\x04\x9b1\xc8^\xf5\xeb?'
p913
tp914
Rp915
ag4
(g8
S'\x96ya6\x92Q\xeb?'
p916
tp917
Rp918
aF0.0628509521484375
aI578
aS'kernel = 1 degree'
p919
ag4
(g8
S'\x07\xf8\xe8\xd9\xca\xbb\xec?'
p920
tp921
Rp922
ag4
(g8
S'\xd68{\xa7oJ\xec?'
p923
tp924
Rp925
aF0.06728887557983398
aI578
aS'kernel = 1 degree'
p926
ag4
(g8
S'?\x99\xf3M\xa8\x02\xed?'
p927
tp928
Rp929
ag4
(g8
S'\xb4U\xe2b\xb6J\xec?'
p930
tp931
Rp932
aF0.06174516677856445
aI578
aS'kernel = 1 degree'
p933
aa(lp934
g4
(g8
S'\xd2\xb3\x95wY;\xed?'
p935
tp936
Rp937
ag4
(g8
S'H\xc5\xdc\xea\x8cT\xec?'
p938
tp939
Rp940
aF0.060214996337890625
aI578
aS'kernel = 1 degree'
p941
ag4
(g8
S'\xe1\xc2\xa4\x86hJ\xec?'
p942
tp943
Rp944
ag4
(g8
S'Iq\x04\xd8gY\xeb?'
p945
tp946
Rp947
aF0.05631899833679199
aI578
aS'kernel = 1 degree'
p948
ag4
(g8
S'\xcfV\xdee\xedt\xec?'
p949
tp950
Rp951
ag4
(g8
S'\xc9P\xd9a\xear\xeb?'
p952
tp953
Rp954
aF0.051666975021362305
aI578
aS'kernel = 1 degree'
p955
aa(lp956
g4
(g8
S'\x07\xf8\xe8\xd9\xca\xbb\xec?'
p957
tp958
Rp959
ag4
(g8
S'G\xad\x9a\xcc\xdac\xec?'
p960
tp961
Rp962
aF0.06402993202209473
aI578
aS'kernel = 1 degree'
p963
ag4
(g8
S'B\xf6\xaa_\x14\xc9\xed?'
p964
tp965
Rp966
ag4
(g8
S'^\xd7u]\xd7u\xed?'
p967
tp968
Rp969
aF0.04077506065368652
aI578
aS'kernel = 1 degree'
p970
ag4
(g8
S'w:\xfe\xc1\x85I\xed?'
p971
tp972
Rp973
ag4
(g8
S'\xc9\xa1\x88\xfd\x92\xfa\xec?'
p974
tp975
Rp976
aF0.05503988265991211
aI578
aS'kernel = 1 degree'
p977
aa(lp978
g4
(g8
S'?\x99\xf3M\xa8\x02\xed?'
p979
tp980
Rp981
ag4
(g8
S'&\x93\xc9d2\x99\xec?'
p982
tp983
Rp984
aF0.06358909606933594
aI578
aS'kernel = 1 degree'
p985
ag4
(g8
S'0\x8a\xe4>\x99\xf3\xed?'
p986
tp987
Rp988
ag4
(g8
S'G\x08\x10/\xab\x9b\xed?'
p989
tp990
Rp991
aF0.0661780834197998
aI578
aS'kernel = 1 degree'
p992
ag4
(g8
S'w:\xfe\xc1\x85I\xed?'
p993
tp994
Rp995
ag4
(g8
S'yX?\xef\x1f\xcb\xec?'
p996
tp997
Rp998
aF0.052500009536743164
aI578
aS'kernel = 1 degree'
p999
aa(lp1000
g4
(g8
S'\xc0G\xcfV\xdee\xed?'
p1001
tp1002
Rp1003
ag4
(g8
S'\x8bb\tJ\xd6\xef\xec?'
p1004
tp1005
Rp1006
aF0.06548404693603516
aI578
aS'kernel = 1 degree'
p1007
ag4
(g8
S'Sbq\x80\x8f\x9e\xed?'
p1008
tp1009
Rp1010
ag4
(g8
S'\xa3\x10\xd5\x8f\x84\x1d\xed?'
p1011
tp1012
Rp1013
aF0.06181216239929199
aI578
aS'kernel = 1 degree'
p1014
ag4
(g8
S'\x19d\xaf\xfaE\x91\xec?'
p1015
tp1016
Rp1017
ag4
(g8
S'-\xbc\xc2+\xbc\xc2\xeb?'
p1018
tp1019
Rp1020
aF0.061701059341430664
aI578
aS'kernel = 1 degree'
p1021
aa(lp1022
g4
(g8
S'\x88\xa6\xc4\xe2\x00\x1f\xed?'
p1023
tp1024
Rp1025
ag4
(g8
S'\xe2\xa05g"\xb6\xec?'
p1026
tp1027
Rp1028
aF0.050347089767456055
aI578
aS'kernel = 1 degree'
p1029
ag4
(g8
S'\xcfV\xdee\xedt\xec?'
p1030
tp1031
Rp1032
ag4
(g8
S'\x80\x95C\x8bl\xe7\xeb?'
p1033
tp1034
Rp1035
aF0.06413507461547852
aI578
aS'kernel = 1 degree'
p1036
ag4
(g8
S'\xc0G\xcfV\xdee\xed?'
p1037
tp1038
Rp1039
ag4
(g8
S'\xf8\xcd\x1d\xc8\x88\xdf\xec?'
p1040
tp1041
Rp1042
aF0.060144901275634766
aI578
aS'kernel = 1 degree'
p1043
aa(lp1044
g4
(g8
S'(s\xbe\tU\xa0\xeb?'
p1045
tp1046
Rp1047
ag4
(g8
S'#8\xcc\xba\x9e8\xeb?'
p1048
tp1049
Rp1050
aF0.07072591781616211
aI578
aS'kernel = 1 degree'
p1051
ag4
(g8
S'\xd9\xab~Q$\xf7\xe9?'
p1052
tp1053
Rp1054
ag4
(g8
S'\xbf\x85q\xcd\xe5\xbc\xe9?'
p1055
tp1056
Rp1057
aF0.05002903938293457
aI578
aS'kernel = 1 degree'
p1058
ag4
(g8
S'\x8b\x03|\xf4l\xe5\xed?'
p1059
tp1060
Rp1061
ag4
(g8
S'\xf9\xdb\x14\xa3\x86\xbf\xed?'
p1062
tp1063
Rp1064
aF0.05995678901672363
aI578
aS'kernel = 1 degree'
p1065
aa(lp1066
g4
(g8
S'q\x80\x8f\x9e\xad\xbc\xeb?'
p1067
tp1068
Rp1069
ag4
(g8
S'\xf5$\xa4~\xc1\xc4\xea?'
p1070
tp1071
Rp1072
aF0.0615839958190918
aI578
aS'kernel = 1 degree'
p1073
ag4
(g8
S'Q\x05\xban#\xd8\xec?'
p1074
tp1075
Rp1076
ag4
(g8
S'\x9c\xf8\xf5\x96:=\xec?'
p1077
tp1078
Rp1079
aF0.0621800422668457
aI578
aS'kernel = 1 degree'
p1080
ag4
(g8
S'+\xd0u\x1b\xc1f\xec?'
p1081
tp1082
Rp1083
ag4
(g8
S'd[5\xb6Uc\xeb?'
p1084
tp1085
Rp1086
aF0.051905155181884766
aI578
aS'kernel = 1 degree'
p1087
aa(lp1088
g4
(g8
S'\xca\x9coB\x15\xe8\xea?'
p1089
tp1090
Rp1091
ag4
(g8
S'@s\x1a\xdcy\x91\xea?'
p1092
tp1093
Rp1094
aF0.07694602012634277
aI578
aS'kernel = 1 degree'
p1095
ag4
(g8
S'\xc0G\xcfV\xdee\xed?'
p1096
tp1097
Rp1098
ag4
(g8
S'\x83\xc5E\xa8h\xfc\xec?'
p1099
tp1100
Rp1101
aF0.06600809097290039
aI578
aS'kernel = 1 degree'
p1102
ag4
(g8
S'\xaf\xdb\x086c\x90\xed?'
p1103
tp1104
Rp1105
ag4
(g8
S'O\xa7\xd3\xe9t:\xed?'
p1106
tp1107
Rp1108
aF0.05260109901428223
aI578
aS'kernel = 1 degree'
p1109
aas.