(dp0
S'heart'
p1
(lp2
(lp3
cnumpy.core.multiarray
scalar
p4
(cnumpy
dtype
p5
(S'f8'
p6
I0
I1
tp7
Rp8
(I3
S'<'
p9
NNNI-1
I-1
I0
tp10
bS'\xc2\x07\x1f|\xf0\xc1\xe7?'
p11
tp12
Rp13
ag4
(g8
S'Lg1\x9d\xc5t\xe6?'
p14
tp15
Rp16
aF0.047866106033325195
aI66
aS'kernel = 0 degree'
p17
ag4
(g8
S'\xba\xe8\xa2\x8b.\xba\xe8?'
p18
tp19
Rp20
ag4
(g8
S'E\x17]t\xd1E\xe7?'
p21
tp22
Rp23
aF0.05101299285888672
aI66
aS'kernel = 0 degree'
p24
ag4
(g8
S'\xc2\x07\x1f|\xf0\xc1\xe7?'
p25
tp26
Rp27
ag4
(g8
S'Lg1\x9d\xc5t\xe6?'
p28
tp29
Rp30
aF0.0594329833984375
aI66
aS'kernel = 0 degree'
p31
aa(lp32
g4
(g8
S'\xd1E\x17]t\xd1\xe5?'
p33
tp34
Rp35
ag4
(g8
S'\xca\x10\xac\xa3\xcd\xfb\xe4?'
p36
tp37
Rp38
aF0.0335538387298584
aI66
aS'kernel = 0 degree'
p39
ag4
(g8
S'N6\xd9d\x93M\xe6?'
p40
tp41
Rp42
ag4
(g8
S'N6\xd9d\x93M\xe6?'
p43
tp44
Rp45
aF0.04336404800415039
aI66
aS'kernel = 0 degree'
p46
ag4
(g8
S'F\x17]t\xd1E\xe7?'
p47
tp48
Rp49
ag4
(g8
S'W|\xc5W|\xc5\xe7?'
p50
tp51
Rp52
aF0.04126095771789551
aI66
aS'kernel = 0 degree'
p53
aa(lp54
g4
(g8
S'\xc2\x07\x1f|\xf0\xc1\xe7?'
p55
tp56
Rp57
ag4
(g8
S'Lg1\x9d\xc5t\xe6?'
p58
tp59
Rp60
aF0.03157806396484375
aI66
aS'kernel = 0 degree'
p61
ag4
(g8
S'F\x17]t\xd1E\xe7?'
p62
tp63
Rp64
ag4
(g8
S'm\xdb\xb6m\xdb\xb6\xe5?'
p65
tp66
Rp67
aF0.05228590965270996
aI66
aS'kernel = 0 degree'
p68
ag4
(g8
S']t\xd1E\x17]\xe4?'
p69
tp70
Rp71
ag4
(g8
S'\xb5\xb4\xb4\xb4\xb4\xb4\xe4?'
p72
tp73
Rp74
aF0.04990386962890625
aI66
aS'kernel = 1 degree'
p75
aa(lp76
g4
(g8
S'\xab\xaa\xaa\xaa\xaa\xaa\xea?'
p77
tp78
Rp79
ag4
(g8
S'[\xa9\x95Z\xa9\x95\xea?'
p80
tp81
Rp82
aF0.041049957275390625
aI66
aS'kernel = 0 degree'
p83
ag4
(g8
S'\xab\xaa\xaa\xaa\xaa\xaa\xea?'
p84
tp85
Rp86
ag4
(g8
S'{\xa0rv\x0b\xbf\xea?'
p87
tp88
Rp89
aF0.0440678596496582
aI66
aS'kernel = 0 degree'
p90
ag4
(g8
S'\xba\xe8\xa2\x8b.\xba\xe8?'
p91
tp92
Rp93
ag4
(g8
S'\x91\x85,d!\x0b\xe9?'
p94
tp95
Rp96
aF0.05970406532287598
aI66
aS'kernel = 1 degree'
p97
aa(lp98
g4
(g8
S'\xba\xe8\xa2\x8b.\xba\xe8?'
p99
tp100
Rp101
ag4
(g8
S'Dy\r\xe55\x94\xe7?'
p102
tp103
Rp104
aF0.036293983459472656
aI66
aS'kernel = 0 degree'
p105
ag4
(g8
S'/\xba\xe8\xa2\x8b.\xea?'
p106
tp107
Rp108
ag4
(g8
S'\xa8\x11\x96{\x1aa\xe9?'
p109
tp110
Rp111
aF0.04391002655029297
aI66
aS'kernel = 0 degree'
p112
ag4
(g8
S'\xab\xaa\xaa\xaa\xaa\xaa\xea?'
p113
tp114
Rp115
ag4
(g8
S'2\x9d\xc5t\x16\xd3\xe9?'
p116
tp117
Rp118
aF0.04375290870666504
aI66
aS'kernel = 0 degree'
p119
aa(lp120
g4
(g8
S'\xa3\x8b.\xba\xe8\xa2\xeb?'
p121
tp122
Rp123
ag4
(g8
S'\x9f\xe2\x92!XG\xeb?'
p124
tp125
Rp126
aF0.028352975845336914
aI66
aS'kernel = 0 degree'
p127
ag4
(g8
S"'\x9bl\xb2\xc9&\xeb?"
p128
tp129
Rp130
ag4
(g8
S'\xd7Zk\xad\xb5\xd6\xea?'
p131
tp132
Rp133
aF0.035327911376953125
aI66
aS'kernel = 0 degree'
p134
ag4
(g8
S'\xba\xe8\xa2\x8b.\xba\xe8?'
p135
tp136
Rp137
ag4
(g8
S'\xb2\x15A\xc3I\xdd\xe7?'
p138
tp139
Rp140
aF0.045896053314208984
aI66
aS'kernel = 0 degree'
p141
aa(lp142
g4
(g8
S'6\xd9d\x93M6\xe9?'
p143
tp144
Rp145
ag4
(g8
S'\x89\x88\x88\x88\x88\x88\xe8?'
p146
tp147
Rp148
aF0.03525996208190918
aI66
aS'kernel = 0 degree'
p149
ag4
(g8
S'\xb2\xc9&\x9bl\xb2\xe9?'
p150
tp151
Rp152
ag4
(g8
S':\x8b\xe9,\xa6\xb3\xe8?'
p153
tp154
Rp155
aF0.04419684410095215
aI66
aS'kernel = 0 degree'
p156
ag4
(g8
S'\xd1E\x17]t\xd1\xe5?'
p157
tp158
Rp159
ag4
(g8
S'UUUUUU\xe5?'
p160
tp161
Rp162
aF0.027311086654663086
aI66
aS'kernel = 0 degree'
p163
aa(lp164
g4
(g8
S'\xba\xe8\xa2\x8b.\xba\xe8?'
p165
tp166
Rp167
ag4
(g8
S'W\x10\x93+\x88\xc9\xe5?'
p168
tp169
Rp170
aF0.02954578399658203
aI66
aS'kernel = 0 degree'
p171
ag4
(g8
S'\xba\xe8\xa2\x8b.\xba\xe8?'
p172
tp173
Rp174
ag4
(g8
S'\x97\x96\x96\x96\x96\x96\xe6?'
p175
tp176
Rp177
aF0.041626930236816406
aI66
aS'kernel = 0 degree'
p178
ag4
(g8
S'N6\xd9d\x93M\xe6?'
p179
tp180
Rp181
ag4
(g8
S'!\x0bY\xc8B\x16\xe2?'
p182
tp183
Rp184
aF0.03757500648498535
aI66
aS'kernel = 0 degree'
p185
aa(lp186
g4
(g8
S'\xba\xe8\xa2\x8b.\xba\xe8?'
p187
tp188
Rp189
ag4
(g8
S'\xb4y\x9f\xe2\x92!\xe8?'
p190
tp191
Rp192
aF0.032430171966552734
aI66
aS'kernel = 0 degree'
p193
ag4
(g8
S'\xca&\x9bl\xb2\xc9\xe6?'
p194
tp195
Rp196
ag4
(g8
S'Wj\xa5Vj\xa5\xe6?'
p197
tp198
Rp199
aF0.031119108200073242
aI66
aS'kernel = 0 degree'
p200
ag4
(g8
S'\xca&\x9bl\xb2\xc9\xe6?'
p201
tp202
Rp203
ag4
(g8
S't\xed\xc0\\;0\xe7?'
p204
tp205
Rp206
aF0.03745412826538086
aI66
aS'kernel = 0 degree'
p207
aa(lp208
g4
(g8
S'\xab\xaa\xaa\xaa\xaa\xaa\xea?'
p209
tp210
Rp211
ag4
(g8
S'\x93\xba/\x8f\xad\x08\xea?'
p212
tp213
Rp214
aF0.0383760929107666
aI66
aS'kernel = 0 degree'
p215
ag4
(g8
S'6\xd9d\x93M6\xe9?'
p216
tp217
Rp218
ag4
(g8
S'\xeei\x84\xe5\x9eF\xe8?'
p219
tp220
Rp221
aF0.0351109504699707
aI66
aS'kernel = 0 degree'
p222
ag4
(g8
S'\xc2\x07\x1f|\xf0\xc1\xe7?'
p223
tp224
Rp225
ag4
(g8
S'H\x0fT\xcen\xe1\xe7?'
p226
tp227
Rp228
aF0.042315006256103516
aI66
aS'kernel = 1 degree'
p229
aa(lp230
g4
(g8
S'\xb2\xc9&\x9bl\xb2\xe9?'
p231
tp232
Rp233
ag4
(g8
S':\x8b\xe9,\xa6\xb3\xe8?'
p234
tp235
Rp236
aF0.0074880123138427734
aI66
aS'kernel = 0 degree'
p237
ag4
(g8
S'/\xba\xe8\xa2\x8b.\xea?'
p238
tp239
Rp240
ag4
(g8
S'\xa7\x11\x96{\x1aa\xe9?'
p241
tp242
Rp243
aF0.03351306915283203
aI66
aS'kernel = 0 degree'
p244
ag4
(g8
S'\xba\xe8\xa2\x8b.\xba\xe8?'
p245
tp246
Rp247
ag4
(g8
S'\xd8\x89\x9d\xd8\x89\x9d\xe8?'
p248
tp249
Rp250
aF0.04450201988220215
aI66
aS'kernel = 0 degree'
p251
aa(lp252
g4
(g8
S'6\xd9d\x93M6\xe9?'
p253
tp254
Rp255
ag4
(g8
S'\x88\x88\x88\x88\x88\x88\xe8?'
p256
tp257
Rp258
aF0.03301405906677246
aI66
aS'kernel = 0 degree'
p259
ag4
(g8
S'\xc2\x07\x1f|\xf0\xc1\xe7?'
p260
tp261
Rp262
ag4
(g8
S'Mg1\x9d\xc5t\xe6?'
p263
tp264
Rp265
aF0.04194903373718262
aI66
aS'kernel = 0 degree'
p266
ag4
(g8
S'\xca&\x9bl\xb2\xc9\xe6?'
p267
tp268
Rp269
ag4
(g8
S'\xd1pR\xf7\xe5\xb1\xe5?'
p270
tp271
Rp272
aF0.029529094696044922
aI66
aS'kernel = 0 degree'
p273
aa(lp274
g4
(g8
S'\xa3\x8b.\xba\xe8\xa2\xeb?'
p275
tp276
Rp277
ag4
(g8
S'\x88\xc6\xfa\xd0X\x1f\xea?'
p278
tp279
Rp280
aF0.03714799880981445
aI66
aS'kernel = 0 degree'
p281
ag4
(g8
S'\xba\xe8\xa2\x8b.\xba\xe8?'
p282
tp283
Rp284
ag4
(g8
S'\x97\x96\x96\x96\x96\x96\xe6?'
p285
tp286
Rp287
aF0.0349268913269043
aI66
aS'kernel = 0 degree'
p288
ag4
(g8
S'\xb2\xc9&\x9bl\xb2\xe9?'
p289
tp290
Rp291
ag4
(g8
S'\\AL\xae &\xe7?'
p292
tp293
Rp294
aF0.030340909957885742
aI66
aS'kernel = 0 degree'
p295
aa(lp296
g4
(g8
S'\xba\xe8\xa2\x8b.\xba\xe8?'
p297
tp298
Rp299
ag4
(g8
S'\xd8\x89\x9d\xd8\x89\x9d\xe8?'
p300
tp301
Rp302
aF0.03371405601501465
aI66
aS'kernel = 0 degree'
p303
ag4
(g8
S'\xba\xe8\xa2\x8b.\xba\xe8?'
p304
tp305
Rp306
ag4
(g8
S'\x04\x95\xb3[\xf8\xd5\xe8?'
p307
tp308
Rp309
aF0.033555030822753906
aI66
aS'kernel = 0 degree'
p310
ag4
(g8
S'/\xba\xe8\xa2\x8b.\xea?'
p311
tp312
Rp313
ag4
(g8
S'\x9a\x99\x99\x99\x99\x99\xe9?'
p314
tp315
Rp316
aF0.0345768928527832
aI66
aS'kernel = 0 degree'
p317
aa(lp318
g4
(g8
S'6\xd9d\x93M6\xe9?'
p319
tp320
Rp321
ag4
(g8
S'\x89\x88\x88\x88\x88\x88\xe8?'
p322
tp323
Rp324
aF0.0379941463470459
aI66
aS'kernel = 0 degree'
p325
ag4
(g8
S'>\xf8\xe0\x83\x0f>\xe8?'
p326
tp327
Rp328
ag4
(g8
S'wwwwww\xe7?'
p329
tp330
Rp331
aF0.03192901611328125
aI66
aS'kernel = 0 degree'
p332
ag4
(g8
S'6\xd9d\x93M6\xe9?'
p333
tp334
Rp335
ag4
(g8
S'\x00\x00\x00\x00\x00\x00\xe9?'
p336
tp337
Rp338
aF0.035388946533203125
aI66
aS'kernel = 0 degree'
p339
aa(lp340
g4
(g8
S'6\xd9d\x93M6\xe9?'
p341
tp342
Rp343
ag4
(g8
S'UUUUUU\xe5?'
p344
tp345
Rp346
aF0.03663301467895508
aI66
aS'kernel = 0 degree'
p347
ag4
(g8
S'>\xf8\xe0\x83\x0f>\xe8?'
p348
tp349
Rp350
ag4
(g8
S'Noz\xd3\x9b\xde\xe4?'
p351
tp352
Rp353
aF0.031777143478393555
aI66
aS'kernel = 0 degree'
p354
ag4
(g8
S'F\x17]t\xd1E\xe7?'
p355
tp356
Rp357
ag4
(g8
S'\xff\xff\xff\xff\xff\xff\xe3?'
p358
tp359
Rp360
aF0.03311610221862793
aI66
aS'kernel = 0 degree'
p361
aa(lp362
g4
(g8
S'\xb2\xc9&\x9bl\xb2\xe9?'
p363
tp364
Rp365
ag4
(g8
S'qX\xfb\x86\xb5o\xe8?'
p366
tp367
Rp368
aF0.029064178466796875
aI66
aS'kernel = 0 degree'
p369
ag4
(g8
S'\xc2\x07\x1f|\xf0\xc1\xe7?'
p370
tp371
Rp372
ag4
(g8
S'UUUUUU\xe5?'
p373
tp374
Rp375
aF0.03383517265319824
aI66
aS'kernel = 0 degree'
p376
ag4
(g8
S'F\x17]t\xd1E\xe7?'
p377
tp378
Rp379
ag4
(g8
S'{\x14\xaeG\xe1z\xe4?'
p380
tp381
Rp382
aF0.007009983062744141
aI66
aS'kernel = 0 degree'
p383
aa(lp384
g4
(g8
S'\xb2\xc9&\x9bl\xb2\xe9?'
p385
tp386
Rp387
ag4
(g8
S'\\AL\xae &\xe7?'
p388
tp389
Rp390
aF0.007643938064575195
aI66
aS'kernel = 0 degree'
p391
ag4
(g8
S'6\xd9d\x93M6\xe9?'
p392
tp393
Rp394
ag4
(g8
S'C{\t\xed%\xb4\xe7?'
p395
tp396
Rp397
aF0.007118940353393555
aI66
aS'kernel = 0 degree'
p398
ag4
(g8
S'6\xd9d\x93M6\xe9?'
p399
tp400
Rp401
ag4
(g8
S'C{\t\xed%\xb4\xe7?'
p402
tp403
Rp404
aF0.007043123245239258
aI66
aS'kernel = 1 degree'
p405
aa(lp406
g4
(g8
S'\xa3\x8b.\xba\xe8\xa2\xeb?'
p407
tp408
Rp409
ag4
(g8
S'\xd8\x89\x9d\xd8\x89\x9d\xe8?'
p410
tp411
Rp412
aF0.007503032684326172
aI66
aS'kernel = 0 degree'
p413
ag4
(g8
S'\xa3\x8b.\xba\xe8\xa2\xeb?'
p414
tp415
Rp416
ag4
(g8
S'\xfa\x18\x9c\x8f\xc1\xf9\xe8?'
p417
tp418
Rp419
aF0.007194995880126953
aI66
aS'kernel = 0 degree'
p420
ag4
(g8
S'/\xba\xe8\xa2\x8b.\xea?'
p421
tp422
Rp423
ag4
(g8
S'\xb7m\xdb\xb6m\xdb\xe6?'
p424
tp425
Rp426
aF0.008121967315673828
aI66
aS'kernel = 0 degree'
p427
aa(lp428
g4
(g8
S'\xb2\xc9&\x9bl\xb2\xe9?'
p429
tp430
Rp431
ag4
(g8
S':\x8b\xe9,\xa6\xb3\xe8?'
p432
tp433
Rp434
aF0.007236957550048828
aI66
aS'kernel = 0 degree'
p435
ag4
(g8
S'\xca&\x9bl\xb2\xc9\xe6?'
p436
tp437
Rp438
ag4
(g8
S'\x96eY\x96eY\xe6?'
p439
tp440
Rp441
aF0.007316112518310547
aI66
aS'kernel = 0 degree'
p442
ag4
(g8
S'\xca&\x9bl\xb2\xc9\xe6?'
p443
tp444
Rp445
ag4
(g8
S'n\xde\xa7\xb8d\x08\xe6?'
p446
tp447
Rp448
aF0.006948947906494141
aI66
aS'kernel = 0 degree'
p449
aa(lp450
g4
(g8
S'\xba\xe8\xa2\x8b.\xba\xe8?'
p451
tp452
Rp453
ag4
(g8
S'Dy\r\xe55\x94\xe7?'
p454
tp455
Rp456
aF0.007750988006591797
aI66
aS'kernel = 0 degree'
p457
ag4
(g8
S'6\xd9d\x93M6\xe9?'
p458
tp459
Rp460
ag4
(g8
S'\xeei\x84\xe5\x9eF\xe8?'
p461
tp462
Rp463
aF0.006990909576416016
aI66
aS'kernel = 0 degree'
p464
ag4
(g8
S'N6\xd9d\x93M\xe6?'
p465
tp466
Rp467
ag4
(g8
S'VUUUUU\xe5?'
p468
tp469
Rp470
aF0.0069580078125
aI66
aS'kernel = 1 degree'
p471
aa(lp472
g4
(g8
S'\xab\xaa\xaa\xaa\xaa\xaa\xea?'
p473
tp474
Rp475
ag4
(g8
S'\x9a\x99\x99\x99\x99\x99\xe9?'
p476
tp477
Rp478
aF0.008086919784545898
aI66
aS'kernel = 0 degree'
p479
ag4
(g8
S'\xb2\xc9&\x9bl\xb2\xe9?'
p480
tp481
Rp482
ag4
(g8
S'\xf2V\xf69\xa4&\xe8?'
p483
tp484
Rp485
aF0.007274150848388672
aI66
aS'kernel = 0 degree'
p486
ag4
(g8
S'\xb2\xc9&\x9bl\xb2\xe9?'
p487
tp488
Rp489
ag4
(g8
S'YG\x9b\xf7).\xe9?'
p490
tp491
Rp492
aF0.007004976272583008
aI66
aS'kernel = 0 degree'
p493
aa(lp494
g4
(g8
S'\x1f|\xf0\xc1\x07\x1f\xec?'
p495
tp496
Rp497
ag4
(g8
S'&\xb4\x97\xd0^B\xeb?'
p498
tp499
Rp500
aF0.0077190399169921875
aI66
aS'kernel = 0 degree'
p501
ag4
(g8
S'\xa3\x8b.\xba\xe8\xa2\xeb?'
p502
tp503
Rp504
ag4
(g8
S')\xaf\xa1\xbc\x86\xf2\xea?'
p505
tp506
Rp507
aF0.007388114929199219
aI66
aS'kernel = 0 degree'
p508
ag4
(g8
S'F\x17]t\xd1E\xe7?'
p509
tp510
Rp511
ag4
(g8
S'\xb5\xd6Zk\xad\xb5\xe6?'
p512
tp513
Rp514
aF0.007216930389404297
aI66
aS'kernel = 1 degree'
p515
aa(lp516
g4
(g8
S'\xb2\xc9&\x9bl\xb2\xe9?'
p517
tp518
Rp519
ag4
(g8
S':\x8b\xe9,\xa6\xb3\xe8?'
p520
tp521
Rp522
aF0.01553797721862793
aI66
aS'kernel = 0 degree'
p523
ag4
(g8
S'6\xd9d\x93M6\xe9?'
p524
tp525
Rp526
ag4
(g8
S'B{\t\xed%\xb4\xe7?'
p527
tp528
Rp529
aF0.007275104522705078
aI66
aS'kernel = 0 degree'
p530
ag4
(g8
S'\xe1\x83\x0f>\xf8\xe0\xe3?'
p531
tp532
Rp533
ag4
(g8
S'\xd44M\xd34M\xe3?'
p534
tp535
Rp536
aF0.0066721439361572266
aI66
aS'kernel = 1 degree'
p537
aa(lp538
g4
(g8
S"'\x9bl\xb2\xc9&\xeb?"
p539
tp540
Rp541
ag4
(g8
S'\xab\xaa\xaa\xaa\xaa\xaa\xea?'
p542
tp543
Rp544
aF0.0075609683990478516
aI66
aS'kernel = 0 degree'
p545
ag4
(g8
S'\x17]t\xd1E\x17\xed?'
p546
tp547
Rp548
ag4
(g8
S'\x16]t\xd1E\x17\xed?'
p549
tp550
Rp551
aF0.0072820186614990234
aI66
aS'kernel = 0 degree'
p552
ag4
(g8
S"'\x9bl\xb2\xc9&\xeb?"
p553
tp554
Rp555
ag4
(g8
S'\xd7Zk\xad\xb5\xd6\xea?'
p556
tp557
Rp558
aF0.0071561336517333984
aI66
aS'kernel = 0 degree'
p559
aa(lp560
g4
(g8
S'\xba\xe8\xa2\x8b.\xba\xe8?'
p561
tp562
Rp563
ag4
(g8
S'\x8e\xf5\xa1\xb1>4\xe6?'
p564
tp565
Rp566
aF0.007142066955566406
aI66
aS'kernel = 0 degree'
p567
ag4
(g8
S'\xab\xaa\xaa\xaa\xaa\xaa\xea?'
p568
tp569
Rp570
ag4
(g8
S'}\x0e\xa9\t\xc6[\xe9?'
p571
tp572
Rp573
aF0.007272005081176758
aI66
aS'kernel = 0 degree'
p574
ag4
(g8
S'>\xf8\xe0\x83\x0f>\xe8?'
p575
tp576
Rp577
ag4
(g8
S'\xc3\xf5(\\\x8f\xc2\xe5?'
p578
tp579
Rp580
aF0.006855964660644531
aI66
aS'kernel = 1 degree'
p581
aa(lp582
g4
(g8
S'\xa3\x8b.\xba\xe8\xa2\xeb?'
p583
tp584
Rp585
ag4
(g8
S'\xdb\xb6m\xdb\xb6m\xeb?'
p586
tp587
Rp588
aF0.0074579715728759766
aI66
aS'kernel = 0 degree'
p589
ag4
(g8
S"'\x9bl\xb2\xc9&\xeb?"
p590
tp591
Rp592
ag4
(g8
S'\x00\x00\x00\x00\x00\x00\xeb?'
p593
tp594
Rp595
aF0.0071392059326171875
aI66
aS'kernel = 0 degree'
p596
ag4
(g8
S'F\x17]t\xd1E\xe7?'
p597
tp598
Rp599
ag4
(g8
S'\x00\x00\x00\x00\x00\x00\xe8?'
p600
tp601
Rp602
aF0.006938934326171875
aI66
aS'kernel = 0 degree'
p603
aa(lp604
g4
(g8
S'\xa3\x8b.\xba\xe8\xa2\xeb?'
p605
tp606
Rp607
ag4
(g8
S'5&\xd2\x03\x95\xb3\xeb?'
p608
tp609
Rp610
aF0.007483005523681641
aI66
aS'kernel = 0 degree'
p611
ag4
(g8
S'\xb2\xc9&\x9bl\xb2\xe9?'
p612
tp613
Rp614
ag4
(g8
S'Z\x96eY\x96e\xe9?'
p615
tp616
Rp617
aF0.007239103317260742
aI66
aS'kernel = 0 degree'
p618
ag4
(g8
S'\xba\xe8\xa2\x8b.\xba\xe8?'
p619
tp620
Rp621
ag4
(g8
S'Cy\r\xe55\x94\xe7?'
p622
tp623
Rp624
aF0.006913900375366211
aI66
aS'kernel = 0 degree'
p625
aa(lp626
g4
(g8
S'\xc2\x07\x1f|\xf0\xc1\xe7?'
p627
tp628
Rp629
ag4
(g8
S'\xd9\xe7\x90\x9a`\xbc\xe5?'
p630
tp631
Rp632
aF0.007241010665893555
aI66
aS'kernel = 0 degree'
p633
ag4
(g8
S'\xd9d\x93M6\xd9\xe4?'
p634
tp635
Rp636
ag4
(g8
S'\x9e\x12\xe4)A\x9e\xe2?'
p637
tp638
Rp639
aF0.007040977478027344
aI66
aS'kernel = 0 degree'
p640
ag4
(g8
S'UUUUUU\xe5?'
p641
tp642
Rp643
ag4
(g8
S'\xdb\xb6m\xdb\xb6m\xe3?'
p644
tp645
Rp646
aF0.00675201416015625
aI66
aS'kernel = 1 degree'
p647
aa(lp648
g4
(g8
S'/\xba\xe8\xa2\x8b.\xea?'
p649
tp650
Rp651
ag4
(g8
S':\x8e\xe38\x8e\xe3\xe8?'
p652
tp653
Rp654
aF0.0073812007904052734
aI66
aS'kernel = 0 degree'
p655
ag4
(g8
S'\x9bl\xb2\xc9&\x9b\xec?'
p656
tp657
Rp658
ag4
(g8
S'\xed\x1b\xd6\xbea\xed\xeb?'
p659
tp660
Rp661
aF0.007311820983886719
aI66
aS'kernel = 0 degree'
p662
ag4
(g8
S'\xd1E\x17]t\xd1\xe5?'
p663
tp664
Rp665
ag4
(g8
S'\xd3\xd2\xd2\xd2\xd2\xd2\xe2?'
p666
tp667
Rp668
aF0.004514932632446289
aI66
aS'kernel = 0 degree'
p669
aa(lp670
g4
(g8
S'\xba\xe8\xa2\x8b.\xba\xe8?'
p671
tp672
Rp673
ag4
(g8
S'\xb2\x15A\xc3I\xdd\xe7?'
p674
tp675
Rp676
aF0.007603883743286133
aI66
aS'kernel = 0 degree'
p677
ag4
(g8
S'6\xd9d\x93M6\xe9?'
p678
tp679
Rp680
ag4
(g8
S'\xeei\x84\xe5\x9eF\xe8?'
p681
tp682
Rp683
aF0.007012128829956055
aI66
aS'kernel = 0 degree'
p684
ag4
(g8
S'6\xd9d\x93M6\xe9?'
p685
tp686
Rp687
ag4
(g8
S'\xc6\x18c\x8c1\xc6\xe8?'
p688
tp689
Rp690
aF0.004541873931884766
aI66
aS'kernel = 0 degree'
p691
aa(lp692
g4
(g8
S'\xba\xe8\xa2\x8b.\xba\xe8?'
p693
tp694
Rp695
ag4
(g8
S'\xb2\x15A\xc3I\xdd\xe7?'
p696
tp697
Rp698
aF0.0074291229248046875
aI66
aS'kernel = 0 degree'
p699
ag4
(g8
S'\xc2\x07\x1f|\xf0\xc1\xe7?'
p700
tp701
Rp702
ag4
(g8
S'B\xc3I\xdd\x97\xc7\xe6?'
p703
tp704
Rp705
aF0.007049083709716797
aI66
aS'kernel = 0 degree'
p706
ag4
(g8
S'\xc2\x07\x1f|\xf0\xc1\xe7?'
p707
tp708
Rp709
ag4
(g8
S'\x10\xac\xa3\xcd\xfb\x14\xe7?'
p710
tp711
Rp712
aF0.0067789554595947266
aI66
aS'kernel = 0 degree'
p713
aa(lp714
g4
(g8
S"'\x9bl\xb2\xc9&\xeb?"
p715
tp716
Rp717
ag4
(g8
S'\xab\xaa\xaa\xaa\xaa\xaa\xea?'
p718
tp719
Rp720
aF0.007966041564941406
aI66
aS'kernel = 0 degree'
p721
ag4
(g8
S'\x9bl\xb2\xc9&\x9b\xec?'
p722
tp723
Rp724
ag4
(g8
S'\xf1\xab1\x91\x1e\xa8\xec?'
p725
tp726
Rp727
aF0.004643917083740234
aI66
aS'kernel = 0 degree'
p728
ag4
(g8
S'\xb2\xc9&\x9bl\xb2\xe9?'
p729
tp730
Rp731
ag4
(g8
S'\x99\x99\x99\x99\x99\x99\xe9?'
p732
tp733
Rp734
aF0.006860017776489258
aI66
aS'kernel = 0 degree'
p735
aa(lp736
g4
(g8
S'\xb2\xc9&\x9bl\xb2\xe9?'
p737
tp738
Rp739
ag4
(g8
S'\\AL\xae &\xe7?'
p740
tp741
Rp742
aF0.0048828125
aI66
aS'kernel = 0 degree'
p743
ag4
(g8
S'\xba\xe8\xa2\x8b.\xba\xe8?'
p744
tp745
Rp746
ag4
(g8
S'\x8e\xf5\xa1\xb1>4\xe6?'
p747
tp748
Rp749
aF0.0068738460540771484
aI66
aS'kernel = 0 degree'
p750
ag4
(g8
S'\xb2\xc9&\x9bl\xb2\xe9?'
p751
tp752
Rp753
ag4
(g8
S'\\AL\xae &\xe7?'
p754
tp755
Rp756
aF0.004567146301269531
aI66
aS'kernel = 0 degree'
p757
aa(lp758
g4
(g8
S"'\x9bl\xb2\xc9&\xeb?"
p759
tp760
Rp761
ag4
(g8
S'\x9a\x99\x99\x99\x99\x99\xe9?'
p762
tp763
Rp764
aF0.0048639774322509766
aI66
aS'kernel = 0 degree'
p765
ag4
(g8
S'\xb2\xc9&\x9bl\xb2\xe9?'
p766
tp767
Rp768
ag4
(g8
S'\xf1V\xf69\xa4&\xe8?'
p769
tp770
Rp771
aF0.007241964340209961
aI66
aS'kernel = 0 degree'
p772
ag4
(g8
S'F\x17]t\xd1E\xe7?'
p773
tp774
Rp775
ag4
(g8
S'\xc5N\xec\xc4N\xec\xe4?'
p776
tp777
Rp778
aF0.00725102424621582
aI66
aS'kernel = 0 degree'
p779
aa(lp780
g4
(g8
S'\xab\xaa\xaa\xaa\xaa\xaa\xea?'
p781
tp782
Rp783
ag4
(g8
S'~\x0e\xa9\t\xc6[\xe9?'
p784
tp785
Rp786
aF0.007714986801147461
aI66
aS'kernel = 0 degree'
p787
ag4
(g8
S"'\x9bl\xb2\xc9&\xeb?"
p788
tp789
Rp790
ag4
(g8
S'/\xa1\xbd\x84\xf6\x12\xea?'
p791
tp792
Rp793
aF0.0052950382232666016
aI66
aS'kernel = 0 degree'
p794
ag4
(g8
S"'\x9bl\xb2\xc9&\xeb?"
p795
tp796
Rp797
ag4
(g8
S'\x92$I\x92$I\xea?'
p798
tp799
Rp800
aF0.006773948669433594
aI66
aS'kernel = 0 degree'
p801
aa(lp802
g4
(g8
S'\xb2\xc9&\x9bl\xb2\xe9?'
p803
tp804
Rp805
ag4
(g8
S':\x8b\xe9,\xa6\xb3\xe8?'
p806
tp807
Rp808
aF0.007414102554321289
aI66
aS'kernel = 0 degree'
p809
ag4
(g8
S'/\xba\xe8\xa2\x8b.\xea?'
p810
tp811
Rp812
ag4
(g8
S'\x99\x99\x99\x99\x99\x99\xe9?'
p813
tp814
Rp815
aF0.004819154739379883
aI66
aS'kernel = 0 degree'
p816
ag4
(g8
S'\xc2\x07\x1f|\xf0\xc1\xe7?'
p817
tp818
Rp819
ag4
(g8
S'\xda\xe7\x90\x9a`\xbc\xe5?'
p820
tp821
Rp822
aF0.00448298454284668
aI66
aS'kernel = 0 degree'
p823
aa(lp824
g4
(g8
S'\xb2\xc9&\x9bl\xb2\xe9?'
p825
tp826
Rp827
ag4
(g8
S':\x8b\xe9,\xa6\xb3\xe8?'
p828
tp829
Rp830
aF0.0048580169677734375
aI66
aS'kernel = 0 degree'
p831
ag4
(g8
S'\xb2\xc9&\x9bl\xb2\xe9?'
p832
tp833
Rp834
ag4
(g8
S':\x8b\xe9,\xa6\xb3\xe8?'
p835
tp836
Rp837
aF0.0046520233154296875
aI66
aS'kernel = 0 degree'
p838
ag4
(g8
S'/\xba\xe8\xa2\x8b.\xea?'
p839
tp840
Rp841
ag4
(g8
S'\xa8\x11\x96{\x1aa\xe9?'
p842
tp843
Rp844
aF0.006999969482421875
aI66
aS'kernel = 0 degree'
p845
aa(lp846
g4
(g8
S'\xab\xaa\xaa\xaa\xaa\xaa\xea?'
p847
tp848
Rp849
ag4
(g8
S'\x93\xba/\x8f\xad\x08\xea?'
p850
tp851
Rp852
aF0.0073871612548828125
aI66
aS'kernel = 0 degree'
p853
ag4
(g8
S'/\xba\xe8\xa2\x8b.\xea?'
p854
tp855
Rp856
ag4
(g8
S'\xa7\x11\x96{\x1aa\xe9?'
p857
tp858
Rp859
aF0.004746198654174805
aI66
aS'kernel = 0 degree'
p860
ag4
(g8
S'>\xf8\xe0\x83\x0f>\xe8?'
p861
tp862
Rp863
ag4
(g8
S'\x01\x00\x00\x00\x00\x00\xe8?'
p864
tp865
Rp866
aF0.004559993743896484
aI66
aS'kernel = 0 degree'
p867
aa(lp868
g4
(g8
S'\xab\xaa\xaa\xaa\xaa\xaa\xea?'
p869
tp870
Rp871
ag4
(g8
S'\x93\xba/\x8f\xad\x08\xea?'
p872
tp873
Rp874
aF0.004806995391845703
aI66
aS'kernel = 0 degree'
p875
ag4
(g8
S'/\xba\xe8\xa2\x8b.\xea?'
p876
tp877
Rp878
ag4
(g8
S'\x9b\x99\x99\x99\x99\x99\xe9?'
p879
tp880
Rp881
aF0.007291078567504883
aI66
aS'kernel = 0 degree'
p882
ag4
(g8
S'\xb2\xc9&\x9bl\xb2\xe9?'
p883
tp884
Rp885
ag4
(g8
S'\x9fQ\xe2g\x94\xf8\xe9?'
p886
tp887
Rp888
aF0.005105018615722656
aI66
aS'kernel = 0 degree'
p889
aa(lp890
g4
(g8
S"'\x9bl\xb2\xc9&\xeb?"
p891
tp892
Rp893
ag4
(g8
S'\x9a\x99\x99\x99\x99\x99\xe9?'
p894
tp895
Rp896
aF0.004797935485839844
aI66
aS'kernel = 0 degree'
p897
ag4
(g8
S'\x1f|\xf0\xc1\x07\x1f\xec?'
p898
tp899
Rp900
ag4
(g8
S'\xaa\xaa\xaa\xaa\xaa\xaa\xea?'
p901
tp902
Rp903
aF0.007167816162109375
aI66
aS'kernel = 0 degree'
p904
ag4
(g8
S'6\xd9d\x93M6\xe9?'
p905
tp906
Rp907
ag4
(g8
S'C{\t\xed%\xb4\xe7?'
p908
tp909
Rp910
aF0.007055997848510742
aI66
aS'kernel = 0 degree'
p911
aa(lp912
g4
(g8
S'6\xd9d\x93M6\xe9?'
p913
tp914
Rp915
ag4
(g8
S'\x89\x88\x88\x88\x88\x88\xe8?'
p916
tp917
Rp918
aF0.006533145904541016
aI66
aS'kernel = 0 degree'
p919
ag4
(g8
S"'\x9bl\xb2\xc9&\xeb?"
p920
tp921
Rp922
ag4
(g8
S'\xab\xaa\xaa\xaa\xaa\xaa\xea?'
p923
tp924
Rp925
aF0.004611015319824219
aI66
aS'kernel = 0 degree'
p926
ag4
(g8
S'\xca&\x9bl\xb2\xc9\xe6?'
p927
tp928
Rp929
ag4
(g8
S'\xd1pR\xf7\xe5\xb1\xe5?'
p930
tp931
Rp932
aF0.004389047622680664
aI66
aS'kernel = 0 degree'
p933
aa(lp934
g4
(g8
S'\x17]t\xd1E\x17\xed?'
p935
tp936
Rp937
ag4
(g8
S'\xd4\x08\xcb=\x8d\xb0\xec?'
p938
tp939
Rp940
aF0.007910966873168945
aI66
aS'kernel = 0 degree'
p941
ag4
(g8
S'\xa3\x8b.\xba\xe8\xa2\xeb?'
p942
tp943
Rp944
ag4
(g8
S'[ZZZZZ\xea?'
p945
tp946
Rp947
aF0.007130861282348633
aI66
aS'kernel = 0 degree'
p948
ag4
(g8
S'\xd1E\x17]t\xd1\xe5?'
p949
tp950
Rp951
ag4
(g8
S'_\x1e[\x114\x9c\xe4?'
p952
tp953
Rp954
aF0.006986856460571289
aI66
aS'kernel = 1 degree'
p955
aa(lp956
g4
(g8
S'\xa3\x8b.\xba\xe8\xa2\xeb?'
p957
tp958
Rp959
ag4
(g8
S'5&\xd2\x03\x95\xb3\xeb?'
p960
tp961
Rp962
aF0.0074651241302490234
aI66
aS'kernel = 0 degree'
p963
ag4
(g8
S'\xab\xaa\xaa\xaa\xaa\xaa\xea?'
p964
tp965
Rp966
ag4
(g8
S'Zas \xd1\n\xeb?'
p967
tp968
Rp969
aF0.007085084915161133
aI66
aS'kernel = 0 degree'
p970
ag4
(g8
S'\xc2\x07\x1f|\xf0\xc1\xe7?'
p971
tp972
Rp973
ag4
(g8
S'I\x0fT\xcen\xe1\xe7?'
p974
tp975
Rp976
aF0.004537105560302734
aI66
aS'kernel = 0 degree'
p977
aa(lp978
g4
(g8
S'\xab\xaa\xaa\xaa\xaa\xaa\xea?'
p979
tp980
Rp981
ag4
(g8
S'\x19\x19\x19\x19\x19\x19\xe9?'
p982
tp983
Rp984
aF0.004809141159057617
aI66
aS'kernel = 0 degree'
p985
ag4
(g8
S'\xb2\xc9&\x9bl\xb2\xe9?'
p986
tp987
Rp988
ag4
(g8
S'\xe1\xe5\x14\xbc\x9c\x82\xe7?'
p989
tp990
Rp991
aF0.006973981857299805
aI66
aS'kernel = 0 degree'
p992
ag4
(g8
S'\xb2\xc9&\x9bl\xb2\xe9?'
p993
tp994
Rp995
ag4
(g8
S';\x8b\xe9,\xa6\xb3\xe8?'
p996
tp997
Rp998
aF0.004422903060913086
aI66
aS'kernel = 0 degree'
p999
aa(lp1000
g4
(g8
S'\xb2\xc9&\x9bl\xb2\xe9?'
p1001
tp1002
Rp1003
ag4
(g8
S'\\AL\xae &\xe7?'
p1004
tp1005
Rp1006
aF0.0073089599609375
aI66
aS'kernel = 0 degree'
p1007
ag4
(g8
S'\xab\xaa\xaa\xaa\xaa\xaa\xea?'
p1008
tp1009
Rp1010
ag4
(g8
S'\xd7\x82-\xd8\x82-\xe8?'
p1011
tp1012
Rp1013
aF0.0062558650970458984
aI66
aS'kernel = 0 degree'
p1014
ag4
(g8
S'\xb2\xc9&\x9bl\xb2\xe9?'
p1015
tp1016
Rp1017
ag4
(g8
S'\\AL\xae &\xe7?'
p1018
tp1019
Rp1020
aF0.0046460628509521484
aI66
aS'kernel = 0 degree'
p1021
aa(lp1022
g4
(g8
S'/\xba\xe8\xa2\x8b.\xea?'
p1023
tp1024
Rp1025
ag4
(g8
S'\xb7m\xdb\xb6m\xdb\xe6?'
p1026
tp1027
Rp1028
aF0.004862070083618164
aI66
aS'kernel = 0 degree'
p1029
ag4
(g8
S'>\xf8\xe0\x83\x0f>\xe8?'
p1030
tp1031
Rp1032
ag4
(g8
S'333333\xe3?'
p1033
tp1034
Rp1035
aF0.0047070980072021484
aI66
aS'kernel = 0 degree'
p1036
ag4
(g8
S'6\xd9d\x93M6\xe9?'
p1037
tp1038
Rp1039
ag4
(g8
S'\n\xd7\xa3p=\n\xe7?'
p1040
tp1041
Rp1042
aF0.006133079528808594
aI66
aS'kernel = 0 degree'
p1043
aa(lp1044
g4
(g8
S"'\x9bl\xb2\xc9&\xeb?"
p1045
tp1046
Rp1047
ag4
(g8
S'\x9a\x99\x99\x99\x99\x99\xe9?'
p1048
tp1049
Rp1050
aF0.007441043853759766
aI66
aS'kernel = 0 degree'
p1051
ag4
(g8
S'\xa3\x8b.\xba\xe8\xa2\xeb?'
p1052
tp1053
Rp1054
ag4
(g8
S'g\xa3\xbe\xb3Q\xdf\xe9?'
p1055
tp1056
Rp1057
aF0.0073130130767822266
aI66
aS'kernel = 0 degree'
p1058
ag4
(g8
S'\xab\xaa\xaa\xaa\xaa\xaa\xea?'
p1059
tp1060
Rp1061
ag4
(g8
S'\xd8\x82-\xd8\x82-\xe8?'
p1062
tp1063
Rp1064
aF0.004595041275024414
aI66
aS'kernel = 0 degree'
p1065
aa(lp1066
g4
(g8
S'\xab\xaa\xaa\xaa\xaa\xaa\xea?'
p1067
tp1068
Rp1069
ag4
(g8
S'2\x9d\xc5t\x16\xd3\xe9?'
p1070
tp1071
Rp1072
aF0.004808902740478516
aI66
aS'kernel = 0 degree'
p1073
ag4
(g8
S'\xab\xaa\xaa\xaa\xaa\xaa\xea?'
p1074
tp1075
Rp1076
ag4
(g8
S'\x93\xba/\x8f\xad\x08\xea?'
p1077
tp1078
Rp1079
aF0.004686117172241211
aI66
aS'kernel = 0 degree'
p1080
ag4
(g8
S'\xb2\xc9&\x9bl\xb2\xe9?'
p1081
tp1082
Rp1083
ag4
(g8
S'Y\x96eY\x96e\xe9?'
p1084
tp1085
Rp1086
aF0.004510164260864258
aI66
aS'kernel = 1 degree'
p1087
aa(lp1088
g4
(g8
S'\xc2\x07\x1f|\xf0\xc1\xe7?'
p1089
tp1090
Rp1091
ag4
(g8
S'Lg1\x9d\xc5t\xe6?'
p1092
tp1093
Rp1094
aF0.007064104080200195
aI66
aS'kernel = 0 degree'
p1095
ag4
(g8
S'\xb2\xc9&\x9bl\xb2\xe9?'
p1096
tp1097
Rp1098
ag4
(g8
S';\x8b\xe9,\xa6\xb3\xe8?'
p1099
tp1100
Rp1101
aF0.004686117172241211
aI66
aS'kernel = 0 degree'
p1102
ag4
(g8
S'e\x93M6\xd9d\xe3?'
p1103
tp1104
Rp1105
ag4
(g8
S'\x95RJ)\xa5\x94\xe2?'
p1106
tp1107
Rp1108
aF0.004642009735107422
aI66
aS'kernel = 0 degree'
p1109
aas.