(dp0
S'austra'
p1
(lp2
(lp3
cnumpy.core.multiarray
scalar
p4
(cnumpy
dtype
p5
(S'f8'
p6
I0
I1
tp7
Rp8
(I3
S'<'
p9
NNNI-1
I-1
I0
tp10
bS'\x82H\xeb\x05ls\xea?'
p11
tp12
Rp13
ag4
(g8
S'ZZZZZZ\xea?'
p14
tp15
Rp16
aF0.03845810890197754
aI173
aS'kernel = 0 degree'
p17
ag4
(g8
S'\x82H\xeb\x05ls\xea?'
p18
tp19
Rp20
ag4
(g8
S'ZZZZZZ\xea?'
p21
tp22
Rp23
aF0.04435992240905762
aI173
aS'kernel = 0 degree'
p24
ag4
(g8
S'\xcf\xc4\xc7}\xb7\x14\xea?'
p25
tp26
Rp27
ag4
(g8
S'\n\xf3\xbbZ\xdc\x84\xe9?'
p28
tp29
Rp30
aF0.06145596504211426
aI173
aS'kernel = 0 degree'
p31
aa(lp32
g4
(g8
S'NWy&>\xee\xeb?'
p33
tp34
Rp35
ag4
(g8
S'\xe55\x94\xd7P^\xeb?'
p36
tp37
Rp38
aF0.03670907020568848
aI173
aS'kernel = 0 degree'
p39
ag4
(g8
S'NWy&>\xee\xeb?'
p40
tp41
Rp42
ag4
(g8
S'\xe55\x94\xd7P^\xeb?'
p43
tp44
Rp45
aF0.04890704154968262
aI173
aS'kernel = 0 degree'
p46
ag4
(g8
S'(\x19\x8bj\x98\x1d\xec?'
p47
tp48
Rp49
ag4
(g8
S'\xb1\xef\x119A\xb8\xeb?'
p50
tp51
Rp52
aF0.05351114273071289
aI173
aS'kernel = 0 degree'
p53
aa(lp54
g4
(g8
S'\xa9\x86\xd9\xc1\x11D\xea?'
p55
tp56
Rp57
ag4
(g8
S'\xc7\xb5HPS!\xea?'
p58
tp59
Rp60
aF0.05072617530822754
aI173
aS'kernel = 0 degree'
p61
ag4
(g8
S'\xa9\x86\xd9\xc1\x11D\xea?'
p62
tp63
Rp64
ag4
(g8
S'\xc7\xb5HPS!\xea?'
p65
tp66
Rp67
aF0.05163121223449707
aI173
aS'kernel = 0 degree'
p68
ag4
(g8
S'\xcf\xc4\xc7}\xb7\x14\xea?'
p69
tp70
Rp71
ag4
(g8
S'7\x94\xd7P^C\xe9?'
p72
tp73
Rp74
aF0.037425994873046875
aI173
aS'kernel = 0 degree'
p75
aa(lp76
g4
(g8
S'\x9b\xd3U\x9e\x89\x8f\xeb?'
p77
tp78
Rp79
ag4
(g8
S'\x1ba\xb9\xa7\x11\x96\xeb?'
p80
tp81
Rp82
aF0.014937162399291992
aI173
aS'kernel = 0 degree'
p83
ag4
(g8
S'\x9b\xd3U\x9e\x89\x8f\xeb?'
p84
tp85
Rp86
ag4
(g8
S'\x1ba\xb9\xa7\x11\x96\xeb?'
p87
tp88
Rp89
aF0.019757986068725586
aI173
aS'kernel = 0 degree'
p90
ag4
(g8
S'\x9b\xd3U\x9e\x89\x8f\xeb?'
p91
tp92
Rp93
ag4
(g8
S'\x1ba\xb9\xa7\x11\x96\xeb?'
p94
tp95
Rp96
aF0.013015031814575195
aI173
aS'kernel = 0 degree'
p97
aa(lp98
g4
(g8
S'u\x95g\xe2\xe3\xbe\xeb?'
p99
tp100
Rp101
ag4
(g8
S't\x95g\xe2\xe3\xbe\xeb?'
p102
tp103
Rp104
aF0.015019893646240234
aI173
aS'kernel = 0 degree'
p105
ag4
(g8
S'u\x95g\xe2\xe3\xbe\xeb?'
p106
tp107
Rp108
ag4
(g8
S't\x95g\xe2\xe3\xbe\xeb?'
p109
tp110
Rp111
aF0.014571189880371094
aI173
aS'kernel = 0 degree'
p112
ag4
(g8
S'\xe8O2\x16\xd50\xeb?'
p113
tp114
Rp115
ag4
(g8
S'\xc30\x0c\xc30\x0c\xeb?'
p116
tp117
Rp118
aF0.012742996215820312
aI173
aS'kernel = 0 degree'
p119
aa(lp120
g4
(g8
S'NWy&>\xee\xeb?'
p121
tp122
Rp123
ag4
(g8
S'\xc1\x05.p\x81\x0b\xec?'
p124
tp125
Rp126
aF0.015429973602294922
aI173
aS'kernel = 0 degree'
p127
ag4
(g8
S'\xdb\x9c\xae\xf2L|\xec?'
p128
tp129
Rp130
ag4
(g8
S'\xd0. 6\x95\x86\xec?'
p131
tp132
Rp133
aF0.017021894454956055
aI173
aS'kernel = 0 degree'
p134
ag4
(g8
S'\xdb\x9c\xae\xf2L|\xec?'
p135
tp136
Rp137
ag4
(g8
S'\xd0. 6\x95\x86\xec?'
p138
tp139
Rp140
aF0.013173103332519531
aI173
aS'kernel = 0 degree'
p141
aa(lp142
g4
(g8
S'\xdb\x9c\xae\xf2L|\xec?'
p143
tp144
Rp145
ag4
(g8
S'\x1d\xc7q\x1c\xc7q\xec?'
p146
tp147
Rp148
aF0.015151023864746094
aI173
aS'kernel = 0 degree'
p149
ag4
(g8
S'\xdb\x9c\xae\xf2L|\xec?'
p150
tp151
Rp152
ag4
(g8
S'\x1d\xc7q\x1c\xc7q\xec?'
p153
tp154
Rp155
aF0.013991117477416992
aI173
aS'kernel = 0 degree'
p156
ag4
(g8
S'\xdb\x9c\xae\xf2L|\xec?'
p157
tp158
Rp159
ag4
(g8
S'\x1d\xc7q\x1c\xc7q\xec?'
p160
tp161
Rp162
aF0.013463973999023438
aI173
aS'kernel = 0 degree'
p163
aa(lp164
g4
(g8
S'u\x95g\xe2\xe3\xbe\xeb?'
p165
tp166
Rp167
ag4
(g8
S'\x8a[\xa1\xb8\x15\x8a\xeb?'
p168
tp169
Rp170
aF0.015017032623291016
aI173
aS'kernel = 0 degree'
p171
ag4
(g8
S'u\x95g\xe2\xe3\xbe\xeb?'
p172
tp173
Rp174
ag4
(g8
S'\x8a[\xa1\xb8\x15\x8a\xeb?'
p175
tp176
Rp177
aF0.014210939407348633
aI173
aS'kernel = 0 degree'
p178
ag4
(g8
S'u\x95g\xe2\xe3\xbe\xeb?'
p179
tp180
Rp181
ag4
(g8
S'\xb5\xe1\xf3\xc7\x1c\xa5\xeb?'
p182
tp183
Rp184
aF0.013426065444946289
aI173
aS'kernel = 0 degree'
p185
aa(lp186
g4
(g8
S'(\x19\x8bj\x98\x1d\xec?'
p187
tp188
Rp189
ag4
(g8
S'u_\x1e[\x114\xec?'
p190
tp191
Rp192
aF0.008944988250732422
aI173
aS'kernel = 0 degree'
p193
ag4
(g8
S'\x01\xdb\x9c\xae\xf2L\xec?'
p194
tp195
Rp196
ag4
(g8
S']t\xd1E\x17]\xec?'
p197
tp198
Rp199
aF0.013847112655639648
aI173
aS'kernel = 0 degree'
p200
ag4
(g8
S'NWy&>\xee\xeb?'
p201
tp202
Rp203
ag4
(g8
S'\xcd\x0f\x8b\x94\x81\xa7\xeb?'
p204
tp205
Rp206
aF0.015257120132446289
aI173
aS'kernel = 0 degree'
p207
aa(lp208
g4
(g8
S'\xf6\x02\xb69]\xe5\xe9?'
p209
tp210
Rp211
ag4
(g8
S'w|\x08Rn*\xea?'
p212
tp213
Rp214
aF0.014258146286010742
aI173
aS'kernel = 0 degree'
p215
ag4
(g8
S'\x82H\xeb\x05ls\xea?'
p216
tp217
Rp218
ag4
(g8
S'ZZZZZZ\xea?'
p219
tp220
Rp221
aF0.013923883438110352
aI173
aS'kernel = 0 degree'
p222
ag4
(g8
S'\xcf\xc4\xc7}\xb7\x14\xea?'
p223
tp224
Rp225
ag4
(g8
S'\xfb\xa4O\xfa\xa4O\xea?'
p226
tp227
Rp228
aF0.012761831283569336
aI173
aS'kernel = 0 degree'
p229
aa(lp230
g4
(g8
S'\x9b\xd3U\x9e\x89\x8f\xeb?'
p231
tp232
Rp233
ag4
(g8
S'\xe2\x8e\xb8#\xee\x88\xeb?'
p234
tp235
Rp236
aF0.008810043334960938
aI173
aS'kernel = 0 degree'
p237
ag4
(g8
S'(\x19\x8bj\x98\x1d\xec?'
p238
tp239
Rp240
ag4
(g8
S'\xb0\xac\xde%\x0f\x06\xec?'
p241
tp242
Rp243
aF0.013567924499511719
aI173
aS'kernel = 0 degree'
p244
ag4
(g8
S'NWy&>\xee\xeb?'
p245
tp246
Rp247
ag4
(g8
S'\xf3<\xcf\xf3<\xcf\xeb?'
p248
tp249
Rp250
aF0.013260841369628906
aI173
aS'kernel = 0 degree'
p251
aa(lp252
g4
(g8
S'\x9b\xd3U\x9e\x89\x8f\xeb?'
p253
tp254
Rp255
ag4
(g8
S'&\xb4\x97\xd0^B\xeb?'
p256
tp257
Rp258
aF0.008805036544799805
aI173
aS'kernel = 0 degree'
p259
ag4
(g8
S'\x9b\xd3U\x9e\x89\x8f\xeb?'
p260
tp261
Rp262
ag4
(g8
S'&\xb4\x97\xd0^B\xeb?'
p263
tp264
Rp265
aF0.014200925827026367
aI173
aS'kernel = 0 degree'
p266
ag4
(g8
S'\x9b\xd3U\x9e\x89\x8f\xeb?'
p267
tp268
Rp269
ag4
(g8
S'&\xb4\x97\xd0^B\xeb?'
p270
tp271
Rp272
aF0.013169050216674805
aI173
aS'kernel = 0 degree'
p273
aa(lp274
g4
(g8
S'\xe8O2\x16\xd50\xeb?'
p275
tp276
Rp277
ag4
(g8
S'\xcc\xcc\xcc\xcc\xcc\xcc\xea?'
p278
tp279
Rp280
aF0.010385990142822266
aI173
aS'kernel = 0 degree'
p281
ag4
(g8
S'\x0f\x8e \xd2z\x01\xeb?'
p282
tp283
Rp284
ag4
(g8
S'm\x1a\xd0\xa6\x01m\xea?'
p285
tp286
Rp287
aF0.00834798812866211
aI173
aS'kernel = 0 degree'
p288
ag4
(g8
S'5\xcc\x0e\x8e \xd2\xea?'
p289
tp290
Rp291
ag4
(g8
S'gfffff\xea?'
p292
tp293
Rp294
aF0.007787942886352539
aI173
aS'kernel = 0 degree'
p295
aa(lp296
g4
(g8
S'\xcf\xc4\xc7}\xb7\x14\xea?'
p297
tp298
Rp299
ag4
(g8
S'\xea;\x1b\xf5\x9d\x8d\xea?'
p300
tp301
Rp302
aF0.008838176727294922
aI173
aS'kernel = 0 degree'
p303
ag4
(g8
S'\xcf\xc4\xc7}\xb7\x14\xea?'
p304
tp305
Rp306
ag4
(g8
S'\xea;\x1b\xf5\x9d\x8d\xea?'
p307
tp308
Rp309
aF0.013296842575073242
aI173
aS'kernel = 0 degree'
p310
ag4
(g8
S'\\\n\xfdI\xc6\xa2\xea?'
p311
tp312
Rp313
ag4
(g8
S']\xc5\xb2\xf1\xcd\xd0\xea?'
p314
tp315
Rp316
aF0.0391850471496582
aI173
aS'kernel = 0 degree'
p317
aa(lp318
g4
(g8
S'u\x95g\xe2\xe3\xbe\xeb?'
p319
tp320
Rp321
ag4
(g8
S't\x95g\xe2\xe3\xbe\xeb?'
p322
tp323
Rp324
aF0.030562162399291992
aI173
aS'kernel = 0 degree'
p325
ag4
(g8
S'u\x95g\xe2\xe3\xbe\xeb?'
p326
tp327
Rp328
ag4
(g8
S't\x95g\xe2\xe3\xbe\xeb?'
p329
tp330
Rp331
aF0.040863037109375
aI173
aS'kernel = 0 degree'
p332
ag4
(g8
S'NWy&>\xee\xeb?'
p333
tp334
Rp335
ag4
(g8
S'\xdc\xdb\xdb\xdb\xdb\xdb\xeb?'
p336
tp337
Rp338
aF0.014259815216064453
aI173
aS'kernel = 0 degree'
p339
aa(lp340
g4
(g8
S'NWy&>\xee\xeb?'
p341
tp342
Rp343
ag4
(g8
S'\x99\x99\x99\x99\x99\x99\xeb?'
p344
tp345
Rp346
aF0.015253067016601562
aI173
aS'kernel = 0 degree'
p347
ag4
(g8
S'NWy&>\xee\xeb?'
p348
tp349
Rp350
ag4
(g8
S'\x99\x99\x99\x99\x99\x99\xeb?'
p351
tp352
Rp353
aF0.03180694580078125
aI173
aS'kernel = 0 degree'
p354
ag4
(g8
S'NWy&>\xee\xeb?'
p355
tp356
Rp357
ag4
(g8
S'\x99\x99\x99\x99\x99\x99\xeb?'
p358
tp359
Rp360
aF0.03213191032409668
aI173
aS'kernel = 0 degree'
p361
aa(lp362
g4
(g8
S'5\xcc\x0e\x8e \xd2\xea?'
p363
tp364
Rp365
ag4
(g8
S'\xd7\xfc\xb0H\x19x\xea?'
p366
tp367
Rp368
aF0.034288883209228516
aI173
aS'kernel = 0 degree'
p369
ag4
(g8
S'5\xcc\x0e\x8e \xd2\xea?'
p370
tp371
Rp372
ag4
(g8
S'\xd7\xfc\xb0H\x19x\xea?'
p373
tp374
Rp375
aF0.04230499267578125
aI173
aS'kernel = 0 degree'
p376
ag4
(g8
S'\x1cA\xa4\xf5\x02\xb6\xe9?'
p377
tp378
Rp379
ag4
(g8
S'\xc0X\xf2\x8b%\xbf\xe8?'
p380
tp381
Rp382
aF0.013195037841796875
aI173
aS'kernel = 0 degree'
p383
aa(lp384
g4
(g8
S'\xe8O2\x16\xd50\xeb?'
p385
tp386
Rp387
ag4
(g8
S'\x81\x12\xdeh\xea\xfc\xea?'
p388
tp389
Rp390
aF0.04447507858276367
aI173
aS'kernel = 0 degree'
p391
ag4
(g8
S'\x9b\xd3U\x9e\x89\x8f\xeb?'
p392
tp393
Rp394
ag4
(g8
S'333333\xeb?'
p395
tp396
Rp397
aF0.014190912246704102
aI173
aS'kernel = 0 degree'
p398
ag4
(g8
S'\x9b\xd3U\x9e\x89\x8f\xeb?'
p399
tp400
Rp401
ag4
(g8
S'&\xb4\x97\xd0^B\xeb?'
p402
tp403
Rp404
aF0.02041006088256836
aI173
aS'kernel = 0 degree'
p405
aa(lp406
g4
(g8
S'\x9b\xd3U\x9e\x89\x8f\xeb?'
p407
tp408
Rp409
ag4
(g8
S'\xba\xd7\xbd\xeeu\xaf\xeb?'
p410
tp411
Rp412
aF0.036463022232055664
aI173
aS'kernel = 0 degree'
p413
ag4
(g8
S'\xe8O2\x16\xd50\xeb?'
p414
tp415
Rp416
ag4
(g8
S'~X\xa4\x0c<\xdd\xea?'
p417
tp418
Rp419
aF0.04829287528991699
aI173
aS'kernel = 0 degree'
p420
ag4
(g8
S'u\x95g\xe2\xe3\xbe\xeb?'
p421
tp422
Rp423
ag4
(g8
S'"\xbb\x89\xec&\xb2\xeb?'
p424
tp425
Rp426
aF0.013524055480957031
aI173
aS'kernel = 0 degree'
p427
aa(lp428
g4
(g8
S'\xc2\x11DZ/`\xeb?'
p429
tp430
Rp431
ag4
(g8
S'\xd0\xba\xc1\x14\xf9\xac\xeb?'
p432
tp433
Rp434
aF0.027011871337890625
aI173
aS'kernel = 0 degree'
p435
ag4
(g8
S'\xc2\x11DZ/`\xeb?'
p436
tp437
Rp438
ag4
(g8
S'\xd0\xba\xc1\x14\xf9\xac\xeb?'
p439
tp440
Rp441
aF0.023125171661376953
aI173
aS'kernel = 0 degree'
p442
ag4
(g8
S'\xc2\x11DZ/`\xeb?'
p443
tp444
Rp445
ag4
(g8
S'\xd0\xba\xc1\x14\xf9\xac\xeb?'
p446
tp447
Rp448
aF0.01430511474609375
aI173
aS'kernel = 0 degree'
p449
aa(lp450
g4
(g8
S'(\x19\x8bj\x98\x1d\xec?'
p451
tp452
Rp453
ag4
(g8
S'3O\xa8\x05\x8cI\xec?'
p454
tp455
Rp456
aF0.014766931533813477
aI173
aS'kernel = 0 degree'
p457
ag4
(g8
S'u\x95g\xe2\xe3\xbe\xeb?'
p458
tp459
Rp460
ag4
(g8
S'\x82\x89\xfeNV\xcb\xeb?'
p461
tp462
Rp463
aF0.04440498352050781
aI173
aS'kernel = 0 degree'
p464
ag4
(g8
S'NWy&>\xee\xeb?'
p465
tp466
Rp467
ag4
(g8
S'\xaeC\xbf\xd9:\xf4\xeb?'
p468
tp469
Rp470
aF0.034258127212524414
aI173
aS'kernel = 0 degree'
p471
aa(lp472
g4
(g8
S'5\xcc\x0e\x8e \xd2\xea?'
p473
tp474
Rp475
ag4
(g8
S'\xd6\xfc\xb0H\x19x\xea?'
p476
tp477
Rp478
aF0.028345823287963867
aI173
aS'kernel = 0 degree'
p479
ag4
(g8
S'5\xcc\x0e\x8e \xd2\xea?'
p480
tp481
Rp482
ag4
(g8
S'\xd6\xfc\xb0H\x19x\xea?'
p483
tp484
Rp485
aF0.013967037200927734
aI173
aS'kernel = 0 degree'
p486
ag4
(g8
S'\\\n\xfdI\xc6\xa2\xea?'
p487
tp488
Rp489
ag4
(g8
S'5\x1e\xcd\x1fl<\xea?'
p490
tp491
Rp492
aF0.027077913284301758
aI173
aS'kernel = 0 degree'
p493
aa(lp494
g4
(g8
S'u\x95g\xe2\xe3\xbe\xeb?'
p495
tp496
Rp497
ag4
(g8
S'u\x95g\xe2\xe3\xbe\xeb?'
p498
tp499
Rp500
aF0.015976905822753906
aI173
aS'kernel = 0 degree'
p501
ag4
(g8
S'u\x95g\xe2\xe3\xbe\xeb?'
p502
tp503
Rp504
ag4
(g8
S'u\x95g\xe2\xe3\xbe\xeb?'
p505
tp506
Rp507
aF0.03520798683166504
aI173
aS'kernel = 0 degree'
p508
ag4
(g8
S'\xe8O2\x16\xd50\xeb?'
p509
tp510
Rp511
ag4
(g8
S'\xcd\xcc\xcc\xcc\xcc\xcc\xea?'
p512
tp513
Rp514
aF0.0214691162109375
aI173
aS'kernel = 0 degree'
p515
aa(lp516
g4
(g8
S'\xa9\x86\xd9\xc1\x11D\xea?'
p517
tp518
Rp519
ag4
(g8
S'\xc7\xb5HPS!\xea?'
p520
tp521
Rp522
aF0.03234386444091797
aI173
aS'kernel = 0 degree'
p523
ag4
(g8
S'\xa9\x86\xd9\xc1\x11D\xea?'
p524
tp525
Rp526
ag4
(g8
S'\xc7\xb5HPS!\xea?'
p527
tp528
Rp529
aF0.034770965576171875
aI173
aS'kernel = 0 degree'
p530
ag4
(g8
S'\x82H\xeb\x05ls\xea?'
p531
tp532
Rp533
ag4
(g8
S'\xe4\xb2b\xa0\x847\xea?'
p534
tp535
Rp536
aF0.03960895538330078
aI173
aS'kernel = 0 degree'
p537
aa(lp538
g4
(g8
S'\x9b\xd3U\x9e\x89\x8f\xeb?'
p539
tp540
Rp541
ag4
(g8
S'\xe2\x8e\xb8#\xee\x88\xeb?'
p542
tp543
Rp544
aF0.015023946762084961
aI173
aS'kernel = 0 degree'
p545
ag4
(g8
S'\x0f\x8e \xd2z\x01\xeb?'
p546
tp547
Rp548
ag4
(g8
S'\x18Q\xad\xb3/\xa2\xea?'
p549
tp550
Rp551
aF0.03247714042663574
aI173
aS'kernel = 0 degree'
p552
ag4
(g8
S'\xe8O2\x16\xd50\xeb?'
p553
tp554
Rp555
ag4
(g8
S'\xcd\xcc\xcc\xcc\xcc\xcc\xea?'
p556
tp557
Rp558
aF0.03583788871765137
aI173
aS'kernel = 0 degree'
p559
aa(lp560
g4
(g8
S'\x82H\xeb\x05ls\xea?'
p561
tp562
Rp563
ag4
(g8
S'\x9b\xb2\xa6\xac)k\xea?'
p564
tp565
Rp566
aF0.04039597511291504
aI173
aS'kernel = 0 degree'
p567
ag4
(g8
S'\x82H\xeb\x05ls\xea?'
p568
tp569
Rp570
ag4
(g8
S'\x9b\xb2\xa6\xac)k\xea?'
p571
tp572
Rp573
aF0.03227806091308594
aI173
aS'kernel = 0 degree'
p574
ag4
(g8
S'\x82H\xeb\x05ls\xea?'
p575
tp576
Rp577
ag4
(g8
S'\x9b\xb2\xa6\xac)k\xea?'
p578
tp579
Rp580
aF0.013612031936645508
aI173
aS'kernel = 0 degree'
p581
aa(lp582
g4
(g8
S'5\xcc\x0e\x8e \xd2\xea?'
p583
tp584
Rp585
ag4
(g8
S'\xd7\xfc\xb0H\x19x\xea?'
p586
tp587
Rp588
aF0.015137195587158203
aI173
aS'kernel = 0 degree'
p589
ag4
(g8
S'5\xcc\x0e\x8e \xd2\xea?'
p590
tp591
Rp592
ag4
(g8
S'\xd7\xfc\xb0H\x19x\xea?'
p593
tp594
Rp595
aF0.028306007385253906
aI173
aS'kernel = 0 degree'
p596
ag4
(g8
S'\x1cA\xa4\xf5\x02\xb6\xe9?'
p597
tp598
Rp599
ag4
(g8
S'433333\xe9?'
p600
tp601
Rp602
aF0.013596057891845703
aI173
aS'kernel = 0 degree'
p603
aa(lp604
g4
(g8
S'NWy&>\xee\xeb?'
p605
tp606
Rp607
ag4
(g8
S'\xe55\x94\xd7P^\xeb?'
p608
tp609
Rp610
aF0.026320934295654297
aI173
aS'kernel = 0 degree'
p611
ag4
(g8
S'u\x95g\xe2\xe3\xbe\xeb?'
p612
tp613
Rp614
ag4
(g8
S'\xdb\x850\xdb\x850\xeb?'
p615
tp616
Rp617
aF0.03232002258300781
aI173
aS'kernel = 0 degree'
p618
ag4
(g8
S'(\x19\x8bj\x98\x1d\xec?'
p619
tp620
Rp621
ag4
(g8
S'\xb1\xef\x119A\xb8\xeb?'
p622
tp623
Rp624
aF0.032089948654174805
aI173
aS'kernel = 0 degree'
p625
aa(lp626
g4
(g8
S'\xc2\x11DZ/`\xeb?'
p627
tp628
Rp629
ag4
(g8
S'a\xb9\xa7\x11\x96{\xea?'
p630
tp631
Rp632
aF0.06871914863586426
aI173
aS'kernel = 0 degree'
p633
ag4
(g8
S'\x0f\x8e \xd2z\x01\xeb?'
p634
tp635
Rp636
ag4
(g8
S'!\xf9\xf3*\x8b3\xea?'
p637
tp638
Rp639
aF0.01447606086730957
aI173
aS'kernel = 0 degree'
p640
ag4
(g8
S'\xe8O2\x16\xd50\xeb?'
p641
tp642
Rp643
ag4
(g8
S'\xc0\x1a\x13\xe9\x81\xca\xe9?'
p644
tp645
Rp646
aF0.013389110565185547
aI173
aS'kernel = 0 degree'
p647
aa(lp648
g4
(g8
S'\xc2\x11DZ/`\xeb?'
p649
tp650
Rp651
ag4
(g8
S'\xb8\x16\tj*D\xeb?'
p652
tp653
Rp654
aF0.01512002944946289
aI173
aS'kernel = 0 degree'
p655
ag4
(g8
S'\xc2\x11DZ/`\xeb?'
p656
tp657
Rp658
ag4
(g8
S'\xb8\x16\tj*D\xeb?'
p659
tp660
Rp661
aF0.04425501823425293
aI173
aS'kernel = 0 degree'
p662
ag4
(g8
S'\xe8O2\x16\xd50\xeb?'
p663
tp664
Rp665
ag4
(g8
S'\x1b\x1b\x1b\x1b\x1b\x1b\xeb?'
p666
tp667
Rp668
aF0.041224002838134766
aI173
aS'kernel = 0 degree'
p669
aa(lp670
g4
(g8
S'u\x95g\xe2\xe3\xbe\xeb?'
p671
tp672
Rp673
ag4
(g8
S'\xfbC!\xb9\x80\xd7\xeb?'
p674
tp675
Rp676
aF0.014890909194946289
aI173
aS'kernel = 0 degree'
p677
ag4
(g8
S'u\x95g\xe2\xe3\xbe\xeb?'
p678
tp679
Rp680
ag4
(g8
S'\xfbC!\xb9\x80\xd7\xeb?'
p681
tp682
Rp683
aF0.02128887176513672
aI173
aS'kernel = 0 degree'
p684
ag4
(g8
S'u\x95g\xe2\xe3\xbe\xeb?'
p685
tp686
Rp687
ag4
(g8
S'\xfbC!\xb9\x80\xd7\xeb?'
p688
tp689
Rp690
aF0.01366114616394043
aI173
aS'kernel = 0 degree'
p691
aa(lp692
g4
(g8
S'NWy&>\xee\xeb?'
p693
tp694
Rp695
ag4
(g8
S'\xf4<\xcf\xf3<\xcf\xeb?'
p696
tp697
Rp698
aF0.014987945556640625
aI173
aS'kernel = 0 degree'
p699
ag4
(g8
S'NWy&>\xee\xeb?'
p700
tp701
Rp702
ag4
(g8
S'\xf4<\xcf\xf3<\xcf\xeb?'
p703
tp704
Rp705
aF0.014433145523071289
aI173
aS'kernel = 0 degree'
p706
ag4
(g8
S'u\x95g\xe2\xe3\xbe\xeb?'
p707
tp708
Rp709
ag4
(g8
S'\xb5\xe1\xf3\xc7\x1c\xa5\xeb?'
p710
tp711
Rp712
aF0.016360998153686523
aI173
aS'kernel = 0 degree'
p713
aa(lp714
g4
(g8
S'NWy&>\xee\xeb?'
p715
tp716
Rp717
ag4
(g8
S'\x99\x99\x99\x99\x99\x99\xeb?'
p718
tp719
Rp720
aF0.016334056854248047
aI173
aS'kernel = 0 degree'
p721
ag4
(g8
S'\x9b\xd3U\x9e\x89\x8f\xeb?'
p722
tp723
Rp724
ag4
(g8
S'H\xf6\x0cD\xa5#\xeb?'
p725
tp726
Rp727
aF0.02840709686279297
aI173
aS'kernel = 0 degree'
p728
ag4
(g8
S'\xe8O2\x16\xd50\xeb?'
p729
tp730
Rp731
ag4
(g8
S'\x8f\xe38\x8e\xe38\xea?'
p732
tp733
Rp734
aF0.026955842971801758
aI173
aS'kernel = 0 degree'
p735
aa(lp736
g4
(g8
S'\xe8O2\x16\xd50\xeb?'
p737
tp738
Rp739
ag4
(g8
S'\xcd\xcc\xcc\xcc\xcc\xcc\xea?'
p740
tp741
Rp742
aF0.028342008590698242
aI173
aS'kernel = 0 degree'
p743
ag4
(g8
S'\xe8O2\x16\xd50\xeb?'
p744
tp745
Rp746
ag4
(g8
S'\xcd\xcc\xcc\xcc\xcc\xcc\xea?'
p747
tp748
Rp749
aF0.0239410400390625
aI173
aS'kernel = 0 degree'
p750
ag4
(g8
S'\xe8O2\x16\xd50\xeb?'
p751
tp752
Rp753
ag4
(g8
S'\xcd\xcc\xcc\xcc\xcc\xcc\xea?'
p754
tp755
Rp756
aF0.01385807991027832
aI173
aS'kernel = 0 degree'
p757
aa(lp758
g4
(g8
S'u\x95g\xe2\xe3\xbe\xeb?'
p759
tp760
Rp761
ag4
(g8
S'#\xbb\x89\xec&\xb2\xeb?'
p762
tp763
Rp764
aF0.024333953857421875
aI173
aS'kernel = 0 degree'
p765
ag4
(g8
S'u\x95g\xe2\xe3\xbe\xeb?'
p766
tp767
Rp768
ag4
(g8
S'#\xbb\x89\xec&\xb2\xeb?'
p769
tp770
Rp771
aF0.010400056838989258
aI173
aS'kernel = 0 degree'
p772
ag4
(g8
S'NWy&>\xee\xeb?'
p773
tp774
Rp775
ag4
(g8
S'\xcb\xb7|\xcb\xb7|\xeb?'
p776
tp777
Rp778
aF0.013428211212158203
aI173
aS'kernel = 0 degree'
p779
aa(lp780
g4
(g8
S'\xc2\x11DZ/`\xeb?'
p781
tp782
Rp783
ag4
(g8
S'\x1bp\xc5\x1ap\xc5\xea?'
p784
tp785
Rp786
aF0.01327204704284668
aI173
aS'kernel = 0 degree'
p787
ag4
(g8
S'\xc2\x11DZ/`\xeb?'
p788
tp789
Rp790
ag4
(g8
S'\x1bp\xc5\x1ap\xc5\xea?'
p791
tp792
Rp793
aF0.02836894989013672
aI173
aS'kernel = 0 degree'
p794
ag4
(g8
S'5\xcc\x0e\x8e \xd2\xea?'
p795
tp796
Rp797
ag4
(g8
S'r\x1c\xc7q\x1c\xc7\xe9?'
p798
tp799
Rp800
aF0.018264055252075195
aI173
aS'kernel = 0 degree'
p801
aa(lp802
g4
(g8
S'u\x95g\xe2\xe3\xbe\xeb?'
p803
tp804
Rp805
ag4
(g8
S']w\xbc\xd8\x12|\xeb?'
p806
tp807
Rp808
aF0.00945901870727539
aI173
aS'kernel = 0 degree'
p809
ag4
(g8
S'\x01\xdb\x9c\xae\xf2L\xec?'
p810
tp811
Rp812
ag4
(g8
S'\xbc\xbb\xbb\xbb\xbb\xbb\xeb?'
p813
tp814
Rp815
aF0.014837026596069336
aI173
aS'kernel = 0 degree'
p816
ag4
(g8
S'u\x95g\xe2\xe3\xbe\xeb?'
p817
tp818
Rp819
ag4
(g8
S'\x85\x06,\xe9\xe5O\xeb?'
p820
tp821
Rp822
aF0.014220952987670898
aI173
aS'kernel = 0 degree'
p823
aa(lp824
g4
(g8
S'C\x7f\x92\xb1\xa8\x86\xe9?'
p825
tp826
Rp827
ag4
(g8
S'~\x8f\xc8\t\xc2\xdd\xe8?'
p828
tp829
Rp830
aF0.014579057693481445
aI173
aS'kernel = 0 degree'
p831
ag4
(g8
S'C\x7f\x92\xb1\xa8\x86\xe9?'
p832
tp833
Rp834
ag4
(g8
S'~\x8f\xc8\t\xc2\xdd\xe8?'
p835
tp836
Rp837
aF0.01472783088684082
aI173
aS'kernel = 0 degree'
p838
ag4
(g8
S'\xcf\xc4\xc7}\xb7\x14\xea?'
p839
tp840
Rp841
ag4
(g8
S',\xf9\xc5\x92_,\xe9?'
p842
tp843
Rp844
aF0.008263111114501953
aI173
aS'kernel = 0 degree'
p845
aa(lp846
g4
(g8
S'NWy&>\xee\xeb?'
p847
tp848
Rp849
ag4
(g8
S'\x99\x99\x99\x99\x99\x99\xeb?'
p850
tp851
Rp852
aF0.02035689353942871
aI173
aS'kernel = 0 degree'
p853
ag4
(g8
S'h\xe2\xe3\xbe[\n\xed?'
p854
tp855
Rp856
ag4
(g8
S'\x1b\xcak(\xaf\xa1\xec?'
p857
tp858
Rp859
aF0.015295028686523438
aI173
aS'kernel = 0 degree'
p860
ag4
(g8
S'NWy&>\xee\xeb?'
p861
tp862
Rp863
ag4
(g8
S'\x99\x99\x99\x99\x99\x99\xeb?'
p864
tp865
Rp866
aF0.02228999137878418
aI173
aS'kernel = 0 degree'
p867
aa(lp868
g4
(g8
S'NWy&>\xee\xeb?'
p869
tp870
Rp871
ag4
(g8
S'\xf4<\xcf\xf3<\xcf\xeb?'
p872
tp873
Rp874
aF0.017956972122192383
aI173
aS'kernel = 0 degree'
p875
ag4
(g8
S'NWy&>\xee\xeb?'
p876
tp877
Rp878
ag4
(g8
S'\xf4<\xcf\xf3<\xcf\xeb?'
p879
tp880
Rp881
aF0.016197919845581055
aI173
aS'kernel = 0 degree'
p882
ag4
(g8
S'\xcf\xc4\xc7}\xb7\x14\xea?'
p883
tp884
Rp885
ag4
(g8
S'\n\xf3\xbbZ\xdc\x84\xe9?'
p886
tp887
Rp888
aF0.017917871475219727
aI173
aS'kernel = 0 degree'
p889
aa(lp890
g4
(g8
S'\x9b\xd3U\x9e\x89\x8f\xeb?'
p891
tp892
Rp893
ag4
(g8
S'\x1ba\xb9\xa7\x11\x96\xeb?'
p894
tp895
Rp896
aF0.018400907516479492
aI173
aS'kernel = 0 degree'
p897
ag4
(g8
S'\x9b\xd3U\x9e\x89\x8f\xeb?'
p898
tp899
Rp900
ag4
(g8
S'\x1ba\xb9\xa7\x11\x96\xeb?'
p901
tp902
Rp903
aF0.02035689353942871
aI173
aS'kernel = 0 degree'
p904
ag4
(g8
S'\x9b\xd3U\x9e\x89\x8f\xeb?'
p905
tp906
Rp907
ag4
(g8
S'\x1ba\xb9\xa7\x11\x96\xeb?'
p908
tp909
Rp910
aF0.01763296127319336
aI173
aS'kernel = 0 degree'
p911
aa(lp912
g4
(g8
S'\xc2\x11DZ/`\xeb?'
p913
tp914
Rp915
ag4
(g8
S"'\x9bl\xb2\xc9&\xeb?"
p916
tp917
Rp918
aF0.019809961318969727
aI173
aS'kernel = 0 degree'
p919
ag4
(g8
S'\xc2\x11DZ/`\xeb?'
p920
tp921
Rp922
ag4
(g8
S"'\x9bl\xb2\xc9&\xeb?"
p923
tp924
Rp925
aF0.01632404327392578
aI173
aS'kernel = 0 degree'
p926
ag4
(g8
S'\x9b\xd3U\x9e\x89\x8f\xeb?'
p927
tp928
Rp929
ag4
(g8
S'G\xf6\x0cD\xa5#\xeb?'
p930
tp931
Rp932
aF0.018200159072875977
aI173
aS'kernel = 0 degree'
p933
aa(lp934
g4
(g8
S'u\x95g\xe2\xe3\xbe\xeb?'
p935
tp936
Rp937
ag4
(g8
S'\x82\x89\xfeNV\xcb\xeb?'
p938
tp939
Rp940
aF0.017592906951904297
aI173
aS'kernel = 0 degree'
p941
ag4
(g8
S'u\x95g\xe2\xe3\xbe\xeb?'
p942
tp943
Rp944
ag4
(g8
S'\x82\x89\xfeNV\xcb\xeb?'
p945
tp946
Rp947
aF0.013714075088500977
aI173
aS'kernel = 0 degree'
p948
ag4
(g8
S'\x0f\x8e \xd2z\x01\xeb?'
p949
tp950
Rp951
ag4
(g8
S'\xbdK\x1e\x0c8\xe3\xea?'
p952
tp953
Rp954
aF0.015410184860229492
aI173
aS'kernel = 0 degree'
p955
aa(lp956
g4
(g8
S'u\x95g\xe2\xe3\xbe\xeb?'
p957
tp958
Rp959
ag4
(g8
S'\x82\x89\xfeNV\xcb\xeb?'
p960
tp961
Rp962
aF0.020421981811523438
aI173
aS'kernel = 0 degree'
p963
ag4
(g8
S'\x9b\xd3U\x9e\x89\x8f\xeb?'
p964
tp965
Rp966
ag4
(g8
S'|{{{{{\xeb?'
p967
tp968
Rp969
aF0.014534950256347656
aI173
aS'kernel = 0 degree'
p970
ag4
(g8
S'\x9b\xd3U\x9e\x89\x8f\xeb?'
p971
tp972
Rp973
ag4
(g8
S'|{{{{{\xeb?'
p974
tp975
Rp976
aF0.02012801170349121
aI173
aS'kernel = 0 degree'
p977
aa(lp978
g4
(g8
S'5\xcc\x0e\x8e \xd2\xea?'
p979
tp980
Rp981
ag4
(g8
S'\x8a\xda\x95\xa8]\x89\xea?'
p982
tp983
Rp984
aF0.01833486557006836
aI173
aS'kernel = 0 degree'
p985
ag4
(g8
S'5\xcc\x0e\x8e \xd2\xea?'
p986
tp987
Rp988
ag4
(g8
S'\x8a\xda\x95\xa8]\x89\xea?'
p989
tp990
Rp991
aF0.016354799270629883
aI173
aS'kernel = 0 degree'
p992
ag4
(g8
S'5\xcc\x0e\x8e \xd2\xea?'
p993
tp994
Rp995
ag4
(g8
S'\x8a\xda\x95\xa8]\x89\xea?'
p996
tp997
Rp998
aF0.0164029598236084
aI173
aS'kernel = 0 degree'
p999
aa(lp1000
g4
(g8
S'\x9b\xd3U\x9e\x89\x8f\xeb?'
p1001
tp1002
Rp1003
ag4
(g8
S'433333\xeb?'
p1004
tp1005
Rp1006
aF0.015681982040405273
aI173
aS'kernel = 0 degree'
p1007
ag4
(g8
S'u\x95g\xe2\xe3\xbe\xeb?'
p1008
tp1009
Rp1010
ag4
(g8
S'A\x9b\x06\xb4i@\xeb?'
p1011
tp1012
Rp1013
aF0.015772104263305664
aI173
aS'kernel = 0 degree'
p1014
ag4
(g8
S'(\x19\x8bj\x98\x1d\xec?'
p1015
tp1016
Rp1017
ag4
(g8
S'\xdd2n\x19\xb7\x8c\xeb?'
p1018
tp1019
Rp1020
aF0.012850046157836914
aI173
aS'kernel = 0 degree'
p1021
aa(lp1022
g4
(g8
S'NWy&>\xee\xeb?'
p1023
tp1024
Rp1025
ag4
(g8
S'\xb5+Q\xbb\x12\xb5\xeb?'
p1026
tp1027
Rp1028
aF0.020320892333984375
aI173
aS'kernel = 0 degree'
p1029
ag4
(g8
S'\xc2\x11DZ/`\xeb?'
p1030
tp1031
Rp1032
ag4
(g8
S'Z\x1dF\x99\x8a\xe7\xea?'
p1033
tp1034
Rp1035
aF0.014258146286010742
aI173
aS'kernel = 0 degree'
p1036
ag4
(g8
S'u\x95g\xe2\xe3\xbe\xeb?'
p1037
tp1038
Rp1039
ag4
(g8
S'\\w\xbc\xd8\x12|\xeb?'
p1040
tp1041
Rp1042
aF0.0165560245513916
aI173
aS'kernel = 0 degree'
p1043
aa(lp1044
g4
(g8
S'\x9b\xd3U\x9e\x89\x8f\xeb?'
p1045
tp1046
Rp1047
ag4
(g8
S'\xdb\xb6m\xdb\xb6m\xeb?'
p1048
tp1049
Rp1050
aF0.020372867584228516
aI173
aS'kernel = 0 degree'
p1051
ag4
(g8
S'\xc2\x11DZ/`\xeb?'
p1052
tp1053
Rp1054
ag4
(g8
S'\xd33\x95\xeb\x8e\x17\xeb?'
p1055
tp1056
Rp1057
aF0.02039313316345215
aI173
aS'kernel = 0 degree'
p1058
ag4
(g8
S'\\\n\xfdI\xc6\xa2\xea?'
p1059
tp1060
Rp1061
ag4
(g8
S'a\x1a\x03\xa61`\xea?'
p1062
tp1063
Rp1064
aF0.015993118286132812
aI173
aS'kernel = 0 degree'
p1065
aa(lp1066
g4
(g8
S'\xc2\x11DZ/`\xeb?'
p1067
tp1068
Rp1069
ag4
(g8
S'\xf3w\xf3\x08\xd5g\xea?'
p1070
tp1071
Rp1072
aF0.020320892333984375
aI173
aS'kernel = 0 degree'
p1073
ag4
(g8
S'\xc2\x11DZ/`\xeb?'
p1074
tp1075
Rp1076
ag4
(g8
S'\xeea\xeb\xdb\x80\xa1\xea?'
p1077
tp1078
Rp1079
aF0.013982057571411133
aI173
aS'kernel = 0 degree'
p1080
ag4
(g8
S'\x0f\x8e \xd2z\x01\xeb?'
p1081
tp1082
Rp1083
ag4
(g8
S'\x9a\x99\x99\x99\x99\x99\xe9?'
p1084
tp1085
Rp1086
aF0.011851787567138672
aI173
aS'kernel = 0 degree'
p1087
aa(lp1088
g4
(g8
S'u\x95g\xe2\xe3\xbe\xeb?'
p1089
tp1090
Rp1091
ag4
(g8
S'u\x95g\xe2\xe3\xbe\xeb?'
p1092
tp1093
Rp1094
aF0.022687911987304688
aI173
aS'kernel = 0 degree'
p1095
ag4
(g8
S'u\x95g\xe2\xe3\xbe\xeb?'
p1096
tp1097
Rp1098
ag4
(g8
S'u\x95g\xe2\xe3\xbe\xeb?'
p1099
tp1100
Rp1101
aF0.022706031799316406
aI173
aS'kernel = 0 degree'
p1102
ag4
(g8
S'u\x95g\xe2\xe3\xbe\xeb?'
p1103
tp1104
Rp1105
ag4
(g8
S'u\x95g\xe2\xe3\xbe\xeb?'
p1106
tp1107
Rp1108
aF0.013779163360595703
aI173
aS'kernel = 0 degree'
p1109
aas.