(dp0
S'german'
p1
(lp2
(lp3
cnumpy.core.multiarray
scalar
p4
(cnumpy
dtype
p5
(S'f8'
p6
I0
I1
tp7
Rp8
(I3
S'<'
p9
NNNI-1
I-1
I0
tp10
bS'\xa2E\xb6\xf3\xfd\xd4\xe8?'
p11
tp12
Rp13
ag4
(g8
S',l\x0e$Za\xe3?'
p14
tp15
Rp16
aF0.21521592140197754
aI250
aS'kernel = 1 degree'
p17
ag4
(g8
S'\xb2\x9d\xef\xa7\xc6K\xe7?'
p18
tp19
Rp20
ag4
(g8
S'\x00\x00\x00\x00\x00\x00\xe0?'
p21
tp22
Rp23
aF0.22245192527770996
aI250
aS'kernel = 1 degree'
p24
ag4
(g8
S'\xd7\xa3p=\n\xd7\xe3?'
p25
tp26
Rp27
ag4
(g8
S'\xb0\xac\xde%\x0f\x06\xdc?'
p28
tp29
Rp30
aF0.2131199836730957
aI250
aS'kernel = 1 degree'
p31
aa(lp32
g4
(g8
S'Zd;\xdfO\x8d\xe7?'
p33
tp34
Rp35
ag4
(g8
S'xxxxxx\xe0?'
p36
tp37
Rp38
aF0.25967907905578613
aI250
aS'kernel = 1 degree'
p39
ag4
(g8
S'\xa6\x9b\xc4 \xb0r\xe8?'
p40
tp41
Rp42
ag4
(g8
S'J\xf3\xe2O$\x9c\xe2?'
p43
tp44
Rp45
aF0.18709707260131836
aI250
aS'kernel = 0 degree'
p46
ag4
(g8
S'\x17\xd9\xce\xf7S\xe3\xe5?'
p47
tp48
Rp49
ag4
(g8
S'\xc2\x9f\t\x7f&\xfc\xd9?'
p50
tp51
Rp52
aF0.1584169864654541
aI250
aS'kernel = 0 degree'
p53
aa(lp54
g4
(g8
S'\x06\x81\x95C\x8bl\xe7?'
p55
tp56
Rp57
ag4
(g8
S'\x19\x04V\x0e-\xb2\xdd?'
p58
tp59
Rp60
aF0.15632295608520508
aI250
aS'kernel = 1 degree'
p61
ag4
(g8
S'\xfe\xd4x\xe9&1\xe8?'
p62
tp63
Rp64
ag4
(g8
S'\xa7\x185\xfcm\x8a\xe1?'
p65
tp66
Rp67
aF0.15472006797790527
aI250
aS'kernel = 0 degree'
p68
ag4
(g8
S'\xb6\xf3\xfd\xd4x\xe9\xe6?'
p69
tp70
Rp71
ag4
(g8
S't\xe5\x01\xc9:W\xde?'
p72
tp73
Rp74
aF0.13600897789001465
aI250
aS'kernel = 1 degree'
p75
aa(lp76
g4
(g8
S'\x9e\xef\xa7\xc6K7\xe9?'
p77
tp78
Rp79
ag4
(g8
S'\xfe6\xc5\xa8\xe1o\xe3?'
p80
tp81
Rp82
aF0.14404797554016113
aI250
aS'kernel = 1 degree'
p83
ag4
(g8
S'Nb\x10X9\xb4\xe8?'
p84
tp85
Rp86
ag4
(g8
S'\x93$I\x92$I\xe2?'
p87
tp88
Rp89
aF0.1262369155883789
aI250
aS'kernel = 1 degree'
p90
ag4
(g8
S'\xaa\xf1\xd2Mb\x10\xe8?'
p91
tp92
Rp93
ag4
(g8
S'\x8e\xe38\x8e\xe38\xe2?'
p94
tp95
Rp96
aF0.1361558437347412
aI250
aS'kernel = 1 degree'
p97
aa(lp98
g4
(g8
S'\xa2E\xb6\xf3\xfd\xd4\xe8?'
p99
tp100
Rp101
ag4
(g8
S'\x11\x11\x11\x11\x11\x11\xe1?'
p102
tp103
Rp104
aF0.10006403923034668
aI250
aS'kernel = 0 degree'
p105
ag4
(g8
S'\xaa\xf1\xd2Mb\x10\xe8?'
p106
tp107
Rp108
ag4
(g8
S'\x11\x04A\x10\x04A\xe0?'
p109
tp110
Rp111
aF0.13013291358947754
aI250
aS'kernel = 0 degree'
p112
ag4
(g8
S'\x02+\x87\x16\xd9\xce\xe7?'
p113
tp114
Rp115
ag4
(g8
S'\xf2\x15_\xf1\x15_\xe1?'
p116
tp117
Rp118
aF0.09085607528686523
aI250
aS'kernel = 1 degree'
p119
aa(lp120
g4
(g8
S'\x06\x81\x95C\x8bl\xe7?'
p121
tp122
Rp123
ag4
(g8
S'\x8f4G\x9a#\xcd\xe1?'
p124
tp125
Rp126
aF0.14749503135681152
aI250
aS'kernel = 0 degree'
p127
ag4
(g8
S'\xa2E\xb6\xf3\xfd\xd4\xe8?'
p128
tp129
Rp130
ag4
(g8
S'\xae\xf9a\x912\xf0\xe4?'
p131
tp132
Rp133
aF0.14296507835388184
aI250
aS'kernel = 1 degree'
p134
ag4
(g8
S'j\xbct\x93\x18\x04\xe6?'
p135
tp136
Rp137
ag4
(g8
S'\xee\xdc\xb9s\xe7\xce\xdd?'
p138
tp139
Rp140
aF0.056971073150634766
aI250
aS'kernel = 0 degree'
p141
aa(lp142
g4
(g8
S'\xa2E\xb6\xf3\xfd\xd4\xe8?'
p143
tp144
Rp145
ag4
(g8
S'+l\x0e$Za\xe3?'
p146
tp147
Rp148
aF0.06798815727233887
aI250
aS'kernel = 0 degree'
p149
ag4
(g8
S'\xaeG\xe1z\x14\xae\xe7?'
p150
tp151
Rp152
ag4
(g8
S'\x92\xe6Hs\xa49\xe2?'
p153
tp154
Rp155
aF0.051416873931884766
aI250
aS'kernel = 0 degree'
p156
ag4
(g8
S'\x17\xd9\xce\xf7S\xe3\xe5?'
p157
tp158
Rp159
ag4
(g8
S'i\x0b\rX\xd2\xcb\xdf?'
p160
tp161
Rp162
aF0.05998802185058594
aI250
aS'kernel = 1 degree'
p163
aa(lp164
g4
(g8
S'\xfe\xd4x\xe9&1\xe8?'
p165
tp166
Rp167
ag4
(g8
S"H8\xa5y\xf1'\xe2?"
p168
tp169
Rp170
aF0.06839108467102051
aI250
aS'kernel = 0 degree'
p171
ag4
(g8
S'\xaa\xf1\xd2Mb\x10\xe8?'
p172
tp173
Rp174
ag4
(g8
S'\xd0\x0b\xbd\xd0\x0b\xbd\xe0?'
p175
tp176
Rp177
aF0.06543207168579102
aI250
aS'kernel = 0 degree'
p178
ag4
(g8
S'\x1b/\xdd$\x06\x81\xe5?'
p179
tp180
Rp181
ag4
(g8
S'333333\xdf?'
p182
tp183
Rp184
aF0.05723404884338379
aI250
aS'kernel = 1 degree'
p185
aa(lp186
g4
(g8
S'\x06\x81\x95C\x8bl\xe7?'
p187
tp188
Rp189
ag4
(g8
S'#\x1d6\xd2a#\xdd?'
p190
tp191
Rp192
aF0.06714987754821777
aI250
aS'kernel = 0 degree'
p193
ag4
(g8
S'\n\xd7\xa3p=\n\xe7?'
p194
tp195
Rp196
ag4
(g8
S'\xa7\x11\x96{\x1aa\xd9?'
p197
tp198
Rp199
aF0.07650494575500488
aI250
aS'kernel = 0 degree'
p200
ag4
(g8
S'\x17\xd9\xce\xf7S\xe3\xe5?'
p201
tp202
Rp203
ag4
(g8
S'b\x1f\x17\xf6qa\xdf?'
p204
tp205
Rp206
aF0.05952095985412598
aI250
aS'kernel = 1 degree'
p207
aa(lp208
g4
(g8
S'\xf2\xd2Mb\x10X\xe9?'
p209
tp210
Rp211
ag4
(g8
S'\x99\x99\x99\x99\x99\x99\xe5?'
p212
tp213
Rp214
aF0.06498885154724121
aI250
aS'kernel = 1 degree'
p215
ag4
(g8
S'\xb6\xf3\xfd\xd4x\xe9\xe6?'
p216
tp217
Rp218
ag4
(g8
S'd*\x9ekV\x87\xe1?'
p219
tp220
Rp221
aF0.062330007553100586
aI250
aS'kernel = 1 degree'
p222
ag4
(g8
S'\xbe\x9f\x1a/\xdd$\xe6?'
p223
tp224
Rp225
ag4
(g8
S'!u\xca\x1fu\xca\xdf?'
p226
tp227
Rp228
aF0.06232285499572754
aI250
aS'kernel = 1 degree'
p229
aa(lp230
g4
(g8
S'Nb\x10X9\xb4\xe8?'
p231
tp232
Rp233
ag4
(g8
S'\x90\x9c\xe6k\xf5\xec\xe0?'
p234
tp235
Rp236
aF0.06700801849365234
aI250
aS'kernel = 1 degree'
p237
ag4
(g8
S'\xf6(\\\x8f\xc2\xf5\xe8?'
p238
tp239
Rp240
ag4
(g8
S'Q\x0f\xf5P\x0f\xf5\xe0?'
p241
tp242
Rp243
aF0.06405901908874512
aI250
aS'kernel = 1 degree'
p244
ag4
(g8
S'\xaa\xf1\xd2Mb\x10\xe8?'
p245
tp246
Rp247
ag4
(g8
S'\x8d\xb0\xdc\xd3\x08\xcb\xdd?'
p248
tp249
Rp250
aF0.03354287147521973
aI250
aS'kernel = 1 degree'
p251
aa(lp252
g4
(g8
S'\xbaI\x0c\x02+\x87\xe6?'
p253
tp254
Rp255
ag4
(g8
S'.-----\xdd?'
p256
tp257
Rp258
aF0.0680689811706543
aI250
aS'kernel = 0 degree'
p259
ag4
(g8
S'b\x10X9\xb4\xc8\xe6?'
p260
tp261
Rp262
ag4
(g8
S'\xe8Moz\xd3\x9b\xde?'
p263
tp264
Rp265
aF0.035984039306640625
aI250
aS'kernel = 0 degree'
p266
ag4
(g8
S'\xb6\xf3\xfd\xd4x\xe9\xe6?'
p267
tp268
Rp269
ag4
(g8
S'\x87\xd0C\xe8!\xf4\xe0?'
p270
tp271
Rp272
aF0.03319191932678223
aI250
aS'kernel = 0 degree'
p273
aa(lp274
g4
(g8
S'V\x0e-\xb2\x9d\xef\xe7?'
p275
tp276
Rp277
ag4
(g8
S'W9\xb4\xc8v\xbe\xdf?'
p278
tp279
Rp280
aF0.06606793403625488
aI250
aS'kernel = 0 degree'
p281
ag4
(g8
S'\xa6\x9b\xc4 \xb0r\xe8?'
p282
tp283
Rp284
ag4
(g8
S'W\xd4\x15uE]\xe1?'
p285
tp286
Rp287
aF0.03618288040161133
aI250
aS'kernel = 1 degree'
p288
ag4
(g8
S'b\x10X9\xb4\xc8\xe6?'
p289
tp290
Rp291
ag4
(g8
S'\x93\xf1\xdb\xa5\x9e\x8c\xdf?'
p292
tp293
Rp294
aF0.058374881744384766
aI250
aS'kernel = 1 degree'
p295
aa(lp296
g4
(g8
S'\xf6(\\\x8f\xc2\xf5\xe8?'
p297
tp298
Rp299
ag4
(g8
S'\xebQ\xb8\x1e\x85\xeb\xe1?'
p300
tp301
Rp302
aF0.0690910816192627
aI250
aS'kernel = 1 degree'
p303
ag4
(g8
S'\xf6(\\\x8f\xc2\xf5\xe8?'
p304
tp305
Rp306
ag4
(g8
S'R\x0f\xf5P\x0f\xf5\xe0?'
p307
tp308
Rp309
aF0.03965187072753906
aI250
aS'kernel = 1 degree'
p310
ag4
(g8
S'\xbaI\x0c\x02+\x87\xe6?'
p311
tp312
Rp313
ag4
(g8
S'\xbc\xd4\x93\xf1\xdb\xa5\xde?'
p314
tp315
Rp316
aF0.033364057540893555
aI250
aS'kernel = 1 degree'
p317
aa(lp318
g4
(g8
S'\x02+\x87\x16\xd9\xce\xe7?'
p319
tp320
Rp321
ag4
(g8
S'\xe7\xb1\x15A\xc3I\xdd?'
p322
tp323
Rp324
aF0.06587409973144531
aI250
aS'kernel = 1 degree'
p325
ag4
(g8
S'V\x0e-\xb2\x9d\xef\xe7?'
p326
tp327
Rp328
ag4
(g8
S'\x077\xfb\x85XQ\xda?'
p329
tp330
Rp331
aF0.03576803207397461
aI250
aS'kernel = 1 degree'
p332
ag4
(g8
S'\xaeG\xe1z\x14\xae\xe7?'
p333
tp334
Rp335
ag4
(g8
S'\x9d\xc1\n\x9d\xc1\n\xdd?'
p336
tp337
Rp338
aF0.05716204643249512
aI250
aS'kernel = 0 degree'
p339
aa(lp340
g4
(g8
S'\xa2E\xb6\xf3\xfd\xd4\xe8?'
p341
tp342
Rp343
ag4
(g8
S'm\xb2\xc9&\x9bl\xe2?'
p344
tp345
Rp346
aF0.07168316841125488
aI250
aS'kernel = 0 degree'
p347
ag4
(g8
S'\xfe\xd4x\xe9&1\xe8?'
p348
tp349
Rp350
ag4
(g8
S'\xe2\x8f[\x97w\xc0\xe1?'
p351
tp352
Rp353
aF0.06263399124145508
aI250
aS'kernel = 0 degree'
p354
ag4
(g8
S'\xf6(\\\x8f\xc2\xf5\xe8?'
p355
tp356
Rp357
ag4
(g8
S"16\x0b\xaa='\xe3?"
p358
tp359
Rp360
aF0.03287911415100098
aI250
aS'kernel = 1 degree'
p361
aa(lp362
g4
(g8
S'J\x0c\x02+\x87\x16\xe9?'
p363
tp364
Rp365
ag4
(g8
S'8\xbd\xe9Moz\xe3?'
p366
tp367
Rp368
aF0.038960933685302734
aI250
aS'kernel = 0 degree'
p369
ag4
(g8
S'\xfa~j\xbct\x93\xe8?'
p370
tp371
Rp372
ag4
(g8
S')\xf13J\xfc\x8c\xe2?'
p373
tp374
Rp375
aF0.03573203086853027
aI250
aS'kernel = 0 degree'
p376
ag4
(g8
S'\n\xd7\xa3p=\n\xe7?'
p377
tp378
Rp379
ag4
(g8
S'u\xd1E\x17]t\xe1?'
p380
tp381
Rp382
aF0.03295588493347168
aI250
aS'kernel = 1 degree'
p383
aa(lp384
g4
(g8
S'\xa6\x9b\xc4 \xb0r\xe8?'
p385
tp386
Rp387
ag4
(g8
S'\xfcq\xeb\xf2\x0e8\xe2?'
p388
tp389
Rp390
aF0.03786802291870117
aI250
aS'kernel = 1 degree'
p391
ag4
(g8
S'Zd;\xdfO\x8d\xe7?'
p392
tp393
Rp394
ag4
(g8
S'\x00\x00\x00\x00\x00\x00\xe0?'
p395
tp396
Rp397
aF0.06340312957763672
aI250
aS'kernel = 1 degree'
p398
ag4
(g8
S'\xaa\xf1\xd2Mb\x10\xe8?'
p399
tp400
Rp401
ag4
(g8
S'\x8f\xe38\x8e\xe38\xe2?'
p402
tp403
Rp404
aF0.0336759090423584
aI250
aS'kernel = 0 degree'
p405
aa(lp406
g4
(g8
S'F\xb6\xf3\xfd\xd4x\xe9?'
p407
tp408
Rp409
ag4
(g8
S'e\xfa*al\x16\xe4?'
p410
tp411
Rp412
aF0.06271600723266602
aI250
aS'kernel = 1 degree'
p413
ag4
(g8
S'\x9e\xef\xa7\xc6K7\xe9?'
p414
tp415
Rp416
ag4
(g8
S'K\x18\x9b\x05\xd5\x9e\xe3?'
p417
tp418
Rp419
aF0.03588104248046875
aI250
aS'kernel = 1 degree'
p420
ag4
(g8
S'333333\xe3?'
p421
tp422
Rp423
ag4
(g8
S'\xfa\x18\x9c\x8f\xc1\xf9\xd8?'
p424
tp425
Rp426
aF0.03313803672790527
aI250
aS'kernel = 1 degree'
p427
aa(lp428
g4
(g8
S'\xaa\xf1\xd2Mb\x10\xe8?'
p429
tp430
Rp431
ag4
(g8
S'*g\xb7\xf0\xab1\xe1?'
p432
tp433
Rp434
aF0.03832101821899414
aI250
aS'kernel = 1 degree'
p435
ag4
(g8
S'^\xbaI\x0c\x02+\xe7?'
p436
tp437
Rp438
ag4
(g8
S'\x19\x9c\x8f\xc1\xf9\x18\xdc?'
p439
tp440
Rp441
aF0.03555703163146973
aI250
aS'kernel = 0 degree'
p442
ag4
(g8
S'\x0e-\xb2\x9d\xef\xa7\xe6?'
p443
tp444
Rp445
ag4
(g8
S'8Ls\x17\xfcU\xdc?'
p446
tp447
Rp448
aF0.033203840255737305
aI250
aS'kernel = 1 degree'
p449
aa(lp450
g4
(g8
S'\xa6\x9b\xc4 \xb0r\xe8?'
p451
tp452
Rp453
ag4
(g8
S'\xacg\x87\xc0\x8de\xe0?'
p454
tp455
Rp456
aF0.03812384605407715
aI250
aS'kernel = 0 degree'
p457
ag4
(g8
S'V\x0e-\xb2\x9d\xef\xe7?'
p458
tp459
Rp460
ag4
(g8
S'\xcf\x11(\xdaj\xf0\xdc?'
p461
tp462
Rp463
aF0.03558611869812012
aI250
aS'kernel = 0 degree'
p464
ag4
(g8
S'^\xbaI\x0c\x02+\xe7?'
p465
tp466
Rp467
ag4
(g8
S',\xb8T\xb6w\x1d\xe0?'
p468
tp469
Rp470
aF0.03308582305908203
aI250
aS'kernel = 1 degree'
p471
aa(lp472
g4
(g8
S'\xaa\xf1\xd2Mb\x10\xe8?'
p473
tp474
Rp475
ag4
(g8
S'B\x1d\xd4A\x1d\xd4\xe1?'
p476
tp477
Rp478
aF0.03808403015136719
aI250
aS'kernel = 1 degree'
p479
ag4
(g8
S'\x02+\x87\x16\xd9\xce\xe7?'
p480
tp481
Rp482
ag4
(g8
S'\x90\x1f?~\xfc\xf8\xe1?'
p483
tp484
Rp485
aF0.0353541374206543
aI250
aS'kernel = 1 degree'
p486
ag4
(g8
S'ffffff\xe6?'
p487
tp488
Rp489
ag4
(g8
S'\x0f\x81\x1b\xcb\xa0T\xd8?'
p490
tp491
Rp492
aF0.03336501121520996
aI250
aS'kernel = 0 degree'
p493
aa(lp494
g4
(g8
S'\xf6(\\\x8f\xc2\xf5\xe8?'
p495
tp496
Rp497
ag4
(g8
S'\x02e\xe2J\xf7\x06\xe4?'
p498
tp499
Rp500
aF0.06046295166015625
aI250
aS'kernel = 1 degree'
p501
ag4
(g8
S'\xfa~j\xbct\x93\xe8?'
p502
tp503
Rp504
ag4
(g8
S'Y7\x98"\x9fu\xe3?'
p505
tp506
Rp507
aF0.14533185958862305
aI250
aS'kernel = 1 degree'
p508
ag4
(g8
S'\xaeG\xe1z\x14\xae\xe7?'
p509
tp510
Rp511
ag4
(g8
S'w\xd4"\xe4\xaf\xd9\xe1?'
p512
tp513
Rp514
aF0.08842706680297852
aI250
aS'kernel = 0 degree'
p515
aa(lp516
g4
(g8
S'\x9e\xef\xa7\xc6K7\xe9?'
p517
tp518
Rp519
ag4
(g8
S'}@u\xec\xad\r\xe3?'
p520
tp521
Rp522
aF0.11364912986755371
aI250
aS'kernel = 1 degree'
p523
ag4
(g8
S'R\xb8\x1e\x85\xebQ\xe8?'
p524
tp525
Rp526
ag4
(g8
S'1\x0c\xc30\x0c\xc3\xe0?'
p527
tp528
Rp529
aF0.14000892639160156
aI250
aS'kernel = 0 degree'
p530
ag4
(g8
S'\xfe\xd4x\xe9&1\xe8?'
p531
tp532
Rp533
ag4
(g8
S'\xa7\x185\xfcm\x8a\xe1?'
p534
tp535
Rp536
aF0.12561488151550293
aI250
aS'kernel = 1 degree'
p537
aa(lp538
g4
(g8
S'\xaa\xf1\xd2Mb\x10\xe8?'
p539
tp540
Rp541
ag4
(g8
S'*g\xb7\xf0\xab1\xe1?'
p542
tp543
Rp544
aF0.1180868148803711
aI250
aS'kernel = 1 degree'
p545
ag4
(g8
S'\xaa\xf1\xd2Mb\x10\xe8?'
p546
tp547
Rp548
ag4
(g8
S'\xf8\xe0\x83\x0f>\xf8\xe0?'
p549
tp550
Rp551
aF0.13236594200134277
aI250
aS'kernel = 1 degree'
p552
ag4
(g8
S'b\x10X9\xb4\xc8\xe6?'
p553
tp554
Rp555
ag4
(g8
S'\xb1\x13;\xb1\x13;\xe1?'
p556
tp557
Rp558
aF0.10443711280822754
aI250
aS'kernel = 1 degree'
p559
aa(lp560
g4
(g8
S'Zd;\xdfO\x8d\xe7?'
p561
tp562
Rp563
ag4
(g8
S'xxxxxx\xe0?'
p564
tp565
Rp566
aF0.09544801712036133
aI250
aS'kernel = 0 degree'
p567
ag4
(g8
S'\n\xd7\xa3p=\n\xe7?'
p568
tp569
Rp570
ag4
(g8
S'\x00\x00\x00\x00\x00\x00\xdd?'
p571
tp572
Rp573
aF0.06293201446533203
aI250
aS'kernel = 0 degree'
p574
ag4
(g8
S'\xb2\x9d\xef\xa7\xc6K\xe7?'
p575
tp576
Rp577
ag4
(g8
S'433333\xe3?'
p578
tp579
Rp580
aF0.12831711769104004
aI250
aS'kernel = 1 degree'
p581
aa(lp582
g4
(g8
S'\xaa\xf1\xd2Mb\x10\xe8?'
p583
tp584
Rp585
ag4
(g8
S'\xf9\xe0\x83\x0f>\xf8\xe0?'
p586
tp587
Rp588
aF0.12339591979980469
aI250
aS'kernel = 1 degree'
p589
ag4
(g8
S'V\x0e-\xb2\x9d\xef\xe7?'
p590
tp591
Rp592
ag4
(g8
S'Ms\x17\xfcU\x9c\xe0?'
p593
tp594
Rp595
aF0.12854909896850586
aI250
aS'kernel = 0 degree'
p596
ag4
(g8
S'\xb6\xf3\xfd\xd4x\xe9\xe6?'
p597
tp598
Rp599
ag4
(g8
S'\xebK\x05\xad\xbeT\xe0?'
p600
tp601
Rp602
aF0.08811402320861816
aI250
aS'kernel = 1 degree'
p603
aa(lp604
g4
(g8
S'\x02+\x87\x16\xd9\xce\xe7?'
p605
tp606
Rp607
ag4
(g8
S'\xe7\xb1\x15A\xc3I\xdd?'
p608
tp609
Rp610
aF0.1204838752746582
aI250
aS'kernel = 1 degree'
p611
ag4
(g8
S'\x06\x81\x95C\x8bl\xe7?'
p612
tp613
Rp614
ag4
(g8
S"\xb1'\xec\t{\xc2\xde?"
p615
tp616
Rp617
aF0.10851407051086426
aI250
aS'kernel = 1 degree'
p618
ag4
(g8
S'\xfa~j\xbct\x93\xe8?'
p619
tp620
Rp621
ag4
(g8
S'\x08!\x84\x10B\x08\xe1?'
p622
tp623
Rp624
aF0.11710882186889648
aI250
aS'kernel = 0 degree'
p625
aa(lp626
g4
(g8
S'\xa6\x9b\xc4 \xb0r\xe8?'
p627
tp628
Rp629
ag4
(g8
S'\x91k"\x90k"\xe0?'
p630
tp631
Rp632
aF0.14556884765625
aI250
aS'kernel = 0 degree'
p633
ag4
(g8
S'\xa2E\xb6\xf3\xfd\xd4\xe8?'
p634
tp635
Rp636
ag4
(g8
S'm\xb2\xc9&\x9bl\xe2?'
p637
tp638
Rp639
aF0.06975793838500977
aI250
aS'kernel = 1 degree'
p640
ag4
(g8
S'\xaa\xf1\xd2Mb\x10\xe8?'
p641
tp642
Rp643
ag4
(g8
S'\x00\x00\x00\x00\x00\x00\xe0?'
p644
tp645
Rp646
aF0.09511613845825195
aI250
aS'kernel = 0 degree'
p647
aa(lp648
g4
(g8
S'\xf6(\\\x8f\xc2\xf5\xe8?'
p649
tp650
Rp651
ag4
(g8
S'\xd5)\x7f\xd4)\x7f\xe4?'
p652
tp653
Rp654
aF0.1513969898223877
aI250
aS'kernel = 0 degree'
p655
ag4
(g8
S'\xfa~j\xbct\x93\xe8?'
p656
tp657
Rp658
ag4
(g8
S'ZZZZZZ\xe2?'
p659
tp660
Rp661
aF0.08315896987915039
aI250
aS'kernel = 1 degree'
p662
ag4
(g8
S'\x0e-\xb2\x9d\xef\xa7\xe6?'
p663
tp664
Rp665
ag4
(g8
S'H\xd6\xb9\xf2\x80d\xdd?'
p666
tp667
Rp668
aF0.12912797927856445
aI250
aS'kernel = 0 degree'
p669
aa(lp670
g4
(g8
S'Zd;\xdfO\x8d\xe7?'
p671
tp672
Rp673
ag4
(g8
S'xxxxxx\xe0?'
p674
tp675
Rp676
aF0.11238813400268555
aI250
aS'kernel = 1 degree'
p677
ag4
(g8
S'\x02+\x87\x16\xd9\xce\xe7?'
p678
tp679
Rp680
ag4
(g8
S'\x13?\xa3\xc4\xcf(\xe1?'
p681
tp682
Rp683
aF0.12829303741455078
aI250
aS'kernel = 1 degree'
p684
ag4
(g8
S'o\x12\x83\xc0\xca\xa1\xe5?'
p685
tp686
Rp687
ag4
(g8
S'rZ\xb3}\xa2z\xe0?'
p688
tp689
Rp690
aF0.10393500328063965
aI250
aS'kernel = 1 degree'
p691
aa(lp692
g4
(g8
S'\xfe\xd4x\xe9&1\xe8?'
p693
tp694
Rp695
ag4
(g8
S'-\x15\xb1T\xc4R\xe1?'
p696
tp697
Rp698
aF0.13247203826904297
aI250
aS'kernel = 0 degree'
p699
ag4
(g8
S'Zd;\xdfO\x8d\xe7?'
p700
tp701
Rp702
ag4
(g8
S'\x0e$Zas \xe1?'
p703
tp704
Rp705
aF0.11519312858581543
aI250
aS'kernel = 0 degree'
p706
ag4
(g8
S'\x02+\x87\x16\xd9\xce\xe7?'
p707
tp708
Rp709
ag4
(g8
S'\xf1\x15_\xf1\x15_\xe1?'
p710
tp711
Rp712
aF0.10439920425415039
aI250
aS'kernel = 1 degree'
p713
aa(lp714
g4
(g8
S'\xaa\xf1\xd2Mb\x10\xe8?'
p715
tp716
Rp717
ag4
(g8
S'*g\xb7\xf0\xab1\xe1?'
p718
tp719
Rp720
aF0.1443030834197998
aI250
aS'kernel = 1 degree'
p721
ag4
(g8
S'\xfe\xd4x\xe9&1\xe8?'
p722
tp723
Rp724
ag4
(g8
S'V\x9c\x90\x92g\x19\xe1?'
p725
tp726
Rp727
aF0.06200599670410156
aI250
aS'kernel = 1 degree'
p728
ag4
(g8
S'^\xbaI\x0c\x02+\xe7?'
p729
tp730
Rp731
ag4
(g8
S'N\xa7\xd3\xe9t:\xdd?'
p732
tp733
Rp734
aF0.11359381675720215
aI250
aS'kernel = 0 degree'
p735
aa(lp736
g4
(g8
S'\x06\x81\x95C\x8bl\xe7?'
p737
tp738
Rp739
ag4
(g8
S'\x19\x04V\x0e-\xb2\xdd?'
p740
tp741
Rp742
aF0.10004901885986328
aI250
aS'kernel = 1 degree'
p743
ag4
(g8
S'\x06\x81\x95C\x8bl\xe7?'
p744
tp745
Rp746
ag4
(g8
S"\xb1'\xec\t{\xc2\xde?"
p747
tp748
Rp749
aF0.061120033264160156
aI250
aS'kernel = 1 degree'
p750
ag4
(g8
S'\xbaI\x0c\x02+\x87\xe6?'
p751
tp752
Rp753
ag4
(g8
S'\xbe\xe2+\xbe\xe2+\xde?'
p754
tp755
Rp756
aF0.05829119682312012
aI250
aS'kernel = 1 degree'
p757
aa(lp758
g4
(g8
S'B`\xe5\xd0"\xdb\xe9?'
p759
tp760
Rp761
ag4
(g8
S'k(\xaf\xa1\xbc\x86\xe2?'
p762
tp763
Rp764
aF0.10655903816223145
aI250
aS'kernel = 0 degree'
p765
ag4
(g8
S'\x9e\xef\xa7\xc6K7\xe9?'
p766
tp767
Rp768
ag4
(g8
S'Rv\xbfQv\xbf\xe1?'
p769
tp770
Rp771
aF0.12144994735717773
aI250
aS'kernel = 1 degree'
p772
ag4
(g8
S'\n\xd7\xa3p=\n\xe7?'
p773
tp774
Rp775
ag4
(g8
S'\xe0{\xef\xbd\xf7\xde\xdb?'
p776
tp777
Rp778
aF0.11246085166931152
aI250
aS'kernel = 1 degree'
p779
aa(lp780
g4
(g8
S'\x9e\xef\xa7\xc6K7\xe9?'
p781
tp782
Rp783
ag4
(g8
S'}@u\xec\xad\r\xe3?'
p784
tp785
Rp786
aF0.11638021469116211
aI250
aS'kernel = 1 degree'
p787
ag4
(g8
S'\xaeG\xe1z\x14\xae\xe7?'
p788
tp789
Rp790
ag4
(g8
S'BJ\x9eeD\x1f\xe0?'
p791
tp792
Rp793
aF0.08042001724243164
aI250
aS'kernel = 1 degree'
p794
ag4
(g8
S'R\xb8\x1e\x85\xebQ\xe8?'
p795
tp796
Rp797
ag4
(g8
S'433333\xe3?'
p798
tp799
Rp800
aF0.14031219482421875
aI250
aS'kernel = 0 degree'
p801
aa(lp802
g4
(g8
S'\xfe\xd4x\xe9&1\xe8?'
p803
tp804
Rp805
ag4
(g8
S'"\xd0\x14\x02M!\xe0?'
p806
tp807
Rp808
aF0.11651301383972168
aI250
aS'kernel = 0 degree'
p809
ag4
(g8
S'\x02+\x87\x16\xd9\xce\xe7?'
p810
tp811
Rp812
ag4
(g8
S'\xe7\xb1\x15A\xc3I\xdd?'
p813
tp814
Rp815
aF0.12044000625610352
aI250
aS'kernel = 0 degree'
p816
ag4
(g8
S'\xb2\x9d\xef\xa7\xc6K\xe7?'
p817
tp818
Rp819
ag4
(g8
S'\xe7\x9cs\xce9\xe7\xdc?'
p820
tp821
Rp822
aF0.1124570369720459
aI250
aS'kernel = 1 degree'
p823
aa(lp824
g4
(g8
S'\xfe\xd4x\xe9&1\xe8?'
p825
tp826
Rp827
ag4
(g8
S'^\x9b(\xd9\xb5\x89\xe2?'
p828
tp829
Rp830
aF0.0662851333618164
aI250
aS'kernel = 1 degree'
p831
ag4
(g8
S'\xfa~j\xbct\x93\xe8?'
p832
tp833
Rp834
ag4
(g8
S'[7\x98"\x9fu\xe3?'
p835
tp836
Rp837
aF0.1458427906036377
aI250
aS'kernel = 0 degree'
p838
ag4
(g8
S'sh\x91\xed|?\xe5?'
p839
tp840
Rp841
ag4
(g8
S'gfffff\xde?'
p842
tp843
Rp844
aF0.058554887771606445
aI250
aS'kernel = 1 degree'
p845
aa(lp846
g4
(g8
S'\x9e\xef\xa7\xc6K7\xe9?'
p847
tp848
Rp849
ag4
(g8
S'}@u\xec\xad\r\xe3?'
p850
tp851
Rp852
aF0.06756591796875
aI250
aS'kernel = 1 degree'
p853
ag4
(g8
S'\xa6\x9b\xc4 \xb0r\xe8?'
p854
tp855
Rp856
ag4
(g8
S'I$\x12\x89D"\xe1?'
p857
tp858
Rp859
aF0.06355404853820801
aI250
aS'kernel = 1 degree'
p860
ag4
(g8
S'V\x0e-\xb2\x9d\xef\xe7?'
p861
tp862
Rp863
ag4
(g8
S'\xc5\xfb\x91\xd3|\xad\xde?'
p864
tp865
Rp866
aF0.12454700469970703
aI250
aS'kernel = 0 degree'
p867
aa(lp868
g4
(g8
S'\xf6(\\\x8f\xc2\xf5\xe8?'
p869
tp870
Rp871
ag4
(g8
S'\x0bY\xc8B\x16\xb2\xe0?'
p872
tp873
Rp874
aF0.06554007530212402
aI250
aS'kernel = 1 degree'
p875
ag4
(g8
S'R\xb8\x1e\x85\xebQ\xe8?'
p876
tp877
Rp878
ag4
(g8
S'\x00\x00\x00\x00\x00\x00\xe1?'
p879
tp880
Rp881
aF0.12268280982971191
aI250
aS'kernel = 0 degree'
p882
ag4
(g8
S'\xa6\x9b\xc4 \xb0r\xe8?'
p883
tp884
Rp885
ag4
(g8
S'W\xd4\x15uE]\xe1?'
p886
tp887
Rp888
aF0.10822415351867676
aI250
aS'kernel = 1 degree'
p889
aa(lp890
g4
(g8
S'\x02+\x87\x16\xd9\xce\xe7?'
p891
tp892
Rp893
ag4
(g8
S'\xdf\xf7}\xdf\xf7}\xdf?'
p894
tp895
Rp896
aF0.12038493156433105
aI250
aS'kernel = 0 degree'
p897
ag4
(g8
S'\xaa\xf1\xd2Mb\x10\xe8?'
p898
tp899
Rp900
ag4
(g8
S'iiiiii\xe1?'
p901
tp902
Rp903
aF0.1167600154876709
aI250
aS'kernel = 0 degree'
p904
ag4
(g8
S'\xaa\xf1\xd2Mb\x10\xe8?'
p905
tp906
Rp907
ag4
(g8
S'\xe7@\xa2\x156\x07\xe2?'
p908
tp909
Rp910
aF0.060031890869140625
aI250
aS'kernel = 1 degree'
p911
aa(lp912
g4
(g8
S'\xfe\xd4x\xe9&1\xe8?'
p913
tp914
Rp915
ag4
(g8
S'-\x15\xb1T\xc4R\xe1?'
p916
tp917
Rp918
aF0.12176299095153809
aI250
aS'kernel = 1 degree'
p919
ag4
(g8
S'\xaa\xf1\xd2Mb\x10\xe8?'
p920
tp921
Rp922
ag4
(g8
S'\xf8\xe0\x83\x0f>\xf8\xe0?'
p923
tp924
Rp925
aF0.11264896392822266
aI250
aS'kernel = 0 degree'
p926
ag4
(g8
S'\xfe\xd4x\xe9&1\xe8?'
p927
tp928
Rp929
ag4
(g8
S'8\xe4\ryC\xde\xe0?'
p930
tp931
Rp932
aF0.10837483406066895
aI250
aS'kernel = 1 degree'
p933
aa(lp934
g4
(g8
S'Nb\x10X9\xb4\xe8?'
p935
tp936
Rp937
ag4
(g8
S'x\xc4\x1dqG\xdc\xe1?'
p938
tp939
Rp940
aF0.11227607727050781
aI250
aS'kernel = 1 degree'
p941
ag4
(g8
S'\xa2E\xb6\xf3\xfd\xd4\xe8?'
p942
tp943
Rp944
ag4
(g8
S'r#7r#7\xe2?'
p945
tp946
Rp947
aF0.11864900588989258
aI250
aS'kernel = 0 degree'
p948
ag4
(g8
S'\xaeG\xe1z\x14\xae\xe7?'
p949
tp950
Rp951
ag4
(g8
S'\xe9\xe5O[h\xc0\xe2?'
p952
tp953
Rp954
aF0.12044882774353027
aI250
aS'kernel = 0 degree'
p955
aa(lp956
g4
(g8
S'V\x0e-\xb2\x9d\xef\xe7?'
p957
tp958
Rp959
ag4
(g8
S'\x17\xf4\x05}A_\xe0?'
p960
tp961
Rp962
aF0.16436409950256348
aI250
aS'kernel = 1 degree'
p963
ag4
(g8
S'\x02+\x87\x16\xd9\xce\xe7?'
p964
tp965
Rp966
ag4
(g8
S'\xf7\xde{\xef\xbd\xf7\xde?'
p967
tp968
Rp969
aF0.10872006416320801
aI250
aS'kernel = 1 degree'
p970
ag4
(g8
S'\xb2\x9d\xef\xa7\xc6K\xe7?'
p971
tp972
Rp973
ag4
(g8
S'\x00\x00\x00\x00\x00\x00\xe0?'
p974
tp975
Rp976
aF0.10836911201477051
aI250
aS'kernel = 0 degree'
p977
aa(lp978
g4
(g8
S'R\xb8\x1e\x85\xebQ\xe8?'
p979
tp980
Rp981
ag4
(g8
S't\xd1E\x17]t\xe1?'
p982
tp983
Rp984
aF0.13628911972045898
aI250
aS'kernel = 0 degree'
p985
ag4
(g8
S'\xaeG\xe1z\x14\xae\xe7?'
p986
tp987
Rp988
ag4
(g8
S'\xb8\x1e\x85\xebQ\xb8\xde?'
p989
tp990
Rp991
aF0.06369709968566895
aI250
aS'kernel = 1 degree'
p992
ag4
(g8
S'\xaa\xf1\xd2Mb\x10\xe8?'
p993
tp994
Rp995
ag4
(g8
S'\x10\x04A\x10\x04A\xe0?'
p996
tp997
Rp998
aF0.12593603134155273
aI250
aS'kernel = 0 degree'
p999
aa(lp1000
g4
(g8
S'\xaeG\xe1z\x14\xae\xe7?'
p1001
tp1002
Rp1003
ag4
(g8
S'\xf0\x07\xfc\x01\x7f\xc0\xdf?'
p1004
tp1005
Rp1006
aF0.12373805046081543
aI250
aS'kernel = 1 degree'
p1007
ag4
(g8
S'^\xbaI\x0c\x02+\xe7?'
p1008
tp1009
Rp1010
ag4
(g8
S'i\xbeV\xcf\x0e\x81\xdb?'
p1011
tp1012
Rp1013
aF0.12024092674255371
aI250
aS'kernel = 0 degree'
p1014
ag4
(g8
S'b\x10X9\xb4\xc8\xe6?'
p1015
tp1016
Rp1017
ag4
(g8
S'\xdc\xc8\x8d\xdc\xc8\x8d\xdc?'
p1018
tp1019
Rp1020
aF0.11242985725402832
aI250
aS'kernel = 0 degree'
p1021
aa(lp1022
g4
(g8
S'V\x0e-\xb2\x9d\xef\xe7?'
p1023
tp1024
Rp1025
ag4
(g8
S'W9\xb4\xc8v\xbe\xdf?'
p1026
tp1027
Rp1028
aF0.1484241485595703
aI250
aS'kernel = 0 degree'
p1029
ag4
(g8
S'V\x0e-\xb2\x9d\xef\xe7?'
p1030
tp1031
Rp1032
ag4
(g8
S'\xc9\xad\xcb;\xe0H\xe1?'
p1033
tp1034
Rp1035
aF0.10255694389343262
aI250
aS'kernel = 1 degree'
p1036
ag4
(g8
S'Zd;\xdfO\x8d\xe7?'
p1037
tp1038
Rp1039
ag4
(g8
S'\x1aa\xb9\xa7\x11\x96\xdb?'
p1040
tp1041
Rp1042
aF0.06760907173156738
aI250
aS'kernel = 0 degree'
p1043
aa(lp1044
g4
(g8
S'\xaa\xf1\xd2Mb\x10\xe8?'
p1045
tp1046
Rp1047
ag4
(g8
S'*g\xb7\xf0\xab1\xe1?'
p1048
tp1049
Rp1050
aF0.12440991401672363
aI250
aS'kernel = 1 degree'
p1051
ag4
(g8
S'\xb6\xf3\xfd\xd4x\xe9\xe6?'
p1052
tp1053
Rp1054
ag4
(g8
S'J\x9eeD\x1fP\xdd?'
p1055
tp1056
Rp1057
aF0.06345796585083008
aI250
aS'kernel = 1 degree'
p1058
ag4
(g8
S'\x17\xd9\xce\xf7S\xe3\xe5?'
p1059
tp1060
Rp1061
ag4
(g8
S'\xfcU\x9c\x90\x92g\xd9?'
p1062
tp1063
Rp1064
aF0.14829301834106445
aI250
aS'kernel = 0 degree'
p1065
aa(lp1066
g4
(g8
S'\xfe\xd4x\xe9&1\xe8?'
p1067
tp1068
Rp1069
ag4
(g8
S'\xf0:\xa0\x1b\xf3\xf4\xe1?'
p1070
tp1071
Rp1072
aF0.16022109985351562
aI250
aS'kernel = 1 degree'
p1073
ag4
(g8
S'ffffff\xe6?'
p1074
tp1075
Rp1076
ag4
(g8
S'x6\xea;\x1b\xf5\xdd?'
p1077
tp1078
Rp1079
aF0.13238096237182617
aI250
aS'kernel = 0 degree'
p1080
ag4
(g8
S'\xfa~j\xbct\x93\xe8?'
p1081
tp1082
Rp1083
ag4
(g8
S'\xce\xcaO\x88\xb3\xf2\xe3?'
p1084
tp1085
Rp1086
aF0.1121220588684082
aI250
aS'kernel = 1 degree'
p1087
aa(lp1088
g4
(g8
S'\xa6\x9b\xc4 \xb0r\xe8?'
p1089
tp1090
Rp1091
ag4
(g8
S'\xfcq\xeb\xf2\x0e8\xe2?'
p1092
tp1093
Rp1094
aF0.09638404846191406
aI250
aS'kernel = 1 degree'
p1095
ag4
(g8
S'\xa2E\xb6\xf3\xfd\xd4\xe8?'
p1096
tp1097
Rp1098
ag4
(g8
S'r#7r#7\xe2?'
p1099
tp1100
Rp1101
aF0.1323380470275879
aI250
aS'kernel = 0 degree'
p1102
ag4
(g8
S'\x12\x83\xc0\xca\xa1E\xe6?'
p1103
tp1104
Rp1105
ag4
(g8
S'\xcc\xb5\x03s\xed\xc0\xdc?'
p1106
tp1107
Rp1108
aF0.10845398902893066
aI250
aS'kernel = 0 degree'
p1109
aas.